
Joystick.elf:     file format elf32-littlearm

Sections:
Idx Name          Size      VMA       LMA       File off  Algn
  0 .isr_vector   0000010c  08000000  08000000  00010000  2**0
                  CONTENTS, ALLOC, LOAD, READONLY, DATA
  1 .text         000089c8  08000110  08000110  00010110  2**4
                  CONTENTS, ALLOC, LOAD, READONLY, CODE
  2 .rodata       00000de8  08008ad8  08008ad8  00018ad8  2**2
                  CONTENTS, ALLOC, LOAD, READONLY, DATA
  3 .ARM.extab    00000000  080098c0  080098c0  00020694  2**0
                  CONTENTS
  4 .ARM          00000000  080098c0  080098c0  00020694  2**0
                  CONTENTS
  5 .preinit_array 00000000  080098c0  080098c0  00020694  2**0
                  CONTENTS, ALLOC, LOAD, DATA
  6 .init_array   00000004  080098c0  080098c0  000198c0  2**2
                  CONTENTS, ALLOC, LOAD, DATA
  7 .fini_array   00000004  080098c4  080098c4  000198c4  2**2
                  CONTENTS, ALLOC, LOAD, DATA
  8 .data         00000694  20000000  080098c8  00020000  2**2
                  CONTENTS, ALLOC, LOAD, DATA
  9 .bss          00002554  20000694  08009f5c  00020694  2**2
                  ALLOC
 10 ._user_heap_stack 00000600  20002be8  08009f5c  00022be8  2**0
                  ALLOC
 11 .ARM.attributes 00000029  00000000  00000000  00020694  2**0
                  CONTENTS, READONLY
 12 .comment      00000043  00000000  00000000  000206bd  2**0
                  CONTENTS, READONLY
 13 .debug_info   00028294  00000000  00000000  00020700  2**0
                  CONTENTS, READONLY, DEBUGGING, OCTETS
 14 .debug_abbrev 000052dd  00000000  00000000  00048994  2**0
                  CONTENTS, READONLY, DEBUGGING, OCTETS
 15 .debug_loclists 00012f51  00000000  00000000  0004dc71  2**0
                  CONTENTS, READONLY, DEBUGGING, OCTETS
 16 .debug_aranges 00001880  00000000  00000000  00060bc8  2**3
                  CONTENTS, READONLY, DEBUGGING, OCTETS
 17 .debug_rnglists 000016bd  00000000  00000000  00062448  2**0
                  CONTENTS, READONLY, DEBUGGING, OCTETS
 18 .debug_macro  0001be10  00000000  00000000  00063b05  2**0
                  CONTENTS, READONLY, DEBUGGING, OCTETS
 19 .debug_line   000290f7  00000000  00000000  0007f915  2**0
                  CONTENTS, READONLY, DEBUGGING, OCTETS
 20 .debug_str    0009def8  00000000  00000000  000a8a0c  2**0
                  CONTENTS, READONLY, DEBUGGING, OCTETS
 21 .debug_frame  0000529c  00000000  00000000  00146904  2**2
                  CONTENTS, READONLY, DEBUGGING, OCTETS
 22 .debug_line_str 00000064  00000000  00000000  0014bba0  2**0
                  CONTENTS, READONLY, DEBUGGING, OCTETS

Disassembly of section .text:

08000110 <__do_global_dtors_aux>:
 8000110:	b510      	push	{r4, lr}
 8000112:	4c05      	ldr	r4, [pc, #20]	; (8000128 <__do_global_dtors_aux+0x18>)
 8000114:	7823      	ldrb	r3, [r4, #0]
 8000116:	b933      	cbnz	r3, 8000126 <__do_global_dtors_aux+0x16>
 8000118:	4b04      	ldr	r3, [pc, #16]	; (800012c <__do_global_dtors_aux+0x1c>)
 800011a:	b113      	cbz	r3, 8000122 <__do_global_dtors_aux+0x12>
 800011c:	4804      	ldr	r0, [pc, #16]	; (8000130 <__do_global_dtors_aux+0x20>)
 800011e:	f3af 8000 	nop.w
 8000122:	2301      	movs	r3, #1
 8000124:	7023      	strb	r3, [r4, #0]
 8000126:	bd10      	pop	{r4, pc}
 8000128:	20000694 	.word	0x20000694
 800012c:	00000000 	.word	0x00000000
 8000130:	08008ac0 	.word	0x08008ac0

08000134 <frame_dummy>:
 8000134:	b508      	push	{r3, lr}
 8000136:	4b03      	ldr	r3, [pc, #12]	; (8000144 <frame_dummy+0x10>)
 8000138:	b11b      	cbz	r3, 8000142 <frame_dummy+0xe>
 800013a:	4903      	ldr	r1, [pc, #12]	; (8000148 <frame_dummy+0x14>)
 800013c:	4803      	ldr	r0, [pc, #12]	; (800014c <frame_dummy+0x18>)
 800013e:	f3af 8000 	nop.w
 8000142:	bd08      	pop	{r3, pc}
 8000144:	00000000 	.word	0x00000000
 8000148:	20000698 	.word	0x20000698
 800014c:	08008ac0 	.word	0x08008ac0

08000150 <getPlayer>:


player_t *getPlayer(){

	return &Player;
}
 8000150:	4800      	ldr	r0, [pc, #0]	; (8000154 <getPlayer+0x4>)
 8000152:	4770      	bx	lr
 8000154:	20000724 	.word	0x20000724

08000158 <getDisparo>:
	return &movimiento_Aliens;
}

disparo_t *getDisparo(){
	return &Disparo;
}
 8000158:	4800      	ldr	r0, [pc, #0]	; (800015c <getDisparo+0x4>)
 800015a:	4770      	bx	lr
 800015c:	2000071c 	.word	0x2000071c

08000160 <getDisparoAliens>:

disparo_t *getDisparoAliens(){
	return &Disparo_Aliens;
}
 8000160:	4800      	ldr	r0, [pc, #0]	; (8000164 <getDisparoAliens+0x4>)
 8000162:	4770      	bx	lr
 8000164:	20000720 	.word	0x20000720

08000168 <getDificultad>:

dificultad_t *getDificultad(){

	return &dificultad;
}
 8000168:	4800      	ldr	r0, [pc, #0]	; (800016c <getDificultad+0x4>)
 800016a:	4770      	bx	lr
 800016c:	2000072c 	.word	0x2000072c

08000170 <actualizarPantalla>:

//----------------------------------------------------------------------------------------------------------------------------------------------


void actualizarPantalla(){
 8000170:	b508      	push	{r3, lr}

    SSD1306_UpdateScreen(); // update screen
 8000172:	f001 feff 	bl	8001f74 <SSD1306_UpdateScreen>
    SSD1306_Fill(0);
 8000176:	2000      	movs	r0, #0
 8000178:	f001 fbc4 	bl	8001904 <SSD1306_Fill>
}
 800017c:	bd08      	pop	{r3, pc}
	...

08000180 <playerInit>:


void playerInit(){

	getPlayer()->posicion_X = 64;
 8000180:	4b02      	ldr	r3, [pc, #8]	; (800018c <playerInit+0xc>)
 8000182:	2240      	movs	r2, #64	; 0x40
 8000184:	705a      	strb	r2, [r3, #1]
	getPlayer()->vivo = true;
 8000186:	2201      	movs	r2, #1
 8000188:	709a      	strb	r2, [r3, #2]
}
 800018a:	4770      	bx	lr
 800018c:	20000724 	.word	0x20000724

08000190 <plotPlayer>:

void plotPlayer(uint8_t direccion, player_t *player){
 8000190:	b500      	push	{lr}
 8000192:	b083      	sub	sp, #12
 8000194:	468c      	mov	ip, r1

	if(getPlayer()->vivo == true){
 8000196:	4b16      	ldr	r3, [pc, #88]	; (80001f0 <plotPlayer+0x60>)
 8000198:	789b      	ldrb	r3, [r3, #2]
 800019a:	2b01      	cmp	r3, #1
 800019c:	d11d      	bne.n	80001da <plotPlayer+0x4a>

		if(direccion == derecha){
 800019e:	2802      	cmp	r0, #2
 80001a0:	d00e      	beq.n	80001c0 <plotPlayer+0x30>
			else{
				player->posicion_X = player->posicion_X + 4;
			}

		}
		else if(direccion == izquierda){
 80001a2:	2803      	cmp	r0, #3
 80001a4:	d013      	beq.n	80001ce <plotPlayer+0x3e>
			else{
				player->posicion_X = player->posicion_X - 4;
			}
		}

		SSD1306_DrawBitmap(player->posicion_X, 56, nave, 8,8,1);
 80001a6:	2301      	movs	r3, #1
 80001a8:	9301      	str	r3, [sp, #4]
 80001aa:	2308      	movs	r3, #8
 80001ac:	9300      	str	r3, [sp, #0]
 80001ae:	4a11      	ldr	r2, [pc, #68]	; (80001f4 <plotPlayer+0x64>)
 80001b0:	2138      	movs	r1, #56	; 0x38
 80001b2:	f89c 0001 	ldrb.w	r0, [ip, #1]
 80001b6:	f001 fbdd 	bl	8001974 <SSD1306_DrawBitmap>

		SSD1306_DrawBitmap(player->posicion_X, 56, nave_explotada, 8,8,1);
	}


}
 80001ba:	b003      	add	sp, #12
 80001bc:	f85d fb04 	ldr.w	pc, [sp], #4
			if(player->posicion_X >= 120){
 80001c0:	784b      	ldrb	r3, [r1, #1]
 80001c2:	2b77      	cmp	r3, #119	; 0x77
				player->posicion_X = 120;
 80001c4:	bf8c      	ite	hi
 80001c6:	2378      	movhi	r3, #120	; 0x78
				player->posicion_X = player->posicion_X + 4;
 80001c8:	3304      	addls	r3, #4
 80001ca:	704b      	strb	r3, [r1, #1]
 80001cc:	e7eb      	b.n	80001a6 <plotPlayer+0x16>
			if(player->posicion_X <= 0){
 80001ce:	784b      	ldrb	r3, [r1, #1]
 80001d0:	2b00      	cmp	r3, #0
 80001d2:	d0e8      	beq.n	80001a6 <plotPlayer+0x16>
				player->posicion_X = player->posicion_X - 4;
 80001d4:	3b04      	subs	r3, #4
 80001d6:	704b      	strb	r3, [r1, #1]
 80001d8:	e7e5      	b.n	80001a6 <plotPlayer+0x16>
		SSD1306_DrawBitmap(player->posicion_X, 56, nave_explotada, 8,8,1);
 80001da:	2301      	movs	r3, #1
 80001dc:	9301      	str	r3, [sp, #4]
 80001de:	2308      	movs	r3, #8
 80001e0:	9300      	str	r3, [sp, #0]
 80001e2:	4a05      	ldr	r2, [pc, #20]	; (80001f8 <plotPlayer+0x68>)
 80001e4:	2138      	movs	r1, #56	; 0x38
 80001e6:	f89c 0001 	ldrb.w	r0, [ip, #1]
 80001ea:	f001 fbc3 	bl	8001974 <SSD1306_DrawBitmap>
}
 80001ee:	e7e4      	b.n	80001ba <plotPlayer+0x2a>
 80001f0:	20000724 	.word	0x20000724
 80001f4:	080092a8 	.word	0x080092a8
 80001f8:	080092b0 	.word	0x080092b0

080001fc <InvaderInit>:



void InvaderInit(){
 80001fc:	b510      	push	{r4, lr}

	getMovAliens()->orientacion = mov_derecha;
 80001fe:	2100      	movs	r1, #0
 8000200:	4b0c      	ldr	r3, [pc, #48]	; (8000234 <InvaderInit+0x38>)
 8000202:	7019      	strb	r1, [r3, #0]

	for(uint8_t y=0; y<NUM_ALIEN_FILA ;y++){
 8000204:	4c0c      	ldr	r4, [pc, #48]	; (8000238 <InvaderInit+0x3c>)
void InvaderInit(){
 8000206:	f04f 0e0a 	mov.w	lr, #10
		for(uint8_t x=0; x<NUM_ALIEN_COLUMNA; x++){
			getAlien(y,x)->posicion_X  =  OFFSET_INICIO + x*(TAMANO_ALIEN+ ESPACIO_ENTRE_COLUMNAS);
			getAlien(y,x)->posicion_Y = y*(TAMANO_ALIEN+ ESPACIO_ENTRE_FILAS);
			getAlien(y, x)->vivo = true;
 800020a:	f04f 0c01 	mov.w	ip, #1
			getAlien(y, x)->conteo_explosion = 2;
 800020e:	2002      	movs	r0, #2
void InvaderInit(){
 8000210:	4622      	mov	r2, r4
 8000212:	4673      	mov	r3, lr
			getAlien(y,x)->posicion_X  =  OFFSET_INICIO + x*(TAMANO_ALIEN+ ESPACIO_ENTRE_COLUMNAS);
 8000214:	7013      	strb	r3, [r2, #0]
			getAlien(y,x)->posicion_Y = y*(TAMANO_ALIEN+ ESPACIO_ENTRE_FILAS);
 8000216:	7051      	strb	r1, [r2, #1]
			getAlien(y, x)->vivo = true;
 8000218:	f882 c002 	strb.w	ip, [r2, #2]
			getAlien(y, x)->conteo_explosion = 2;
 800021c:	7110      	strb	r0, [r2, #4]
		for(uint8_t x=0; x<NUM_ALIEN_COLUMNA; x++){
 800021e:	330d      	adds	r3, #13
 8000220:	b2db      	uxtb	r3, r3
 8000222:	3205      	adds	r2, #5
 8000224:	2b65      	cmp	r3, #101	; 0x65
 8000226:	d1f5      	bne.n	8000214 <InvaderInit+0x18>
	for(uint8_t y=0; y<NUM_ALIEN_FILA ;y++){
 8000228:	3423      	adds	r4, #35	; 0x23
 800022a:	310b      	adds	r1, #11
 800022c:	b2c9      	uxtb	r1, r1
 800022e:	2921      	cmp	r1, #33	; 0x21
 8000230:	d1ee      	bne.n	8000210 <InvaderInit+0x14>
		}
	}

}
 8000232:	bd10      	pop	{r4, pc}
 8000234:	20000730 	.word	0x20000730
 8000238:	200006b0 	.word	0x200006b0

0800023c <plotAliens>:

void plotAliens(){
 800023c:	e92d 4ff0 	stmdb	sp!, {r4, r5, r6, r7, r8, r9, sl, fp, lr}
 8000240:	b083      	sub	sp, #12


	//Esta parte se encarga de ir moviendo los aliens de izquierda a derecha, derecha a izquierda.
	if(getMovAliens()->conteo_horizontal % dificultad.velocidad_horizontal == 0){
 8000242:	4b6b      	ldr	r3, [pc, #428]	; (80003f0 <plotAliens+0x1b4>)
 8000244:	7859      	ldrb	r1, [r3, #1]
 8000246:	4b6b      	ldr	r3, [pc, #428]	; (80003f4 <plotAliens+0x1b8>)
 8000248:	781a      	ldrb	r2, [r3, #0]
 800024a:	fbb1 f3f2 	udiv	r3, r1, r2
 800024e:	fb02 1313 	mls	r3, r2, r3, r1
 8000252:	f013 0fff 	tst.w	r3, #255	; 0xff
 8000256:	d13c      	bne.n	80002d2 <plotAliens+0x96>
		/*getMovAliens()->animacion = getMovAliens()->animacion + 1;
		if(getMovAliens()->animacion >= 8){
			getMovAliens()->animacion = 0;
		}*/

		getMovAliens()->animacion = !getMovAliens()->animacion;
 8000258:	4a65      	ldr	r2, [pc, #404]	; (80003f0 <plotAliens+0x1b4>)
 800025a:	78d3      	ldrb	r3, [r2, #3]
 800025c:	fab3 f383 	clz	r3, r3
 8000260:	095b      	lsrs	r3, r3, #5
 8000262:	70d3      	strb	r3, [r2, #3]

			switch(getMovAliens()->orientacion){
 8000264:	7813      	ldrb	r3, [r2, #0]
 8000266:	b18b      	cbz	r3, 800028c <plotAliens+0x50>
 8000268:	2b01      	cmp	r3, #1
 800026a:	d11e      	bne.n	80002aa <plotAliens+0x6e>
 800026c:	4c62      	ldr	r4, [pc, #392]	; (80003f8 <plotAliens+0x1bc>)
 800026e:	f104 0023 	add.w	r0, r4, #35	; 0x23
 8000272:	348c      	adds	r4, #140	; 0x8c
					break;

				case mov_izquierda:

						for(uint8_t y=0; y<NUM_ALIEN_FILA ;y++){
							for(uint8_t x=0; x<NUM_ALIEN_COLUMNA; x++){
 8000274:	f1a0 0323 	sub.w	r3, r0, #35	; 0x23

								getAlien(y,x)->posicion_X  = getAlien(y,x)->posicion_X - 2;
 8000278:	781a      	ldrb	r2, [r3, #0]
 800027a:	3a02      	subs	r2, #2
 800027c:	f803 2b05 	strb.w	r2, [r3], #5
							for(uint8_t x=0; x<NUM_ALIEN_COLUMNA; x++){
 8000280:	4283      	cmp	r3, r0
 8000282:	d1f9      	bne.n	8000278 <plotAliens+0x3c>
						for(uint8_t y=0; y<NUM_ALIEN_FILA ;y++){
 8000284:	3023      	adds	r0, #35	; 0x23
 8000286:	42a0      	cmp	r0, r4
 8000288:	d1f4      	bne.n	8000274 <plotAliens+0x38>
 800028a:	e00e      	b.n	80002aa <plotAliens+0x6e>
 800028c:	4c5a      	ldr	r4, [pc, #360]	; (80003f8 <plotAliens+0x1bc>)
 800028e:	f104 0023 	add.w	r0, r4, #35	; 0x23
 8000292:	348c      	adds	r4, #140	; 0x8c
							for(uint8_t x=0; x<NUM_ALIEN_COLUMNA; x++){
 8000294:	f1a0 0323 	sub.w	r3, r0, #35	; 0x23
								getAlien(y,x)->posicion_X  = getAlien(y,x)->posicion_X + 2;
 8000298:	781a      	ldrb	r2, [r3, #0]
 800029a:	3202      	adds	r2, #2
 800029c:	f803 2b05 	strb.w	r2, [r3], #5
							for(uint8_t x=0; x<NUM_ALIEN_COLUMNA; x++){
 80002a0:	4283      	cmp	r3, r0
 80002a2:	d1f9      	bne.n	8000298 <plotAliens+0x5c>
						for(uint8_t y=0; y<NUM_ALIEN_FILA ;y++){
 80002a4:	3023      	adds	r0, #35	; 0x23
 80002a6:	42a0      	cmp	r0, r4
 80002a8:	d1f4      	bne.n	8000294 <plotAliens+0x58>
		}


	//Aqui se cambia la orientacion de los aliens: cuando se llega al borde de la pantalla los aliens pasan a moverse hacia la derecha o hacia la izquierda.

			if( (getAlien(0,6)->posicion_X + TAMANO_ALIEN + 4) >= 127){
 80002aa:	4b53      	ldr	r3, [pc, #332]	; (80003f8 <plotAliens+0x1bc>)
 80002ac:	7f9b      	ldrb	r3, [r3, #30]
 80002ae:	2b72      	cmp	r3, #114	; 0x72
 80002b0:	d902      	bls.n	80002b8 <plotAliens+0x7c>

				getMovAliens()->orientacion = mov_izquierda;
 80002b2:	4b4f      	ldr	r3, [pc, #316]	; (80003f0 <plotAliens+0x1b4>)
 80002b4:	2201      	movs	r2, #1
 80002b6:	701a      	strb	r2, [r3, #0]
			}
			if( (getAlien(0,0)->posicion_X) <= 0){
 80002b8:	4b4f      	ldr	r3, [pc, #316]	; (80003f8 <plotAliens+0x1bc>)
 80002ba:	781b      	ldrb	r3, [r3, #0]
 80002bc:	b92b      	cbnz	r3, 80002ca <plotAliens+0x8e>
				getMovAliens()->orientacion = mov_derecha;
 80002be:	4b4c      	ldr	r3, [pc, #304]	; (80003f0 <plotAliens+0x1b4>)
 80002c0:	2200      	movs	r2, #0
 80002c2:	701a      	strb	r2, [r3, #0]
				getMovAliens()->conteo_bajada = getMovAliens()->conteo_bajada + 1;
 80002c4:	789a      	ldrb	r2, [r3, #2]
 80002c6:	3201      	adds	r2, #1
 80002c8:	709a      	strb	r2, [r3, #2]
			}



		//Esta parte se encarga de ir bajando los aliens.
			if(getMovAliens()->conteo_bajada == 10){
 80002ca:	4b49      	ldr	r3, [pc, #292]	; (80003f0 <plotAliens+0x1b4>)
 80002cc:	789b      	ldrb	r3, [r3, #2]
 80002ce:	2b0a      	cmp	r3, #10
 80002d0:	d009      	beq.n	80002e6 <plotAliens+0xaa>
				}
			}

	}

	getMovAliens()->conteo_horizontal = getMovAliens()->conteo_horizontal + 1;
 80002d2:	3101      	adds	r1, #1
 80002d4:	4b46      	ldr	r3, [pc, #280]	; (80003f0 <plotAliens+0x1b4>)
 80002d6:	7059      	strb	r1, [r3, #1]


	//Acá se grafican los aliens en la pantalla.
	//Se grafican los aliens que solo estan vivos.
		for(uint8_t y=0; y<NUM_ALIEN_FILA ;y++){
 80002d8:	f8df b11c 	ldr.w	fp, [pc, #284]	; 80003f8 <plotAliens+0x1bc>
	getMovAliens()->conteo_horizontal = getMovAliens()->conteo_horizontal + 1;
 80002dc:	46d9      	mov	r9, fp
 80002de:	f04f 0800 	mov.w	r8, #0
					switch(y){

					case 0:
						if(getAlien(y,x)->vivo == true){

							if(getMovAliens()->animacion == true ){
 80002e2:	469a      	mov	sl, r3
 80002e4:	e07a      	b.n	80003dc <plotAliens+0x1a0>
						getAlien(y,x)->posicion_Y  = getAlien(y,x)->posicion_Y + dificultad.velocidad_bajada;
 80002e6:	4b43      	ldr	r3, [pc, #268]	; (80003f4 <plotAliens+0x1b8>)
 80002e8:	785c      	ldrb	r4, [r3, #1]
 80002ea:	4d43      	ldr	r5, [pc, #268]	; (80003f8 <plotAliens+0x1bc>)
 80002ec:	f105 0023 	add.w	r0, r5, #35	; 0x23
 80002f0:	358c      	adds	r5, #140	; 0x8c
					for(uint8_t x=0; x<NUM_ALIEN_COLUMNA; x++){
 80002f2:	f1a0 0323 	sub.w	r3, r0, #35	; 0x23
						getAlien(y,x)->posicion_Y  = getAlien(y,x)->posicion_Y + dificultad.velocidad_bajada;
 80002f6:	785a      	ldrb	r2, [r3, #1]
 80002f8:	4422      	add	r2, r4
 80002fa:	705a      	strb	r2, [r3, #1]
					for(uint8_t x=0; x<NUM_ALIEN_COLUMNA; x++){
 80002fc:	3305      	adds	r3, #5
 80002fe:	4283      	cmp	r3, r0
 8000300:	d1f9      	bne.n	80002f6 <plotAliens+0xba>
				for(uint8_t y=0; y<NUM_ALIEN_FILA ;y++){
 8000302:	3023      	adds	r0, #35	; 0x23
 8000304:	42a8      	cmp	r0, r5
 8000306:	d1f4      	bne.n	80002f2 <plotAliens+0xb6>
 8000308:	4b39      	ldr	r3, [pc, #228]	; (80003f0 <plotAliens+0x1b4>)
 800030a:	2200      	movs	r2, #0
 800030c:	709a      	strb	r2, [r3, #2]
 800030e:	e7e0      	b.n	80002d2 <plotAliens+0x96>
						if(getAlien(y,x)->vivo == true){
 8000310:	78a3      	ldrb	r3, [r4, #2]
 8000312:	2b01      	cmp	r3, #1
 8000314:	d019      	beq.n	800034a <plotAliens+0x10e>
			for(uint8_t x=0; x<NUM_ALIEN_COLUMNA; x++){
 8000316:	3405      	adds	r4, #5
 8000318:	3505      	adds	r5, #5
 800031a:	42a7      	cmp	r7, r4
 800031c:	d057      	beq.n	80003ce <plotAliens+0x192>
					switch(y){
 800031e:	2e00      	cmp	r6, #0
 8000320:	d0f6      	beq.n	8000310 <plotAliens+0xd4>
 8000322:	2e01      	cmp	r6, #1
 8000324:	d028      	beq.n	8000378 <plotAliens+0x13c>
								//getMovAliens()->animacion = true;
							}
						}
						break;
					default:
						if(getAlien(y,x)->vivo == true){
 8000326:	78ab      	ldrb	r3, [r5, #2]
 8000328:	2b01      	cmp	r3, #1
 800032a:	d1f4      	bne.n	8000316 <plotAliens+0xda>
							if(getMovAliens()->animacion == true ){
 800032c:	f89a 3003 	ldrb.w	r3, [sl, #3]
 8000330:	2b01      	cmp	r3, #1
 8000332:	d042      	beq.n	80003ba <plotAliens+0x17e>
								SSD1306_DrawBitmap(getAlien(y,x)->posicion_X, getAlien(y,x)->posicion_Y,InvaderBottomGfx,16,8,1);
							}
							else{
								SSD1306_DrawBitmap(getAlien(y,x)->posicion_X, getAlien(y,x)->posicion_Y,InvaderBottomGfx2,16,8,1);
 8000334:	2301      	movs	r3, #1
 8000336:	9301      	str	r3, [sp, #4]
 8000338:	2308      	movs	r3, #8
 800033a:	9300      	str	r3, [sp, #0]
 800033c:	2310      	movs	r3, #16
 800033e:	4a2f      	ldr	r2, [pc, #188]	; (80003fc <plotAliens+0x1c0>)
 8000340:	7869      	ldrb	r1, [r5, #1]
 8000342:	7828      	ldrb	r0, [r5, #0]
 8000344:	f001 fb16 	bl	8001974 <SSD1306_DrawBitmap>
 8000348:	e7e5      	b.n	8000316 <plotAliens+0xda>
							if(getMovAliens()->animacion == true ){
 800034a:	f89a 3003 	ldrb.w	r3, [sl, #3]
 800034e:	2b01      	cmp	r3, #1
 8000350:	d009      	beq.n	8000366 <plotAliens+0x12a>
								SSD1306_DrawBitmap(getAlien(y,x)->posicion_X, getAlien(y,x)->posicion_Y,InvaderTopGfx2,8,8,1);
 8000352:	2301      	movs	r3, #1
 8000354:	9301      	str	r3, [sp, #4]
 8000356:	2308      	movs	r3, #8
 8000358:	9300      	str	r3, [sp, #0]
 800035a:	4a29      	ldr	r2, [pc, #164]	; (8000400 <plotAliens+0x1c4>)
 800035c:	7861      	ldrb	r1, [r4, #1]
 800035e:	7820      	ldrb	r0, [r4, #0]
 8000360:	f001 fb08 	bl	8001974 <SSD1306_DrawBitmap>
 8000364:	e7d7      	b.n	8000316 <plotAliens+0xda>
								SSD1306_DrawBitmap(getAlien(y,x)->posicion_X, getAlien(y,x)->posicion_Y,InvaderTopGfx,8,8,1);
 8000366:	9301      	str	r3, [sp, #4]
 8000368:	2308      	movs	r3, #8
 800036a:	9300      	str	r3, [sp, #0]
 800036c:	4a25      	ldr	r2, [pc, #148]	; (8000404 <plotAliens+0x1c8>)
 800036e:	7861      	ldrb	r1, [r4, #1]
 8000370:	7820      	ldrb	r0, [r4, #0]
 8000372:	f001 faff 	bl	8001974 <SSD1306_DrawBitmap>
 8000376:	e7ce      	b.n	8000316 <plotAliens+0xda>
						if(getAlien(y,x)->vivo == true){
 8000378:	f894 3025 	ldrb.w	r3, [r4, #37]	; 0x25
 800037c:	2b01      	cmp	r3, #1
 800037e:	d1ca      	bne.n	8000316 <plotAliens+0xda>
							if(getMovAliens()->animacion == true ){
 8000380:	f89a 3003 	ldrb.w	r3, [sl, #3]
 8000384:	2b01      	cmp	r3, #1
 8000386:	d00c      	beq.n	80003a2 <plotAliens+0x166>
								SSD1306_DrawBitmap(getAlien(y,x)->posicion_X, getAlien(y,x)->posicion_Y,InvaderMiddleGfx2,16,8,1);
 8000388:	2301      	movs	r3, #1
 800038a:	9301      	str	r3, [sp, #4]
 800038c:	2308      	movs	r3, #8
 800038e:	9300      	str	r3, [sp, #0]
 8000390:	2310      	movs	r3, #16
 8000392:	4a1d      	ldr	r2, [pc, #116]	; (8000408 <plotAliens+0x1cc>)
 8000394:	f894 1024 	ldrb.w	r1, [r4, #36]	; 0x24
 8000398:	f894 0023 	ldrb.w	r0, [r4, #35]	; 0x23
 800039c:	f001 faea 	bl	8001974 <SSD1306_DrawBitmap>
 80003a0:	e7b9      	b.n	8000316 <plotAliens+0xda>
								SSD1306_DrawBitmap(getAlien(y,x)->posicion_X, getAlien(y,x)->posicion_Y,InvaderMiddleGfx,16,8,1);
 80003a2:	9301      	str	r3, [sp, #4]
 80003a4:	2308      	movs	r3, #8
 80003a6:	9300      	str	r3, [sp, #0]
 80003a8:	2310      	movs	r3, #16
 80003aa:	4a18      	ldr	r2, [pc, #96]	; (800040c <plotAliens+0x1d0>)
 80003ac:	f894 1024 	ldrb.w	r1, [r4, #36]	; 0x24
 80003b0:	f894 0023 	ldrb.w	r0, [r4, #35]	; 0x23
 80003b4:	f001 fade 	bl	8001974 <SSD1306_DrawBitmap>
 80003b8:	e7ad      	b.n	8000316 <plotAliens+0xda>
								SSD1306_DrawBitmap(getAlien(y,x)->posicion_X, getAlien(y,x)->posicion_Y,InvaderBottomGfx,16,8,1);
 80003ba:	9301      	str	r3, [sp, #4]
 80003bc:	2308      	movs	r3, #8
 80003be:	9300      	str	r3, [sp, #0]
 80003c0:	2310      	movs	r3, #16
 80003c2:	4a13      	ldr	r2, [pc, #76]	; (8000410 <plotAliens+0x1d4>)
 80003c4:	7869      	ldrb	r1, [r5, #1]
 80003c6:	7828      	ldrb	r0, [r5, #0]
 80003c8:	f001 fad4 	bl	8001974 <SSD1306_DrawBitmap>
 80003cc:	e7a3      	b.n	8000316 <plotAliens+0xda>
		for(uint8_t y=0; y<NUM_ALIEN_FILA ;y++){
 80003ce:	f108 0801 	add.w	r8, r8, #1
 80003d2:	f109 0923 	add.w	r9, r9, #35	; 0x23
 80003d6:	f1b8 0f03 	cmp.w	r8, #3
 80003da:	d006      	beq.n	80003ea <plotAliens+0x1ae>
 80003dc:	fa5f f688 	uxtb.w	r6, r8
			for(uint8_t x=0; x<NUM_ALIEN_COLUMNA; x++){
 80003e0:	f10b 0723 	add.w	r7, fp, #35	; 0x23
void plotAliens(){
 80003e4:	464d      	mov	r5, r9
 80003e6:	465c      	mov	r4, fp
 80003e8:	e799      	b.n	800031e <plotAliens+0xe2>
					}
			}

		}

}
 80003ea:	b003      	add	sp, #12
 80003ec:	e8bd 8ff0 	ldmia.w	sp!, {r4, r5, r6, r7, r8, r9, sl, fp, pc}
 80003f0:	20000730 	.word	0x20000730
 80003f4:	2000072c 	.word	0x2000072c
 80003f8:	200006b0 	.word	0x200006b0
 80003fc:	08009258 	.word	0x08009258
 8000400:	08009290 	.word	0x08009290
 8000404:	08009288 	.word	0x08009288
 8000408:	08009278 	.word	0x08009278
 800040c:	08009268 	.word	0x08009268
 8000410:	08009248 	.word	0x08009248

08000414 <disparoInit>:


void disparoInit(){

	//Inicializacion del disparo del Player
	getDisparo()->posicion_x = 0;
 8000414:	4b05      	ldr	r3, [pc, #20]	; (800042c <disparoInit+0x18>)
 8000416:	2200      	movs	r2, #0
 8000418:	701a      	strb	r2, [r3, #0]
	getDisparo()->posicion_y = POSICION_INICIAL_DISPARO;
 800041a:	2132      	movs	r1, #50	; 0x32
 800041c:	7059      	strb	r1, [r3, #1]
	getDisparo()->disparo = false;
 800041e:	709a      	strb	r2, [r3, #2]
	getDisparo()->numero_disparos = 0;
 8000420:	70da      	strb	r2, [r3, #3]

	//Inicializacion del Disparo de los Aliens
	getDisparoAliens()->numero_disparos = 21;
 8000422:	4b03      	ldr	r3, [pc, #12]	; (8000430 <disparoInit+0x1c>)
 8000424:	2215      	movs	r2, #21
 8000426:	70da      	strb	r2, [r3, #3]
}
 8000428:	4770      	bx	lr
 800042a:	bf00      	nop
 800042c:	2000071c 	.word	0x2000071c
 8000430:	20000720 	.word	0x20000720

08000434 <disparar>:


void disparar(){
 8000434:	e92d 4ff0 	stmdb	sp!, {r4, r5, r6, r7, r8, r9, sl, fp, lr}
 8000438:	b083      	sub	sp, #12


			if(getDisparo()->numero_disparos == 1){
 800043a:	4b45      	ldr	r3, [pc, #276]	; (8000550 <disparar+0x11c>)
 800043c:	78db      	ldrb	r3, [r3, #3]
 800043e:	2b01      	cmp	r3, #1
 8000440:	d00e      	beq.n	8000460 <disparar+0x2c>
				getDisparo()->disparo = true;
				getDisparo()->posicion_x = getPlayer()->posicion_X;
			}


			if(getDisparo()->disparo == true){
 8000442:	4b43      	ldr	r3, [pc, #268]	; (8000550 <disparar+0x11c>)
 8000444:	789b      	ldrb	r3, [r3, #2]
 8000446:	2b01      	cmp	r3, #1
 8000448:	d010      	beq.n	800046c <disparar+0x38>
			//Eliminar los aliens si se produce un disparo. Se fija si el disparo se encuentra en el area comprendido por cada alien.
			for(uint8_t y=0; y<NUM_ALIEN_FILA ;y++){

				uint8_t tamano_alien = TAMANO_ALIEN_TOP;

				switch(y){
 800044a:	f8df 8108 	ldr.w	r8, [pc, #264]	; 8000554 <disparar+0x120>
 800044e:	f04f 0900 	mov.w	r9, #0
				uint8_t tamano_alien = TAMANO_ALIEN_TOP;
 8000452:	2708      	movs	r7, #8

				}

				for(uint8_t x=0; x<NUM_ALIEN_COLUMNA; x++){

					if( (getDisparo()->posicion_x + 1 >= getAlien(y,x)->posicion_X) &  (getDisparo()->posicion_x + 1 <= (getAlien(y,x)->posicion_X + tamano_alien)) & ((getDisparo()->posicion_y) >= getAlien(y,x)->posicion_Y) & (getDisparo()->posicion_y <= getAlien(y,x)->posicion_Y + tamano_alien)){
 8000454:	4e3e      	ldr	r6, [pc, #248]	; (8000550 <disparar+0x11c>)
									getDisparo()->numero_disparos = 0;


									//Conteo de la cantidad de aliens eliminados (esto para la funcion disparoAliens())
									//getDisparoAliens()->numero_disparos se interpretará como aliens eliminados.
									getDisparoAliens()->numero_disparos = getDisparoAliens()->numero_disparos - 1;
 8000456:	f8df b100 	ldr.w	fp, [pc, #256]	; 8000558 <disparar+0x124>

					//Se grafican las explosiones, como la pantalla se refresca muy rapido, las se utiliza una variable 'conteo_explosiones' para
					//que se grafique la explosion por mas tiempo y cuando conteo_explosiones = 0 ahi se deja de graficar las explosiones.
					//Tambien se definio una variable explosion, si es true se entra a este if y se decrementa conteo_explosiones.
					if(getAlien(y,x)->explosion == true){
						SSD1306_DrawBitmap(getAlien(y,x)->posicion_X, getAlien(y,x)->posicion_Y,explosion,16,8,1);
 800045a:	f04f 0a01 	mov.w	sl, #1
 800045e:	e070      	b.n	8000542 <disparar+0x10e>
				getDisparo()->disparo = true;
 8000460:	4b3b      	ldr	r3, [pc, #236]	; (8000550 <disparar+0x11c>)
 8000462:	2201      	movs	r2, #1
 8000464:	709a      	strb	r2, [r3, #2]
				getDisparo()->posicion_x = getPlayer()->posicion_X;
 8000466:	4a3d      	ldr	r2, [pc, #244]	; (800055c <disparar+0x128>)
 8000468:	7852      	ldrb	r2, [r2, #1]
 800046a:	701a      	strb	r2, [r3, #0]
				SSD1306_DrawLine(getDisparo()->posicion_x + 4, getDisparo()->posicion_y, getDisparo()->posicion_x + 4, getDisparo()->posicion_y + 2, 1);
 800046c:	4c38      	ldr	r4, [pc, #224]	; (8000550 <disparar+0x11c>)
 800046e:	7820      	ldrb	r0, [r4, #0]
 8000470:	3004      	adds	r0, #4
 8000472:	f994 1001 	ldrsb.w	r1, [r4, #1]
 8000476:	b289      	uxth	r1, r1
 8000478:	1c8b      	adds	r3, r1, #2
 800047a:	2201      	movs	r2, #1
 800047c:	9200      	str	r2, [sp, #0]
 800047e:	b29b      	uxth	r3, r3
 8000480:	4602      	mov	r2, r0
 8000482:	f001 fb28 	bl	8001ad6 <SSD1306_DrawLine>
				getDisparo()->posicion_y = getDisparo()->posicion_y - VELOCIDAD_DISPARO_PLAYER;
 8000486:	7863      	ldrb	r3, [r4, #1]
 8000488:	3b04      	subs	r3, #4
 800048a:	b25b      	sxtb	r3, r3
 800048c:	7063      	strb	r3, [r4, #1]
				if(getDisparo()->posicion_y <= 0){
 800048e:	2b00      	cmp	r3, #0
 8000490:	dcdb      	bgt.n	800044a <disparar+0x16>
					getDisparo()->disparo = false;
 8000492:	2200      	movs	r2, #0
 8000494:	70a2      	strb	r2, [r4, #2]
					getDisparo()->posicion_y = POSICION_INICIAL_DISPARO;
 8000496:	2132      	movs	r1, #50	; 0x32
 8000498:	7061      	strb	r1, [r4, #1]
					getDisparo()->numero_disparos = 0;
 800049a:	70e2      	strb	r2, [r4, #3]
 800049c:	e7d5      	b.n	800044a <disparar+0x16>
				switch(y){
 800049e:	270b      	movs	r7, #11
 80004a0:	e04d      	b.n	800053e <disparar+0x10a>
					if(getAlien(y,x)->explosion == true){
 80004a2:	78eb      	ldrb	r3, [r5, #3]
 80004a4:	2b01      	cmp	r3, #1
 80004a6:	d02b      	beq.n	8000500 <disparar+0xcc>
				for(uint8_t x=0; x<NUM_ALIEN_COLUMNA; x++){
 80004a8:	3405      	adds	r4, #5
 80004aa:	4544      	cmp	r4, r8
 80004ac:	d038      	beq.n	8000520 <disparar+0xec>
					if( (getDisparo()->posicion_x + 1 >= getAlien(y,x)->posicion_X) &  (getDisparo()->posicion_x + 1 <= (getAlien(y,x)->posicion_X + tamano_alien)) & ((getDisparo()->posicion_y) >= getAlien(y,x)->posicion_Y) & (getDisparo()->posicion_y <= getAlien(y,x)->posicion_Y + tamano_alien)){
 80004ae:	7832      	ldrb	r2, [r6, #0]
 80004b0:	4625      	mov	r5, r4
 80004b2:	7820      	ldrb	r0, [r4, #0]
 80004b4:	f996 c001 	ldrsb.w	ip, [r6, #1]
 80004b8:	7861      	ldrb	r1, [r4, #1]
 80004ba:	1c53      	adds	r3, r2, #1
 80004bc:	4283      	cmp	r3, r0
 80004be:	bfa8      	it	ge
 80004c0:	458c      	cmpge	ip, r1
 80004c2:	bfac      	ite	ge
 80004c4:	2301      	movge	r3, #1
 80004c6:	2300      	movlt	r3, #0
 80004c8:	eb00 0e07 	add.w	lr, r0, r7
 80004cc:	4572      	cmp	r2, lr
 80004ce:	bfac      	ite	ge
 80004d0:	2300      	movge	r3, #0
 80004d2:	f003 0301 	andlt.w	r3, r3, #1
 80004d6:	2b00      	cmp	r3, #0
 80004d8:	d0e3      	beq.n	80004a2 <disparar+0x6e>
 80004da:	187b      	adds	r3, r7, r1
 80004dc:	459c      	cmp	ip, r3
 80004de:	dce0      	bgt.n	80004a2 <disparar+0x6e>
								if(getAlien(y,x)->vivo == true){
 80004e0:	78a3      	ldrb	r3, [r4, #2]
 80004e2:	2b01      	cmp	r3, #1
 80004e4:	d1dd      	bne.n	80004a2 <disparar+0x6e>
									getAlien(y,x)->vivo = false;
 80004e6:	2300      	movs	r3, #0
 80004e8:	70a3      	strb	r3, [r4, #2]
									getAlien(y,x)->explosion = true;
 80004ea:	f884 a003 	strb.w	sl, [r4, #3]
									getDisparo()->disparo = false;
 80004ee:	70b3      	strb	r3, [r6, #2]
									getDisparo()->posicion_y = POSICION_INICIAL_DISPARO;
 80004f0:	2232      	movs	r2, #50	; 0x32
 80004f2:	7072      	strb	r2, [r6, #1]
									getDisparo()->numero_disparos = 0;
 80004f4:	70f3      	strb	r3, [r6, #3]
									getDisparoAliens()->numero_disparos = getDisparoAliens()->numero_disparos - 1;
 80004f6:	f89b 3003 	ldrb.w	r3, [fp, #3]
 80004fa:	3b01      	subs	r3, #1
 80004fc:	f88b 3003 	strb.w	r3, [fp, #3]
						SSD1306_DrawBitmap(getAlien(y,x)->posicion_X, getAlien(y,x)->posicion_Y,explosion,16,8,1);
 8000500:	f8cd a004 	str.w	sl, [sp, #4]
 8000504:	2308      	movs	r3, #8
 8000506:	9300      	str	r3, [sp, #0]
 8000508:	2310      	movs	r3, #16
 800050a:	4a15      	ldr	r2, [pc, #84]	; (8000560 <disparar+0x12c>)
 800050c:	f001 fa32 	bl	8001974 <SSD1306_DrawBitmap>
						getAlien(y,x)->conteo_explosion = getAlien(y,x)->conteo_explosion - 1;
 8000510:	792b      	ldrb	r3, [r5, #4]
 8000512:	3b01      	subs	r3, #1
 8000514:	b2db      	uxtb	r3, r3
 8000516:	712b      	strb	r3, [r5, #4]

						if(getAlien(y,x)->conteo_explosion == 0){
 8000518:	2b00      	cmp	r3, #0
 800051a:	d1c5      	bne.n	80004a8 <disparar+0x74>
							getAlien(y,x)->explosion = false;
 800051c:	70eb      	strb	r3, [r5, #3]
 800051e:	e7c3      	b.n	80004a8 <disparar+0x74>
			for(uint8_t y=0; y<NUM_ALIEN_FILA ;y++){
 8000520:	f109 0901 	add.w	r9, r9, #1
 8000524:	fa5f f989 	uxtb.w	r9, r9
 8000528:	f1b9 0f03 	cmp.w	r9, #3
 800052c:	d00c      	beq.n	8000548 <disparar+0x114>
				switch(y){
 800052e:	f1b9 0f01 	cmp.w	r9, #1
 8000532:	d0b4      	beq.n	800049e <disparar+0x6a>
					tamano_alien = TAMANO_ALIEN_BOTTOM;
 8000534:	f1b9 0f02 	cmp.w	r9, #2
 8000538:	bf14      	ite	ne
 800053a:	2708      	movne	r7, #8
 800053c:	270c      	moveq	r7, #12
 800053e:	f108 0823 	add.w	r8, r8, #35	; 0x23
				for(uint8_t x=0; x<NUM_ALIEN_COLUMNA; x++){
 8000542:	f1a8 0423 	sub.w	r4, r8, #35	; 0x23
 8000546:	e7b2      	b.n	80004ae <disparar+0x7a>
						}
					}
				}
			}
}
 8000548:	b003      	add	sp, #12
 800054a:	e8bd 8ff0 	ldmia.w	sp!, {r4, r5, r6, r7, r8, r9, sl, fp, pc}
 800054e:	bf00      	nop
 8000550:	2000071c 	.word	0x2000071c
 8000554:	200006d3 	.word	0x200006d3
 8000558:	20000720 	.word	0x20000720
 800055c:	20000724 	.word	0x20000724
 8000560:	08009298 	.word	0x08009298

08000564 <disparoAliens>:


void disparoAliens(){


	if(getDisparoAliens()->numero_disparos != 0){	//Si no hay aliens vivos.
 8000564:	4b35      	ldr	r3, [pc, #212]	; (800063c <disparoAliens+0xd8>)
 8000566:	78db      	ldrb	r3, [r3, #3]
 8000568:	2b00      	cmp	r3, #0
 800056a:	d066      	beq.n	800063a <disparoAliens+0xd6>
void disparoAliens(){
 800056c:	b5f0      	push	{r4, r5, r6, r7, lr}
 800056e:	b083      	sub	sp, #12

				if(getDisparoAliens()->disparo == true){
 8000570:	4b32      	ldr	r3, [pc, #200]	; (800063c <disparoAliens+0xd8>)
 8000572:	789b      	ldrb	r3, [r3, #2]
 8000574:	2b01      	cmp	r3, #1
 8000576:	d044      	beq.n	8000602 <disparoAliens+0x9e>
					uint8_t flag = false;

					while(flag != true){


						uint8_t fila = rand() % NUM_ALIEN_FILA;
 8000578:	4f31      	ldr	r7, [pc, #196]	; (8000640 <disparoAliens+0xdc>)
						uint8_t columna = rand() % NUM_ALIEN_COLUMNA;
 800057a:	4e32      	ldr	r6, [pc, #200]	; (8000644 <disparoAliens+0xe0>)

						if(getAlien(fila, columna)->vivo == true){
 800057c:	4d32      	ldr	r5, [pc, #200]	; (8000648 <disparoAliens+0xe4>)
						uint8_t fila = rand() % NUM_ALIEN_FILA;
 800057e:	f007 fa59 	bl	8007a34 <rand>
 8000582:	4604      	mov	r4, r0
						uint8_t columna = rand() % NUM_ALIEN_COLUMNA;
 8000584:	f007 fa56 	bl	8007a34 <rand>
						uint8_t fila = rand() % NUM_ALIEN_FILA;
 8000588:	fb87 1204 	smull	r1, r2, r7, r4
 800058c:	eba2 72e4 	sub.w	r2, r2, r4, asr #31
 8000590:	eb02 0242 	add.w	r2, r2, r2, lsl #1
 8000594:	1aa4      	subs	r4, r4, r2
 8000596:	b2e4      	uxtb	r4, r4
						uint8_t columna = rand() % NUM_ALIEN_COLUMNA;
 8000598:	fb86 2100 	smull	r2, r1, r6, r0
 800059c:	4401      	add	r1, r0
 800059e:	17c2      	asrs	r2, r0, #31
 80005a0:	ebc2 02a1 	rsb	r2, r2, r1, asr #2
 80005a4:	ebc2 02c2 	rsb	r2, r2, r2, lsl #3
 80005a8:	1a83      	subs	r3, r0, r2
 80005aa:	b2db      	uxtb	r3, r3
						if(getAlien(fila, columna)->vivo == true){
 80005ac:	eb03 0283 	add.w	r2, r3, r3, lsl #2
 80005b0:	eb04 0184 	add.w	r1, r4, r4, lsl #2
 80005b4:	ebc1 01c1 	rsb	r1, r1, r1, lsl #3
 80005b8:	440a      	add	r2, r1
 80005ba:	442a      	add	r2, r5
 80005bc:	7892      	ldrb	r2, [r2, #2]
 80005be:	2a01      	cmp	r2, #1
 80005c0:	d1dd      	bne.n	800057e <disparoAliens+0x1a>
							flag = true;
							getDisparoAliens()->disparo = true;
 80005c2:	4a1e      	ldr	r2, [pc, #120]	; (800063c <disparoAliens+0xd8>)
 80005c4:	2101      	movs	r1, #1
 80005c6:	7091      	strb	r1, [r2, #2]

							getDisparoAliens()->posicion_x = getAlien(fila, columna)->posicion_X + (TAMANO_ALIEN/2);
 80005c8:	491f      	ldr	r1, [pc, #124]	; (8000648 <disparoAliens+0xe4>)
 80005ca:	eb03 0383 	add.w	r3, r3, r3, lsl #2
 80005ce:	eb04 0484 	add.w	r4, r4, r4, lsl #2
 80005d2:	ebc4 04c4 	rsb	r4, r4, r4, lsl #3
 80005d6:	4423      	add	r3, r4
 80005d8:	18c8      	adds	r0, r1, r3
 80005da:	5ccb      	ldrb	r3, [r1, r3]
 80005dc:	3304      	adds	r3, #4
 80005de:	7013      	strb	r3, [r2, #0]
							getDisparoAliens()->posicion_y = getAlien(fila, columna)->posicion_Y + (TAMANO_ALIEN/2);
 80005e0:	7843      	ldrb	r3, [r0, #1]
 80005e2:	3304      	adds	r3, #4
 80005e4:	7053      	strb	r3, [r2, #1]
						}

					}
				}

				SSD1306_DrawBitmap(getDisparoAliens()->posicion_x, getDisparoAliens()->posicion_y, AlienBombGfx, 2, 4, 1);
 80005e6:	4815      	ldr	r0, [pc, #84]	; (800063c <disparoAliens+0xd8>)
 80005e8:	2301      	movs	r3, #1
 80005ea:	9301      	str	r3, [sp, #4]
 80005ec:	2304      	movs	r3, #4
 80005ee:	9300      	str	r3, [sp, #0]
 80005f0:	2302      	movs	r3, #2
 80005f2:	4a16      	ldr	r2, [pc, #88]	; (800064c <disparoAliens+0xe8>)
 80005f4:	f990 1001 	ldrsb.w	r1, [r0, #1]
 80005f8:	7800      	ldrb	r0, [r0, #0]
 80005fa:	f001 f9bb 	bl	8001974 <SSD1306_DrawBitmap>

	}

}
 80005fe:	b003      	add	sp, #12
 8000600:	bdf0      	pop	{r4, r5, r6, r7, pc}
					getDisparoAliens()->posicion_y = getDisparoAliens()->posicion_y + dificultad.velocidad_disparo_aliens;
 8000602:	4a0e      	ldr	r2, [pc, #56]	; (800063c <disparoAliens+0xd8>)
 8000604:	7853      	ldrb	r3, [r2, #1]
 8000606:	4912      	ldr	r1, [pc, #72]	; (8000650 <disparoAliens+0xec>)
 8000608:	7889      	ldrb	r1, [r1, #2]
 800060a:	440b      	add	r3, r1
 800060c:	b25b      	sxtb	r3, r3
 800060e:	7053      	strb	r3, [r2, #1]
					if( (getDisparoAliens()->posicion_x + 1 >= getPlayer()->posicion_X) &  (getDisparoAliens()->posicion_x + 1 <= getPlayer()->posicion_X + 6) ){
 8000610:	7811      	ldrb	r1, [r2, #0]
 8000612:	4a10      	ldr	r2, [pc, #64]	; (8000654 <disparoAliens+0xf0>)
 8000614:	7852      	ldrb	r2, [r2, #1]
 8000616:	1c48      	adds	r0, r1, #1
 8000618:	4290      	cmp	r0, r2
 800061a:	db08      	blt.n	800062e <disparoAliens+0xca>
 800061c:	3205      	adds	r2, #5
 800061e:	4291      	cmp	r1, r2
 8000620:	dc05      	bgt.n	800062e <disparoAliens+0xca>
						getDisparoAliens()->disparo = false;
 8000622:	2300      	movs	r3, #0
 8000624:	4a05      	ldr	r2, [pc, #20]	; (800063c <disparoAliens+0xd8>)
 8000626:	7093      	strb	r3, [r2, #2]
						getPlayer()->vivo = false;
 8000628:	4a0a      	ldr	r2, [pc, #40]	; (8000654 <disparoAliens+0xf0>)
 800062a:	7093      	strb	r3, [r2, #2]
 800062c:	e7db      	b.n	80005e6 <disparoAliens+0x82>
					else if(getDisparoAliens()->posicion_y >= 60){
 800062e:	2b3b      	cmp	r3, #59	; 0x3b
 8000630:	ddd9      	ble.n	80005e6 <disparoAliens+0x82>
						getDisparoAliens()->disparo = false;
 8000632:	4b02      	ldr	r3, [pc, #8]	; (800063c <disparoAliens+0xd8>)
 8000634:	2200      	movs	r2, #0
 8000636:	709a      	strb	r2, [r3, #2]
 8000638:	e7d5      	b.n	80005e6 <disparoAliens+0x82>
 800063a:	4770      	bx	lr
 800063c:	20000720 	.word	0x20000720
 8000640:	55555556 	.word	0x55555556
 8000644:	92492493 	.word	0x92492493
 8000648:	200006b0 	.word	0x200006b0
 800064c:	08009244 	.word	0x08009244
 8000650:	2000072c 	.word	0x2000072c
 8000654:	20000724 	.word	0x20000724

08000658 <entryJoystick>:
  * @param  argument: Not used
  * @retval None
  */
/* USER CODE END Header_entryJoystick */
void entryJoystick(void *argument)
{
 8000658:	e92d 43f0 	stmdb	sp!, {r4, r5, r6, r7, r8, r9, lr}
 800065c:	b083      	sub	sp, #12

	botones_t joystick;
	uint16_t val_x, val_y;

	TickType_t xLastWakeTime;
	xLastWakeTime = xTaskGetTickCount();
 800065e:	f006 f937 	bl	80068d0 <xTaskGetTickCount>
 8000662:	9000      	str	r0, [sp, #0]

  for(;;)
  {

	  //Joystick eje X: derecha o izquierda.
	  HAL_ADC_Start(&hadc1);
 8000664:	4d2c      	ldr	r5, [pc, #176]	; (8000718 <entryJoystick+0xc0>)
		  joystick.y_value = nulo;
	  }

	  //Boton del Joystick.

	  if(HAL_GPIO_ReadPin(GPIOA, GPIO_PIN_2) == GPIO_PIN_RESET){
 8000666:	4e2d      	ldr	r6, [pc, #180]	; (800071c <entryJoystick+0xc4>)
		  joystick.boton = false;
	  }


	osStatus_t res = osMessageQueuePut(queueJoystPantHandle, &joystick, 0, 0);
	if(res != osOK) HAL_GPIO_WritePin(GPIOC, GPIO_PIN_13, GPIO_PIN_RESET);
 8000668:	4f2d      	ldr	r7, [pc, #180]	; (8000720 <entryJoystick+0xc8>)
 800066a:	e01f      	b.n	80006ac <entryJoystick+0x54>
 800066c:	2302      	movs	r3, #2
 800066e:	e045      	b.n	80006fc <entryJoystick+0xa4>
 8000670:	2401      	movs	r4, #1
		  joystick.y_value = abajo;
 8000672:	f88d 4005 	strb.w	r4, [sp, #5]
	  if(HAL_GPIO_ReadPin(GPIOA, GPIO_PIN_2) == GPIO_PIN_RESET){
 8000676:	2104      	movs	r1, #4
 8000678:	4630      	mov	r0, r6
 800067a:	f002 fc33 	bl	8002ee4 <HAL_GPIO_ReadPin>
 800067e:	fab0 f080 	clz	r0, r0
 8000682:	0940      	lsrs	r0, r0, #5
 8000684:	f88d 0006 	strb.w	r0, [sp, #6]
	osStatus_t res = osMessageQueuePut(queueJoystPantHandle, &joystick, 0, 0);
 8000688:	2300      	movs	r3, #0
 800068a:	461a      	mov	r2, r3
 800068c:	a901      	add	r1, sp, #4
 800068e:	4825      	ldr	r0, [pc, #148]	; (8000724 <entryJoystick+0xcc>)
 8000690:	6800      	ldr	r0, [r0, #0]
 8000692:	f004 ff79 	bl	8005588 <osMessageQueuePut>
	if(res != osOK) HAL_GPIO_WritePin(GPIOC, GPIO_PIN_13, GPIO_PIN_RESET);
 8000696:	b128      	cbz	r0, 80006a4 <entryJoystick+0x4c>
 8000698:	2200      	movs	r2, #0
 800069a:	f44f 5100 	mov.w	r1, #8192	; 0x2000
 800069e:	4638      	mov	r0, r7
 80006a0:	f002 fc26 	bl	8002ef0 <HAL_GPIO_WritePin>

	vTaskDelayUntil(&xLastWakeTime, pdMS_TO_TICKS(50));
 80006a4:	2132      	movs	r1, #50	; 0x32
 80006a6:	4668      	mov	r0, sp
 80006a8:	f006 fa34 	bl	8006b14 <vTaskDelayUntil>
	  HAL_ADC_Start(&hadc1);
 80006ac:	4628      	mov	r0, r5
 80006ae:	f002 f947 	bl	8002940 <HAL_ADC_Start>
	  HAL_ADC_PollForConversion(&hadc1, 10);
 80006b2:	210a      	movs	r1, #10
 80006b4:	4628      	mov	r0, r5
 80006b6:	f001 ff8d 	bl	80025d4 <HAL_ADC_PollForConversion>
	  val_x = HAL_ADC_GetValue(&hadc1);
 80006ba:	4628      	mov	r0, r5
 80006bc:	f002 f84c 	bl	8002758 <HAL_ADC_GetValue>
 80006c0:	fa1f f980 	uxth.w	r9, r0
	  HAL_ADC_Stop(&hadc1);
 80006c4:	4628      	mov	r0, r5
 80006c6:	f002 fa63 	bl	8002b90 <HAL_ADC_Stop>
	  HAL_ADC_Start(&hadc2);
 80006ca:	f8df 805c 	ldr.w	r8, [pc, #92]	; 8000728 <entryJoystick+0xd0>
 80006ce:	4640      	mov	r0, r8
 80006d0:	f002 f936 	bl	8002940 <HAL_ADC_Start>
	  HAL_ADC_PollForConversion(&hadc2, 10);
 80006d4:	210a      	movs	r1, #10
 80006d6:	4640      	mov	r0, r8
 80006d8:	f001 ff7c 	bl	80025d4 <HAL_ADC_PollForConversion>
	  val_y = HAL_ADC_GetValue(&hadc2);
 80006dc:	4640      	mov	r0, r8
 80006de:	f002 f83b 	bl	8002758 <HAL_ADC_GetValue>
 80006e2:	b284      	uxth	r4, r0
	  HAL_ADC_Stop(&hadc2);
 80006e4:	4640      	mov	r0, r8
 80006e6:	f002 fa53 	bl	8002b90 <HAL_ADC_Stop>
	  if(val_x > 2200){
 80006ea:	f640 0398 	movw	r3, #2200	; 0x898
 80006ee:	4599      	cmp	r9, r3
 80006f0:	d8bc      	bhi.n	800066c <entryJoystick+0x14>
	  else if(val_x < 1600){
 80006f2:	f5b9 6fc8 	cmp.w	r9, #1600	; 0x640
 80006f6:	bf2c      	ite	cs
 80006f8:	2304      	movcs	r3, #4
 80006fa:	2303      	movcc	r3, #3
		  joystick.x_value = derecha;
 80006fc:	f88d 3004 	strb.w	r3, [sp, #4]
	  if(val_y > 2200){
 8000700:	f640 0398 	movw	r3, #2200	; 0x898
 8000704:	429c      	cmp	r4, r3
 8000706:	d8b3      	bhi.n	8000670 <entryJoystick+0x18>
	  else if(val_y < 1600){
 8000708:	f5b4 6fc8 	cmp.w	r4, #1600	; 0x640
 800070c:	bf34      	ite	cc
 800070e:	2400      	movcc	r4, #0
 8000710:	2401      	movcs	r4, #1
 8000712:	00a4      	lsls	r4, r4, #2
 8000714:	e7ad      	b.n	8000672 <entryJoystick+0x1a>
 8000716:	bf00      	nop
 8000718:	20000748 	.word	0x20000748
 800071c:	40010800 	.word	0x40010800
 8000720:	40011000 	.word	0x40011000
 8000724:	200008fc 	.word	0x200008fc
 8000728:	20000778 	.word	0x20000778

0800072c <entryPantalla>:
* @param argument: Not used
* @retval None
*/
/* USER CODE END Header_entryPantalla */
void entryPantalla(void *argument)
{
 800072c:	b530      	push	{r4, r5, lr}
 800072e:	b083      	sub	sp, #12

	//vTaskSetApplicationTaskTag( NULL, ( void * ) 1 );

	//Se inicializan los botones (eje y, eje x del joystick y boton)
	botones_t joystick;
	menuInit();
 8000730:	f000 fd2e 	bl	8001190 <menuInit>


  for(;;)
  {
	osStatus_t res = osMessageQueueGet(queueJoystPantHandle, &joystick, 0 , osWaitForever);	//Se espera a recibir los valores de los botones del joystick
 8000734:	4d11      	ldr	r5, [pc, #68]	; (800077c <entryPantalla+0x50>)

	if(res != osOK) HAL_GPIO_WritePin(GPIOC, GPIO_PIN_13, GPIO_PIN_RESET);	//Si no se recibio correctamente, prender led.

	else{
		HAL_GPIO_WritePin(GPIOC, GPIO_PIN_13, GPIO_PIN_SET);	//Si se recibio correctamente de la cola.
 8000736:	4c12      	ldr	r4, [pc, #72]	; (8000780 <entryPantalla+0x54>)
 8000738:	e005      	b.n	8000746 <entryPantalla+0x1a>
	if(res != osOK) HAL_GPIO_WritePin(GPIOC, GPIO_PIN_13, GPIO_PIN_RESET);	//Si no se recibio correctamente, prender led.
 800073a:	2200      	movs	r2, #0
 800073c:	f44f 5100 	mov.w	r1, #8192	; 0x2000
 8000740:	4620      	mov	r0, r4
 8000742:	f002 fbd5 	bl	8002ef0 <HAL_GPIO_WritePin>
	osStatus_t res = osMessageQueueGet(queueJoystPantHandle, &joystick, 0 , osWaitForever);	//Se espera a recibir los valores de los botones del joystick
 8000746:	f04f 33ff 	mov.w	r3, #4294967295
 800074a:	2200      	movs	r2, #0
 800074c:	a901      	add	r1, sp, #4
 800074e:	6828      	ldr	r0, [r5, #0]
 8000750:	f004 ff6a 	bl	8005628 <osMessageQueueGet>
	if(res != osOK) HAL_GPIO_WritePin(GPIOC, GPIO_PIN_13, GPIO_PIN_RESET);	//Si no se recibio correctamente, prender led.
 8000754:	2800      	cmp	r0, #0
 8000756:	d1f0      	bne.n	800073a <entryPantalla+0xe>
		HAL_GPIO_WritePin(GPIOC, GPIO_PIN_13, GPIO_PIN_SET);	//Si se recibio correctamente de la cola.
 8000758:	2201      	movs	r2, #1
 800075a:	f44f 5100 	mov.w	r1, #8192	; 0x2000
 800075e:	4620      	mov	r0, r4
 8000760:	f002 fbc6 	bl	8002ef0 <HAL_GPIO_WritePin>


		menuActualizar(joystick.x_value, joystick.y_value, joystick.boton);
 8000764:	f89d 2006 	ldrb.w	r2, [sp, #6]
 8000768:	f89d 1005 	ldrb.w	r1, [sp, #5]
 800076c:	f89d 0004 	ldrb.w	r0, [sp, #4]
 8000770:	f000 fd64 	bl	800123c <menuActualizar>
		actualizarPantalla();
 8000774:	f7ff fcfc 	bl	8000170 <actualizarPantalla>
 8000778:	e7e5      	b.n	8000746 <entryPantalla+0x1a>
 800077a:	bf00      	nop
 800077c:	200008fc 	.word	0x200008fc
 8000780:	40011000 	.word	0x40011000

08000784 <entryMemoria>:
* @param argument: Not used
* @retval None
*/
/* USER CODE END Header_entryMemoria */
void entryMemoria(void *argument)
{
 8000784:	b5f8      	push	{r3, r4, r5, r6, r7, lr}
  /* USER CODE BEGIN entryMemoria */

	//vTaskSetApplicationTaskTag( NULL, ( void * ) 2 );

	osMutexAcquire(mutexPuntajesHandle, osWaitForever);
 8000786:	4c13      	ldr	r4, [pc, #76]	; (80007d4 <entryMemoria+0x50>)
 8000788:	f04f 31ff 	mov.w	r1, #4294967295
 800078c:	6820      	ldr	r0, [r4, #0]
 800078e:	f004 fdb1 	bl	80052f4 <osMutexAcquire>
	Write_Memoria(address, puntaje>>8);
	HAL_Delay(10);
	address++;
	Write_Memoria(address, puntaje);*/

	memoriaInit();
 8000792:	f000 fbcb 	bl	8000f2c <memoriaInit>
	Ordenamiento_Puntajes();
 8000796:	f000 fc97 	bl	80010c8 <Ordenamiento_Puntajes>

	osMutexRelease(mutexPuntajesHandle);
 800079a:	6820      	ldr	r0, [r4, #0]
 800079c:	f004 fdec 	bl	8005378 <osMutexRelease>
  /* Infinite loop */
  for(;;)
  {

	  //Espero la notificacion 1 desde la tarea Pantalla/Menu (desde el menu de guardado de nombre) para sincronizar el ordenamiento y guardado del nuevo puntaje.
	  uint32_t flags = osEventFlagsWait(notificationFlag, NOTIFICATION_VALUE, osFlagsWaitAny, osWaitForever);
 80007a0:	4e0d      	ldr	r6, [pc, #52]	; (80007d8 <entryMemoria+0x54>)
 80007a2:	f04f 34ff 	mov.w	r4, #4294967295

	      // Realiza acciones basadas en la notificación recibida
	      if (flags == NOTIFICATION_VALUE)
	      {
	    	  //Acceso al mutex, ya que se comparte el periférico SPI con la tarea SonidoTask.
	    	  osMutexAcquire(mutexPuntajesHandle, osWaitForever);
 80007a6:	4f0b      	ldr	r7, [pc, #44]	; (80007d4 <entryMemoria+0x50>)
	  uint32_t flags = osEventFlagsWait(notificationFlag, NOTIFICATION_VALUE, osFlagsWaitAny, osWaitForever);
 80007a8:	2500      	movs	r5, #0
 80007aa:	4623      	mov	r3, r4
 80007ac:	462a      	mov	r2, r5
 80007ae:	2101      	movs	r1, #1
 80007b0:	6830      	ldr	r0, [r6, #0]
 80007b2:	f004 fd01 	bl	80051b8 <osEventFlagsWait>
	      if (flags == NOTIFICATION_VALUE)
 80007b6:	2801      	cmp	r0, #1
 80007b8:	d1f7      	bne.n	80007aa <entryMemoria+0x26>
	    	  osMutexAcquire(mutexPuntajesHandle, osWaitForever);
 80007ba:	4621      	mov	r1, r4
 80007bc:	6838      	ldr	r0, [r7, #0]
 80007be:	f004 fd99 	bl	80052f4 <osMutexAcquire>

	    	  //Ordenamiento_Puntajes();
	    	  //writeNuevosPuntajes(1);

	    	  osMutexRelease(mutexPuntajesHandle);
 80007c2:	6838      	ldr	r0, [r7, #0]
 80007c4:	f004 fdd8 	bl	8005378 <osMutexRelease>


	    	  //Envio la notificacion 2 para que la tarea PantallaTask pueda pasar del menu guardado_nombre al menu de puntajes una vez que los puntajes ya se encuentran ordenadas y guardadas, ya que sin esta segunda sincronizacion, puede pasarse al menu puntajes sin que estos se encuentren ordenados. El ordenado se realiza en esta tarea MemoriaTask ya que las escrituras de puntajes se realizan solo en esta tarea.
	    	  osEventFlagsSet(notificationFlag2, NOTIFICATION_VALUE2);
 80007c8:	2102      	movs	r1, #2
 80007ca:	4b04      	ldr	r3, [pc, #16]	; (80007dc <entryMemoria+0x58>)
 80007cc:	6818      	ldr	r0, [r3, #0]
 80007ce:	f004 fcb5 	bl	800513c <osEventFlagsSet>
 80007d2:	e7e9      	b.n	80007a8 <entryMemoria+0x24>
 80007d4:	200008e8 	.word	0x200008e8
 80007d8:	200008f0 	.word	0x200008f0
 80007dc:	200008f4 	.word	0x200008f4

080007e0 <entrySonido>:
* @param argument: Not used
* @retval None
*/
/* USER CODE END Header_entrySonido */
void entrySonido(void *argument)
{
 80007e0:	b570      	push	{r4, r5, r6, lr}
  /* USER CODE BEGIN entrySonido */

  /* Infinite loop */
  for(;;)
  {
	  osStatus_t res = osMessageQueueGet(queueSonidoMenuHandle, &musica, 0, osWaitForever);	//Se espera a recibir los valores de los botones del joystick
 80007e2:	4c1c      	ldr	r4, [pc, #112]	; (8000854 <entrySonido+0x74>)
 80007e4:	4e1c      	ldr	r6, [pc, #112]	; (8000858 <entrySonido+0x78>)

	  if(res != osOK) HAL_GPIO_WritePin(GPIOC, GPIO_PIN_13, GPIO_PIN_RESET);	//Si no se recibio correctamente, prender led.

	  else{
		  HAL_GPIO_WritePin(GPIOC, GPIO_PIN_13, GPIO_PIN_SET);
 80007e6:	4d1d      	ldr	r5, [pc, #116]	; (800085c <entrySonido+0x7c>)
 80007e8:	e005      	b.n	80007f6 <entrySonido+0x16>
	  if(res != osOK) HAL_GPIO_WritePin(GPIOC, GPIO_PIN_13, GPIO_PIN_RESET);	//Si no se recibio correctamente, prender led.
 80007ea:	2200      	movs	r2, #0
 80007ec:	f44f 5100 	mov.w	r1, #8192	; 0x2000
 80007f0:	4628      	mov	r0, r5
 80007f2:	f002 fb7d 	bl	8002ef0 <HAL_GPIO_WritePin>
	  osStatus_t res = osMessageQueueGet(queueSonidoMenuHandle, &musica, 0, osWaitForever);	//Se espera a recibir los valores de los botones del joystick
 80007f6:	f04f 33ff 	mov.w	r3, #4294967295
 80007fa:	2200      	movs	r2, #0
 80007fc:	4621      	mov	r1, r4
 80007fe:	6830      	ldr	r0, [r6, #0]
 8000800:	f004 ff12 	bl	8005628 <osMessageQueueGet>
	  if(res != osOK) HAL_GPIO_WritePin(GPIOC, GPIO_PIN_13, GPIO_PIN_RESET);	//Si no se recibio correctamente, prender led.
 8000804:	2800      	cmp	r0, #0
 8000806:	d1f0      	bne.n	80007ea <entrySonido+0xa>
		  HAL_GPIO_WritePin(GPIOC, GPIO_PIN_13, GPIO_PIN_SET);
 8000808:	2201      	movs	r2, #1
 800080a:	f44f 5100 	mov.w	r1, #8192	; 0x2000
 800080e:	4628      	mov	r0, r5
 8000810:	f002 fb6e 	bl	8002ef0 <HAL_GPIO_WritePin>

			HAL_TIM_PWM_Stop(&htim2, TIM_CHANNEL_1);
 8000814:	2100      	movs	r1, #0
 8000816:	4812      	ldr	r0, [pc, #72]	; (8000860 <entrySonido+0x80>)
 8000818:	f004 fb3e 	bl	8004e98 <HAL_TIM_PWM_Stop>
			HAL_TIM_Base_Stop_IT(&htim3);
 800081c:	4811      	ldr	r0, [pc, #68]	; (8000864 <entrySonido+0x84>)
 800081e:	f003 ffe9 	bl	80047f4 <HAL_TIM_Base_Stop_IT>

			//musica = musica_;

		  switch(musica){
 8000822:	7823      	ldrb	r3, [r4, #0]
 8000824:	b193      	cbz	r3, 800084c <entrySonido+0x6c>
 8000826:	2b02      	cmp	r3, #2
 8000828:	d108      	bne.n	800083c <entrySonido+0x5c>
		  case gameover_:

				tonos = f622;
 800082a:	4b0f      	ldr	r3, [pc, #60]	; (8000868 <entrySonido+0x88>)
 800082c:	2200      	movs	r2, #0
 800082e:	701a      	strb	r2, [r3, #0]
				conteo_musica = VECES_622HZ;
 8000830:	4b0e      	ldr	r3, [pc, #56]	; (800086c <entrySonido+0x8c>)
 8000832:	22aa      	movs	r2, #170	; 0xaa
 8000834:	701a      	strb	r2, [r3, #0]
				puntero_musica = tono_622hz;
 8000836:	4b0e      	ldr	r3, [pc, #56]	; (8000870 <entrySonido+0x90>)
 8000838:	4a0e      	ldr	r2, [pc, #56]	; (8000874 <entrySonido+0x94>)
 800083a:	601a      	str	r2, [r3, #0]
		  default:
			  break;

		  }

		  HAL_TIM_PWM_Start(&htim2, TIM_CHANNEL_1);
 800083c:	2100      	movs	r1, #0
 800083e:	4808      	ldr	r0, [pc, #32]	; (8000860 <entrySonido+0x80>)
 8000840:	f004 fac6 	bl	8004dd0 <HAL_TIM_PWM_Start>
		  HAL_TIM_Base_Start_IT(&htim3);
 8000844:	4807      	ldr	r0, [pc, #28]	; (8000864 <entrySonido+0x84>)
 8000846:	f003 ffa1 	bl	800478c <HAL_TIM_Base_Start_IT>
 800084a:	e7d4      	b.n	80007f6 <entrySonido+0x16>
			  puntero_musica = audio_disparo;
 800084c:	4b08      	ldr	r3, [pc, #32]	; (8000870 <entrySonido+0x90>)
 800084e:	4a0a      	ldr	r2, [pc, #40]	; (8000878 <entrySonido+0x98>)
 8000850:	601a      	str	r2, [r3, #0]
			  break;
 8000852:	e7f3      	b.n	800083c <entrySonido+0x5c>
 8000854:	200008e4 	.word	0x200008e4
 8000858:	20000900 	.word	0x20000900
 800085c:	40011000 	.word	0x40011000
 8000860:	20000854 	.word	0x20000854
 8000864:	2000089c 	.word	0x2000089c
 8000868:	20000904 	.word	0x20000904
 800086c:	20000744 	.word	0x20000744
 8000870:	200008f8 	.word	0x200008f8
 8000874:	200002b8 	.word	0x200002b8
 8000878:	20000008 	.word	0x20000008

0800087c <SystemClock_Config>:
{
 800087c:	b500      	push	{lr}
 800087e:	b095      	sub	sp, #84	; 0x54
  RCC_OscInitTypeDef RCC_OscInitStruct = {0};
 8000880:	2300      	movs	r3, #0
 8000882:	930c      	str	r3, [sp, #48]	; 0x30
 8000884:	930d      	str	r3, [sp, #52]	; 0x34
 8000886:	930f      	str	r3, [sp, #60]	; 0x3c
 8000888:	9310      	str	r3, [sp, #64]	; 0x40
  RCC_ClkInitTypeDef RCC_ClkInitStruct = {0};
 800088a:	9305      	str	r3, [sp, #20]
 800088c:	9306      	str	r3, [sp, #24]
 800088e:	9307      	str	r3, [sp, #28]
 8000890:	9308      	str	r3, [sp, #32]
 8000892:	9309      	str	r3, [sp, #36]	; 0x24
  RCC_PeriphCLKInitTypeDef PeriphClkInit = {0};
 8000894:	9301      	str	r3, [sp, #4]
 8000896:	9302      	str	r3, [sp, #8]
 8000898:	9303      	str	r3, [sp, #12]
 800089a:	9304      	str	r3, [sp, #16]
  RCC_OscInitStruct.OscillatorType = RCC_OSCILLATORTYPE_HSE;
 800089c:	2201      	movs	r2, #1
 800089e:	920a      	str	r2, [sp, #40]	; 0x28
  RCC_OscInitStruct.HSEState = RCC_HSE_ON;
 80008a0:	f44f 3380 	mov.w	r3, #65536	; 0x10000
 80008a4:	930b      	str	r3, [sp, #44]	; 0x2c
  RCC_OscInitStruct.HSIState = RCC_HSI_ON;
 80008a6:	920e      	str	r2, [sp, #56]	; 0x38
  RCC_OscInitStruct.PLL.PLLState = RCC_PLL_ON;
 80008a8:	2202      	movs	r2, #2
 80008aa:	9211      	str	r2, [sp, #68]	; 0x44
  RCC_OscInitStruct.PLL.PLLSource = RCC_PLLSOURCE_HSE;
 80008ac:	9312      	str	r3, [sp, #72]	; 0x48
  RCC_OscInitStruct.PLL.PLLMUL = RCC_PLL_MUL9;
 80008ae:	f44f 13e0 	mov.w	r3, #1835008	; 0x1c0000
 80008b2:	9313      	str	r3, [sp, #76]	; 0x4c
  if (HAL_RCC_OscConfig(&RCC_OscInitStruct) != HAL_OK)
 80008b4:	a80a      	add	r0, sp, #40	; 0x28
 80008b6:	f002 fedd 	bl	8003674 <HAL_RCC_OscConfig>
 80008ba:	b9c8      	cbnz	r0, 80008f0 <SystemClock_Config+0x74>
  RCC_ClkInitStruct.ClockType = RCC_CLOCKTYPE_HCLK|RCC_CLOCKTYPE_SYSCLK
 80008bc:	230f      	movs	r3, #15
 80008be:	9305      	str	r3, [sp, #20]
  RCC_ClkInitStruct.SYSCLKSource = RCC_SYSCLKSOURCE_PLLCLK;
 80008c0:	2102      	movs	r1, #2
 80008c2:	9106      	str	r1, [sp, #24]
  RCC_ClkInitStruct.AHBCLKDivider = RCC_SYSCLK_DIV1;
 80008c4:	2300      	movs	r3, #0
 80008c6:	9307      	str	r3, [sp, #28]
  RCC_ClkInitStruct.APB1CLKDivider = RCC_HCLK_DIV2;
 80008c8:	f44f 6280 	mov.w	r2, #1024	; 0x400
 80008cc:	9208      	str	r2, [sp, #32]
  RCC_ClkInitStruct.APB2CLKDivider = RCC_HCLK_DIV1;
 80008ce:	9309      	str	r3, [sp, #36]	; 0x24
  if (HAL_RCC_ClockConfig(&RCC_ClkInitStruct, FLASH_LATENCY_2) != HAL_OK)
 80008d0:	a805      	add	r0, sp, #20
 80008d2:	f003 f90f 	bl	8003af4 <HAL_RCC_ClockConfig>
 80008d6:	b968      	cbnz	r0, 80008f4 <SystemClock_Config+0x78>
  PeriphClkInit.PeriphClockSelection = RCC_PERIPHCLK_ADC;
 80008d8:	2302      	movs	r3, #2
 80008da:	9301      	str	r3, [sp, #4]
  PeriphClkInit.AdcClockSelection = RCC_ADCPCLK2_DIV6;
 80008dc:	f44f 4300 	mov.w	r3, #32768	; 0x8000
 80008e0:	9303      	str	r3, [sp, #12]
  if (HAL_RCCEx_PeriphCLKConfig(&PeriphClkInit) != HAL_OK)
 80008e2:	a801      	add	r0, sp, #4
 80008e4:	f003 f9fc 	bl	8003ce0 <HAL_RCCEx_PeriphCLKConfig>
 80008e8:	b930      	cbnz	r0, 80008f8 <SystemClock_Config+0x7c>
}
 80008ea:	b015      	add	sp, #84	; 0x54
 80008ec:	f85d fb04 	ldr.w	pc, [sp], #4
  \details Disables IRQ interrupts by setting the I-bit in the CPSR.
           Can only be executed in Privileged modes.
 */
__STATIC_FORCEINLINE void __disable_irq(void)
{
  __ASM volatile ("cpsid i" : : : "memory");
 80008f0:	b672      	cpsid	i
void Error_Handler(void)
{
  /* USER CODE BEGIN Error_Handler_Debug */
  /* User can add his own implementation to report the HAL error return state */
  __disable_irq();
  while (1)
 80008f2:	e7fe      	b.n	80008f2 <SystemClock_Config+0x76>
 80008f4:	b672      	cpsid	i
 80008f6:	e7fe      	b.n	80008f6 <SystemClock_Config+0x7a>
 80008f8:	b672      	cpsid	i
 80008fa:	e7fe      	b.n	80008fa <SystemClock_Config+0x7e>

080008fc <main>:
{
 80008fc:	b580      	push	{r7, lr}
 80008fe:	b092      	sub	sp, #72	; 0x48
  HAL_Init();
 8000900:	f001 fe44 	bl	800258c <HAL_Init>
  SystemClock_Config();
 8000904:	f7ff ffba 	bl	800087c <SystemClock_Config>
  GPIO_InitTypeDef GPIO_InitStruct = {0};
 8000908:	2400      	movs	r4, #0
 800090a:	940b      	str	r4, [sp, #44]	; 0x2c
 800090c:	940c      	str	r4, [sp, #48]	; 0x30
 800090e:	940d      	str	r4, [sp, #52]	; 0x34
 8000910:	940e      	str	r4, [sp, #56]	; 0x38
  __HAL_RCC_GPIOC_CLK_ENABLE();
 8000912:	4ba8      	ldr	r3, [pc, #672]	; (8000bb4 <main+0x2b8>)
 8000914:	699a      	ldr	r2, [r3, #24]
 8000916:	f042 0210 	orr.w	r2, r2, #16
 800091a:	619a      	str	r2, [r3, #24]
 800091c:	699a      	ldr	r2, [r3, #24]
 800091e:	f002 0210 	and.w	r2, r2, #16
 8000922:	9201      	str	r2, [sp, #4]
 8000924:	9a01      	ldr	r2, [sp, #4]
  __HAL_RCC_GPIOD_CLK_ENABLE();
 8000926:	699a      	ldr	r2, [r3, #24]
 8000928:	f042 0220 	orr.w	r2, r2, #32
 800092c:	619a      	str	r2, [r3, #24]
 800092e:	699a      	ldr	r2, [r3, #24]
 8000930:	f002 0220 	and.w	r2, r2, #32
 8000934:	9202      	str	r2, [sp, #8]
 8000936:	9a02      	ldr	r2, [sp, #8]
  __HAL_RCC_GPIOA_CLK_ENABLE();
 8000938:	699a      	ldr	r2, [r3, #24]
 800093a:	f042 0204 	orr.w	r2, r2, #4
 800093e:	619a      	str	r2, [r3, #24]
 8000940:	699a      	ldr	r2, [r3, #24]
 8000942:	f002 0204 	and.w	r2, r2, #4
 8000946:	9203      	str	r2, [sp, #12]
 8000948:	9a03      	ldr	r2, [sp, #12]
  __HAL_RCC_GPIOB_CLK_ENABLE();
 800094a:	699a      	ldr	r2, [r3, #24]
 800094c:	f042 0208 	orr.w	r2, r2, #8
 8000950:	619a      	str	r2, [r3, #24]
 8000952:	699b      	ldr	r3, [r3, #24]
 8000954:	f003 0308 	and.w	r3, r3, #8
 8000958:	9304      	str	r3, [sp, #16]
 800095a:	9b04      	ldr	r3, [sp, #16]
  HAL_GPIO_WritePin(GPIOC, GPIO_PIN_13, GPIO_PIN_RESET);
 800095c:	f8df 9258 	ldr.w	r9, [pc, #600]	; 8000bb8 <main+0x2bc>
 8000960:	4622      	mov	r2, r4
 8000962:	f44f 5100 	mov.w	r1, #8192	; 0x2000
 8000966:	4648      	mov	r0, r9
 8000968:	f002 fac2 	bl	8002ef0 <HAL_GPIO_WritePin>
  HAL_GPIO_WritePin(GPIOB, GPIO_PIN_14|GPIO_PIN_15|GPIO_PIN_5, GPIO_PIN_RESET);
 800096c:	f8df 824c 	ldr.w	r8, [pc, #588]	; 8000bbc <main+0x2c0>
 8000970:	4622      	mov	r2, r4
 8000972:	f24c 0120 	movw	r1, #49184	; 0xc020
 8000976:	4640      	mov	r0, r8
 8000978:	f002 faba 	bl	8002ef0 <HAL_GPIO_WritePin>
  HAL_GPIO_WritePin(GPIOA, GPIO_PIN_8|GPIO_PIN_9|GPIO_PIN_10, GPIO_PIN_RESET);
 800097c:	4e90      	ldr	r6, [pc, #576]	; (8000bc0 <main+0x2c4>)
 800097e:	4622      	mov	r2, r4
 8000980:	f44f 61e0 	mov.w	r1, #1792	; 0x700
 8000984:	4630      	mov	r0, r6
 8000986:	f002 fab3 	bl	8002ef0 <HAL_GPIO_WritePin>
  GPIO_InitStruct.Pin = GPIO_PIN_13;
 800098a:	f44f 5300 	mov.w	r3, #8192	; 0x2000
 800098e:	930b      	str	r3, [sp, #44]	; 0x2c
  GPIO_InitStruct.Mode = GPIO_MODE_OUTPUT_PP;
 8000990:	2501      	movs	r5, #1
 8000992:	950c      	str	r5, [sp, #48]	; 0x30
  GPIO_InitStruct.Pull = GPIO_NOPULL;
 8000994:	940d      	str	r4, [sp, #52]	; 0x34
  GPIO_InitStruct.Speed = GPIO_SPEED_FREQ_LOW;
 8000996:	2702      	movs	r7, #2
 8000998:	970e      	str	r7, [sp, #56]	; 0x38
  HAL_GPIO_Init(GPIOC, &GPIO_InitStruct);
 800099a:	a90b      	add	r1, sp, #44	; 0x2c
 800099c:	4648      	mov	r0, r9
 800099e:	f002 f967 	bl	8002c70 <HAL_GPIO_Init>
  GPIO_InitStruct.Pin = GPIO_PIN_2;
 80009a2:	2304      	movs	r3, #4
 80009a4:	930b      	str	r3, [sp, #44]	; 0x2c
  GPIO_InitStruct.Mode = GPIO_MODE_INPUT;
 80009a6:	940c      	str	r4, [sp, #48]	; 0x30
  GPIO_InitStruct.Pull = GPIO_PULLUP;
 80009a8:	950d      	str	r5, [sp, #52]	; 0x34
  HAL_GPIO_Init(GPIOA, &GPIO_InitStruct);
 80009aa:	a90b      	add	r1, sp, #44	; 0x2c
 80009ac:	4630      	mov	r0, r6
 80009ae:	f002 f95f 	bl	8002c70 <HAL_GPIO_Init>
  GPIO_InitStruct.Pin = GPIO_PIN_14|GPIO_PIN_15|GPIO_PIN_5;
 80009b2:	f24c 0320 	movw	r3, #49184	; 0xc020
 80009b6:	930b      	str	r3, [sp, #44]	; 0x2c
  GPIO_InitStruct.Mode = GPIO_MODE_OUTPUT_PP;
 80009b8:	950c      	str	r5, [sp, #48]	; 0x30
  GPIO_InitStruct.Pull = GPIO_NOPULL;
 80009ba:	940d      	str	r4, [sp, #52]	; 0x34
  GPIO_InitStruct.Speed = GPIO_SPEED_FREQ_LOW;
 80009bc:	970e      	str	r7, [sp, #56]	; 0x38
  HAL_GPIO_Init(GPIOB, &GPIO_InitStruct);
 80009be:	a90b      	add	r1, sp, #44	; 0x2c
 80009c0:	4640      	mov	r0, r8
 80009c2:	f002 f955 	bl	8002c70 <HAL_GPIO_Init>
  GPIO_InitStruct.Pin = GPIO_PIN_8|GPIO_PIN_9|GPIO_PIN_10;
 80009c6:	f44f 63e0 	mov.w	r3, #1792	; 0x700
 80009ca:	930b      	str	r3, [sp, #44]	; 0x2c
  GPIO_InitStruct.Mode = GPIO_MODE_OUTPUT_PP;
 80009cc:	950c      	str	r5, [sp, #48]	; 0x30
  GPIO_InitStruct.Pull = GPIO_NOPULL;
 80009ce:	940d      	str	r4, [sp, #52]	; 0x34
  GPIO_InitStruct.Speed = GPIO_SPEED_FREQ_LOW;
 80009d0:	970e      	str	r7, [sp, #56]	; 0x38
  HAL_GPIO_Init(GPIOA, &GPIO_InitStruct);
 80009d2:	a90b      	add	r1, sp, #44	; 0x2c
 80009d4:	4630      	mov	r0, r6
 80009d6:	f002 f94b 	bl	8002c70 <HAL_GPIO_Init>
  ADC_ChannelConfTypeDef sConfig = {0};
 80009da:	940b      	str	r4, [sp, #44]	; 0x2c
 80009dc:	940c      	str	r4, [sp, #48]	; 0x30
 80009de:	940d      	str	r4, [sp, #52]	; 0x34
  hadc1.Instance = ADC1;
 80009e0:	4878      	ldr	r0, [pc, #480]	; (8000bc4 <main+0x2c8>)
 80009e2:	4b79      	ldr	r3, [pc, #484]	; (8000bc8 <main+0x2cc>)
 80009e4:	6003      	str	r3, [r0, #0]
  hadc1.Init.ScanConvMode = ADC_SCAN_DISABLE;
 80009e6:	6084      	str	r4, [r0, #8]
  hadc1.Init.ContinuousConvMode = DISABLE;
 80009e8:	7304      	strb	r4, [r0, #12]
  hadc1.Init.DiscontinuousConvMode = DISABLE;
 80009ea:	7504      	strb	r4, [r0, #20]
  hadc1.Init.ExternalTrigConv = ADC_SOFTWARE_START;
 80009ec:	f44f 2360 	mov.w	r3, #917504	; 0xe0000
 80009f0:	61c3      	str	r3, [r0, #28]
  hadc1.Init.DataAlign = ADC_DATAALIGN_RIGHT;
 80009f2:	6044      	str	r4, [r0, #4]
  hadc1.Init.NbrOfConversion = 1;
 80009f4:	6105      	str	r5, [r0, #16]
  if (HAL_ADC_Init(&hadc1) != HAL_OK)
 80009f6:	f002 f847 	bl	8002a88 <HAL_ADC_Init>
 80009fa:	2800      	cmp	r0, #0
 80009fc:	f040 8139 	bne.w	8000c72 <main+0x376>
  sConfig.Channel = ADC_CHANNEL_3;
 8000a00:	2303      	movs	r3, #3
 8000a02:	930b      	str	r3, [sp, #44]	; 0x2c
  sConfig.Rank = ADC_REGULAR_RANK_1;
 8000a04:	2301      	movs	r3, #1
 8000a06:	930c      	str	r3, [sp, #48]	; 0x30
  sConfig.SamplingTime = ADC_SAMPLETIME_1CYCLE_5;
 8000a08:	2300      	movs	r3, #0
 8000a0a:	930d      	str	r3, [sp, #52]	; 0x34
  if (HAL_ADC_ConfigChannel(&hadc1, &sConfig) != HAL_OK)
 8000a0c:	a90b      	add	r1, sp, #44	; 0x2c
 8000a0e:	486d      	ldr	r0, [pc, #436]	; (8000bc4 <main+0x2c8>)
 8000a10:	f001 fea6 	bl	8002760 <HAL_ADC_ConfigChannel>
 8000a14:	2800      	cmp	r0, #0
 8000a16:	f040 812e 	bne.w	8000c76 <main+0x37a>
  hi2c1.Instance = I2C1;
 8000a1a:	486c      	ldr	r0, [pc, #432]	; (8000bcc <main+0x2d0>)
 8000a1c:	4b6c      	ldr	r3, [pc, #432]	; (8000bd0 <main+0x2d4>)
 8000a1e:	6003      	str	r3, [r0, #0]
  hi2c1.Init.ClockSpeed = 400000;
 8000a20:	4b6c      	ldr	r3, [pc, #432]	; (8000bd4 <main+0x2d8>)
 8000a22:	6043      	str	r3, [r0, #4]
  hi2c1.Init.DutyCycle = I2C_DUTYCYCLE_2;
 8000a24:	2300      	movs	r3, #0
 8000a26:	6083      	str	r3, [r0, #8]
  hi2c1.Init.OwnAddress1 = 0;
 8000a28:	60c3      	str	r3, [r0, #12]
  hi2c1.Init.AddressingMode = I2C_ADDRESSINGMODE_7BIT;
 8000a2a:	f44f 4280 	mov.w	r2, #16384	; 0x4000
 8000a2e:	6102      	str	r2, [r0, #16]
  hi2c1.Init.DualAddressMode = I2C_DUALADDRESS_DISABLE;
 8000a30:	6143      	str	r3, [r0, #20]
  hi2c1.Init.OwnAddress2 = 0;
 8000a32:	6183      	str	r3, [r0, #24]
  hi2c1.Init.GeneralCallMode = I2C_GENERALCALL_DISABLE;
 8000a34:	61c3      	str	r3, [r0, #28]
  hi2c1.Init.NoStretchMode = I2C_NOSTRETCH_DISABLE;
 8000a36:	6203      	str	r3, [r0, #32]
  if (HAL_I2C_Init(&hi2c1) != HAL_OK)
 8000a38:	f002 fb80 	bl	800313c <HAL_I2C_Init>
 8000a3c:	2800      	cmp	r0, #0
 8000a3e:	f040 811c 	bne.w	8000c7a <main+0x37e>
  hspi1.Instance = SPI1;
 8000a42:	4865      	ldr	r0, [pc, #404]	; (8000bd8 <main+0x2dc>)
 8000a44:	4b65      	ldr	r3, [pc, #404]	; (8000bdc <main+0x2e0>)
 8000a46:	6003      	str	r3, [r0, #0]
  hspi1.Init.Mode = SPI_MODE_MASTER;
 8000a48:	f44f 7382 	mov.w	r3, #260	; 0x104
 8000a4c:	6043      	str	r3, [r0, #4]
  hspi1.Init.Direction = SPI_DIRECTION_2LINES;
 8000a4e:	2300      	movs	r3, #0
 8000a50:	6083      	str	r3, [r0, #8]
  hspi1.Init.DataSize = SPI_DATASIZE_8BIT;
 8000a52:	60c3      	str	r3, [r0, #12]
  hspi1.Init.CLKPolarity = SPI_POLARITY_LOW;
 8000a54:	6103      	str	r3, [r0, #16]
  hspi1.Init.CLKPhase = SPI_PHASE_1EDGE;
 8000a56:	6143      	str	r3, [r0, #20]
  hspi1.Init.NSS = SPI_NSS_SOFT;
 8000a58:	f44f 7200 	mov.w	r2, #512	; 0x200
 8000a5c:	6182      	str	r2, [r0, #24]
  hspi1.Init.BaudRatePrescaler = SPI_BAUDRATEPRESCALER_64;
 8000a5e:	2228      	movs	r2, #40	; 0x28
 8000a60:	61c2      	str	r2, [r0, #28]
  hspi1.Init.FirstBit = SPI_FIRSTBIT_MSB;
 8000a62:	6203      	str	r3, [r0, #32]
  hspi1.Init.TIMode = SPI_TIMODE_DISABLE;
 8000a64:	6243      	str	r3, [r0, #36]	; 0x24
  hspi1.Init.CRCCalculation = SPI_CRCCALCULATION_DISABLE;
 8000a66:	6283      	str	r3, [r0, #40]	; 0x28
  hspi1.Init.CRCPolynomial = 10;
 8000a68:	230a      	movs	r3, #10
 8000a6a:	62c3      	str	r3, [r0, #44]	; 0x2c
  if (HAL_SPI_Init(&hspi1) != HAL_OK)
 8000a6c:	f003 faeb 	bl	8004046 <HAL_SPI_Init>
 8000a70:	2800      	cmp	r0, #0
 8000a72:	f040 8104 	bne.w	8000c7e <main+0x382>
  ADC_ChannelConfTypeDef sConfig = {0};
 8000a76:	2300      	movs	r3, #0
 8000a78:	930b      	str	r3, [sp, #44]	; 0x2c
 8000a7a:	930c      	str	r3, [sp, #48]	; 0x30
 8000a7c:	930d      	str	r3, [sp, #52]	; 0x34
  hadc2.Instance = ADC2;
 8000a7e:	4858      	ldr	r0, [pc, #352]	; (8000be0 <main+0x2e4>)
 8000a80:	4a58      	ldr	r2, [pc, #352]	; (8000be4 <main+0x2e8>)
 8000a82:	6002      	str	r2, [r0, #0]
  hadc2.Init.ScanConvMode = ADC_SCAN_DISABLE;
 8000a84:	6083      	str	r3, [r0, #8]
  hadc2.Init.ContinuousConvMode = DISABLE;
 8000a86:	7303      	strb	r3, [r0, #12]
  hadc2.Init.DiscontinuousConvMode = DISABLE;
 8000a88:	7503      	strb	r3, [r0, #20]
  hadc2.Init.ExternalTrigConv = ADC_SOFTWARE_START;
 8000a8a:	f44f 2260 	mov.w	r2, #917504	; 0xe0000
 8000a8e:	61c2      	str	r2, [r0, #28]
  hadc2.Init.DataAlign = ADC_DATAALIGN_RIGHT;
 8000a90:	6043      	str	r3, [r0, #4]
  hadc2.Init.NbrOfConversion = 1;
 8000a92:	2301      	movs	r3, #1
 8000a94:	6103      	str	r3, [r0, #16]
  if (HAL_ADC_Init(&hadc2) != HAL_OK)
 8000a96:	f001 fff7 	bl	8002a88 <HAL_ADC_Init>
 8000a9a:	2800      	cmp	r0, #0
 8000a9c:	f040 80f1 	bne.w	8000c82 <main+0x386>
  sConfig.Channel = ADC_CHANNEL_1;
 8000aa0:	2301      	movs	r3, #1
 8000aa2:	930b      	str	r3, [sp, #44]	; 0x2c
  sConfig.Rank = ADC_REGULAR_RANK_1;
 8000aa4:	930c      	str	r3, [sp, #48]	; 0x30
  sConfig.SamplingTime = ADC_SAMPLETIME_1CYCLE_5;
 8000aa6:	2300      	movs	r3, #0
 8000aa8:	930d      	str	r3, [sp, #52]	; 0x34
  if (HAL_ADC_ConfigChannel(&hadc2, &sConfig) != HAL_OK)
 8000aaa:	a90b      	add	r1, sp, #44	; 0x2c
 8000aac:	484c      	ldr	r0, [pc, #304]	; (8000be0 <main+0x2e4>)
 8000aae:	f001 fe57 	bl	8002760 <HAL_ADC_ConfigChannel>
 8000ab2:	2800      	cmp	r0, #0
 8000ab4:	f040 80e7 	bne.w	8000c86 <main+0x38a>
  TIM_ClockConfigTypeDef sClockSourceConfig = {0};
 8000ab8:	2300      	movs	r3, #0
 8000aba:	9307      	str	r3, [sp, #28]
 8000abc:	9308      	str	r3, [sp, #32]
 8000abe:	9309      	str	r3, [sp, #36]	; 0x24
 8000ac0:	930a      	str	r3, [sp, #40]	; 0x28
  TIM_MasterConfigTypeDef sMasterConfig = {0};
 8000ac2:	9305      	str	r3, [sp, #20]
 8000ac4:	9306      	str	r3, [sp, #24]
  TIM_OC_InitTypeDef sConfigOC = {0};
 8000ac6:	930b      	str	r3, [sp, #44]	; 0x2c
 8000ac8:	930c      	str	r3, [sp, #48]	; 0x30
 8000aca:	930d      	str	r3, [sp, #52]	; 0x34
 8000acc:	930e      	str	r3, [sp, #56]	; 0x38
 8000ace:	930f      	str	r3, [sp, #60]	; 0x3c
 8000ad0:	9310      	str	r3, [sp, #64]	; 0x40
 8000ad2:	9311      	str	r3, [sp, #68]	; 0x44
  htim2.Instance = TIM2;
 8000ad4:	4844      	ldr	r0, [pc, #272]	; (8000be8 <main+0x2ec>)
 8000ad6:	f04f 4280 	mov.w	r2, #1073741824	; 0x40000000
 8000ada:	6002      	str	r2, [r0, #0]
  htim2.Init.Prescaler = 1-1;
 8000adc:	6043      	str	r3, [r0, #4]
  htim2.Init.CounterMode = TIM_COUNTERMODE_UP;
 8000ade:	6083      	str	r3, [r0, #8]
  htim2.Init.Period = 255-1;
 8000ae0:	22fe      	movs	r2, #254	; 0xfe
 8000ae2:	60c2      	str	r2, [r0, #12]
  htim2.Init.ClockDivision = TIM_CLOCKDIVISION_DIV1;
 8000ae4:	6103      	str	r3, [r0, #16]
  htim2.Init.AutoReloadPreload = TIM_AUTORELOAD_PRELOAD_DISABLE;
 8000ae6:	6183      	str	r3, [r0, #24]
  if (HAL_TIM_Base_Init(&htim2) != HAL_OK)
 8000ae8:	f003 ffae 	bl	8004a48 <HAL_TIM_Base_Init>
 8000aec:	2800      	cmp	r0, #0
 8000aee:	f040 80cc 	bne.w	8000c8a <main+0x38e>
  sClockSourceConfig.ClockSource = TIM_CLOCKSOURCE_INTERNAL;
 8000af2:	f44f 5380 	mov.w	r3, #4096	; 0x1000
 8000af6:	9307      	str	r3, [sp, #28]
  if (HAL_TIM_ConfigClockSource(&htim2, &sClockSourceConfig) != HAL_OK)
 8000af8:	a907      	add	r1, sp, #28
 8000afa:	483b      	ldr	r0, [pc, #236]	; (8000be8 <main+0x2ec>)
 8000afc:	f004 f8a4 	bl	8004c48 <HAL_TIM_ConfigClockSource>
 8000b00:	2800      	cmp	r0, #0
 8000b02:	f040 80c4 	bne.w	8000c8e <main+0x392>
  if (HAL_TIM_PWM_Init(&htim2) != HAL_OK)
 8000b06:	4838      	ldr	r0, [pc, #224]	; (8000be8 <main+0x2ec>)
 8000b08:	f003 ffca 	bl	8004aa0 <HAL_TIM_PWM_Init>
 8000b0c:	2800      	cmp	r0, #0
 8000b0e:	f040 80c0 	bne.w	8000c92 <main+0x396>
  sMasterConfig.MasterOutputTrigger = TIM_TRGO_RESET;
 8000b12:	2300      	movs	r3, #0
 8000b14:	9305      	str	r3, [sp, #20]
  sMasterConfig.MasterSlaveMode = TIM_MASTERSLAVEMODE_DISABLE;
 8000b16:	9306      	str	r3, [sp, #24]
  if (HAL_TIMEx_MasterConfigSynchronization(&htim2, &sMasterConfig) != HAL_OK)
 8000b18:	a905      	add	r1, sp, #20
 8000b1a:	4833      	ldr	r0, [pc, #204]	; (8000be8 <main+0x2ec>)
 8000b1c:	f004 f9fe 	bl	8004f1c <HAL_TIMEx_MasterConfigSynchronization>
 8000b20:	2800      	cmp	r0, #0
 8000b22:	f040 80b8 	bne.w	8000c96 <main+0x39a>
  sConfigOC.OCMode = TIM_OCMODE_PWM1;
 8000b26:	2360      	movs	r3, #96	; 0x60
 8000b28:	930b      	str	r3, [sp, #44]	; 0x2c
  sConfigOC.Pulse = 0;
 8000b2a:	2200      	movs	r2, #0
 8000b2c:	920c      	str	r2, [sp, #48]	; 0x30
  sConfigOC.OCPolarity = TIM_OCPOLARITY_HIGH;
 8000b2e:	920d      	str	r2, [sp, #52]	; 0x34
  sConfigOC.OCFastMode = TIM_OCFAST_DISABLE;
 8000b30:	920f      	str	r2, [sp, #60]	; 0x3c
  if (HAL_TIM_PWM_ConfigChannel(&htim2, &sConfigOC, TIM_CHANNEL_1) != HAL_OK)
 8000b32:	a90b      	add	r1, sp, #44	; 0x2c
 8000b34:	482c      	ldr	r0, [pc, #176]	; (8000be8 <main+0x2ec>)
 8000b36:	f004 f80d 	bl	8004b54 <HAL_TIM_PWM_ConfigChannel>
 8000b3a:	2800      	cmp	r0, #0
 8000b3c:	f040 80ad 	bne.w	8000c9a <main+0x39e>
  HAL_TIM_MspPostInit(&htim2);
 8000b40:	4829      	ldr	r0, [pc, #164]	; (8000be8 <main+0x2ec>)
 8000b42:	f001 fc0f 	bl	8002364 <HAL_TIM_MspPostInit>
  TIM_ClockConfigTypeDef sClockSourceConfig = {0};
 8000b46:	2300      	movs	r3, #0
 8000b48:	930b      	str	r3, [sp, #44]	; 0x2c
 8000b4a:	930c      	str	r3, [sp, #48]	; 0x30
 8000b4c:	930d      	str	r3, [sp, #52]	; 0x34
 8000b4e:	930e      	str	r3, [sp, #56]	; 0x38
  TIM_MasterConfigTypeDef sMasterConfig = {0};
 8000b50:	9307      	str	r3, [sp, #28]
 8000b52:	9308      	str	r3, [sp, #32]
  htim3.Instance = TIM3;
 8000b54:	4825      	ldr	r0, [pc, #148]	; (8000bec <main+0x2f0>)
 8000b56:	4a26      	ldr	r2, [pc, #152]	; (8000bf0 <main+0x2f4>)
 8000b58:	6002      	str	r2, [r0, #0]
  htim3.Init.Prescaler = 72-1;
 8000b5a:	2247      	movs	r2, #71	; 0x47
 8000b5c:	6042      	str	r2, [r0, #4]
  htim3.Init.CounterMode = TIM_COUNTERMODE_UP;
 8000b5e:	6083      	str	r3, [r0, #8]
  htim3.Init.Period = 125-1;
 8000b60:	227c      	movs	r2, #124	; 0x7c
 8000b62:	60c2      	str	r2, [r0, #12]
  htim3.Init.ClockDivision = TIM_CLOCKDIVISION_DIV1;
 8000b64:	6103      	str	r3, [r0, #16]
  htim3.Init.AutoReloadPreload = TIM_AUTORELOAD_PRELOAD_DISABLE;
 8000b66:	6183      	str	r3, [r0, #24]
  if (HAL_TIM_Base_Init(&htim3) != HAL_OK)
 8000b68:	f003 ff6e 	bl	8004a48 <HAL_TIM_Base_Init>
 8000b6c:	2800      	cmp	r0, #0
 8000b6e:	f040 8096 	bne.w	8000c9e <main+0x3a2>
  sClockSourceConfig.ClockSource = TIM_CLOCKSOURCE_INTERNAL;
 8000b72:	f44f 5380 	mov.w	r3, #4096	; 0x1000
 8000b76:	930b      	str	r3, [sp, #44]	; 0x2c
  if (HAL_TIM_ConfigClockSource(&htim3, &sClockSourceConfig) != HAL_OK)
 8000b78:	a90b      	add	r1, sp, #44	; 0x2c
 8000b7a:	481c      	ldr	r0, [pc, #112]	; (8000bec <main+0x2f0>)
 8000b7c:	f004 f864 	bl	8004c48 <HAL_TIM_ConfigClockSource>
 8000b80:	2800      	cmp	r0, #0
 8000b82:	f040 808e 	bne.w	8000ca2 <main+0x3a6>
  sMasterConfig.MasterOutputTrigger = TIM_TRGO_RESET;
 8000b86:	2300      	movs	r3, #0
 8000b88:	9307      	str	r3, [sp, #28]
  sMasterConfig.MasterSlaveMode = TIM_MASTERSLAVEMODE_DISABLE;
 8000b8a:	9308      	str	r3, [sp, #32]
  if (HAL_TIMEx_MasterConfigSynchronization(&htim3, &sMasterConfig) != HAL_OK)
 8000b8c:	a907      	add	r1, sp, #28
 8000b8e:	4817      	ldr	r0, [pc, #92]	; (8000bec <main+0x2f0>)
 8000b90:	f004 f9c4 	bl	8004f1c <HAL_TIMEx_MasterConfigSynchronization>
 8000b94:	2800      	cmp	r0, #0
 8000b96:	f040 8086 	bne.w	8000ca6 <main+0x3aa>
  osKernelInitialize();
 8000b9a:	f004 f9f5 	bl	8004f88 <osKernelInitialize>
  mutexPuntajesHandle = osMutexNew(&mutexPuntajes_attributes);
 8000b9e:	4815      	ldr	r0, [pc, #84]	; (8000bf4 <main+0x2f8>)
 8000ba0:	f004 fb54 	bl	800524c <osMutexNew>
 8000ba4:	4b14      	ldr	r3, [pc, #80]	; (8000bf8 <main+0x2fc>)
 8000ba6:	6018      	str	r0, [r3, #0]
  mySem01Handle = osSemaphoreNew(1, 1, &mySem01_attributes);
 8000ba8:	4a14      	ldr	r2, [pc, #80]	; (8000bfc <main+0x300>)
 8000baa:	2101      	movs	r1, #1
 8000bac:	4608      	mov	r0, r1
 8000bae:	f004 fc1b 	bl	80053e8 <osSemaphoreNew>
 8000bb2:	e025      	b.n	8000c00 <main+0x304>
 8000bb4:	40021000 	.word	0x40021000
 8000bb8:	40011000 	.word	0x40011000
 8000bbc:	40010c00 	.word	0x40010c00
 8000bc0:	40010800 	.word	0x40010800
 8000bc4:	20000748 	.word	0x20000748
 8000bc8:	40012400 	.word	0x40012400
 8000bcc:	200007a8 	.word	0x200007a8
 8000bd0:	40005400 	.word	0x40005400
 8000bd4:	00061a80 	.word	0x00061a80
 8000bd8:	200007fc 	.word	0x200007fc
 8000bdc:	40013000 	.word	0x40013000
 8000be0:	20000778 	.word	0x20000778
 8000be4:	40012800 	.word	0x40012800
 8000be8:	20000854 	.word	0x20000854
 8000bec:	2000089c 	.word	0x2000089c
 8000bf0:	40000400 	.word	0x40000400
 8000bf4:	080093b8 	.word	0x080093b8
 8000bf8:	200008e8 	.word	0x200008e8
 8000bfc:	080093c8 	.word	0x080093c8
 8000c00:	4b2a      	ldr	r3, [pc, #168]	; (8000cac <main+0x3b0>)
 8000c02:	6018      	str	r0, [r3, #0]
  queueJoystPantHandle = osMessageQueueNew (10, sizeof(botones_t), &queueJoystPant_attributes);
 8000c04:	4a2a      	ldr	r2, [pc, #168]	; (8000cb0 <main+0x3b4>)
 8000c06:	2103      	movs	r1, #3
 8000c08:	200a      	movs	r0, #10
 8000c0a:	f004 fc61 	bl	80054d0 <osMessageQueueNew>
 8000c0e:	4b29      	ldr	r3, [pc, #164]	; (8000cb4 <main+0x3b8>)
 8000c10:	6018      	str	r0, [r3, #0]
  queueSonidoMenuHandle = osMessageQueueNew (10, sizeof(musica_t), &queueSonidoMenu_attributes);
 8000c12:	4a29      	ldr	r2, [pc, #164]	; (8000cb8 <main+0x3bc>)
 8000c14:	2101      	movs	r1, #1
 8000c16:	200a      	movs	r0, #10
 8000c18:	f004 fc5a 	bl	80054d0 <osMessageQueueNew>
 8000c1c:	4b27      	ldr	r3, [pc, #156]	; (8000cbc <main+0x3c0>)
 8000c1e:	6018      	str	r0, [r3, #0]
  JoystickTaskHandle = osThreadNew(entryJoystick, NULL, &JoystickTask_attributes);
 8000c20:	4a27      	ldr	r2, [pc, #156]	; (8000cc0 <main+0x3c4>)
 8000c22:	2100      	movs	r1, #0
 8000c24:	4827      	ldr	r0, [pc, #156]	; (8000cc4 <main+0x3c8>)
 8000c26:	f004 f9fb 	bl	8005020 <osThreadNew>
 8000c2a:	4b27      	ldr	r3, [pc, #156]	; (8000cc8 <main+0x3cc>)
 8000c2c:	6018      	str	r0, [r3, #0]
  PantallaTaskHandle = osThreadNew(entryPantalla, NULL, &PantallaTask_attributes);
 8000c2e:	4a27      	ldr	r2, [pc, #156]	; (8000ccc <main+0x3d0>)
 8000c30:	2100      	movs	r1, #0
 8000c32:	4827      	ldr	r0, [pc, #156]	; (8000cd0 <main+0x3d4>)
 8000c34:	f004 f9f4 	bl	8005020 <osThreadNew>
 8000c38:	4b26      	ldr	r3, [pc, #152]	; (8000cd4 <main+0x3d8>)
 8000c3a:	6018      	str	r0, [r3, #0]
  MemoriaTaskHandle = osThreadNew(entryMemoria, NULL, &MemoriaTask_attributes);
 8000c3c:	4a26      	ldr	r2, [pc, #152]	; (8000cd8 <main+0x3dc>)
 8000c3e:	2100      	movs	r1, #0
 8000c40:	4826      	ldr	r0, [pc, #152]	; (8000cdc <main+0x3e0>)
 8000c42:	f004 f9ed 	bl	8005020 <osThreadNew>
 8000c46:	4b26      	ldr	r3, [pc, #152]	; (8000ce0 <main+0x3e4>)
 8000c48:	6018      	str	r0, [r3, #0]
  SonidoTaskHandle = osThreadNew(entrySonido, NULL, &SonidoTask_attributes);
 8000c4a:	4a26      	ldr	r2, [pc, #152]	; (8000ce4 <main+0x3e8>)
 8000c4c:	2100      	movs	r1, #0
 8000c4e:	4826      	ldr	r0, [pc, #152]	; (8000ce8 <main+0x3ec>)
 8000c50:	f004 f9e6 	bl	8005020 <osThreadNew>
 8000c54:	4b25      	ldr	r3, [pc, #148]	; (8000cec <main+0x3f0>)
 8000c56:	6018      	str	r0, [r3, #0]
  notificationFlag = osEventFlagsNew(NULL);
 8000c58:	2000      	movs	r0, #0
 8000c5a:	f004 fa47 	bl	80050ec <osEventFlagsNew>
 8000c5e:	4b24      	ldr	r3, [pc, #144]	; (8000cf0 <main+0x3f4>)
 8000c60:	6018      	str	r0, [r3, #0]
  notificationFlag2 = osEventFlagsNew(NULL);
 8000c62:	2000      	movs	r0, #0
 8000c64:	f004 fa42 	bl	80050ec <osEventFlagsNew>
 8000c68:	4b22      	ldr	r3, [pc, #136]	; (8000cf4 <main+0x3f8>)
 8000c6a:	6018      	str	r0, [r3, #0]
  osKernelStart();
 8000c6c:	f004 f9b0 	bl	8004fd0 <osKernelStart>
  while (1)
 8000c70:	e7fe      	b.n	8000c70 <main+0x374>
 8000c72:	b672      	cpsid	i
  while (1)
 8000c74:	e7fe      	b.n	8000c74 <main+0x378>
 8000c76:	b672      	cpsid	i
 8000c78:	e7fe      	b.n	8000c78 <main+0x37c>
 8000c7a:	b672      	cpsid	i
 8000c7c:	e7fe      	b.n	8000c7c <main+0x380>
 8000c7e:	b672      	cpsid	i
 8000c80:	e7fe      	b.n	8000c80 <main+0x384>
 8000c82:	b672      	cpsid	i
 8000c84:	e7fe      	b.n	8000c84 <main+0x388>
 8000c86:	b672      	cpsid	i
 8000c88:	e7fe      	b.n	8000c88 <main+0x38c>
 8000c8a:	b672      	cpsid	i
 8000c8c:	e7fe      	b.n	8000c8c <main+0x390>
 8000c8e:	b672      	cpsid	i
 8000c90:	e7fe      	b.n	8000c90 <main+0x394>
 8000c92:	b672      	cpsid	i
 8000c94:	e7fe      	b.n	8000c94 <main+0x398>
 8000c96:	b672      	cpsid	i
 8000c98:	e7fe      	b.n	8000c98 <main+0x39c>
 8000c9a:	b672      	cpsid	i
 8000c9c:	e7fe      	b.n	8000c9c <main+0x3a0>
 8000c9e:	b672      	cpsid	i
 8000ca0:	e7fe      	b.n	8000ca0 <main+0x3a4>
 8000ca2:	b672      	cpsid	i
 8000ca4:	e7fe      	b.n	8000ca4 <main+0x3a8>
 8000ca6:	b672      	cpsid	i
 8000ca8:	e7fe      	b.n	8000ca8 <main+0x3ac>
 8000caa:	bf00      	nop
 8000cac:	200008ec 	.word	0x200008ec
 8000cb0:	080093d8 	.word	0x080093d8
 8000cb4:	200008fc 	.word	0x200008fc
 8000cb8:	080093f0 	.word	0x080093f0
 8000cbc:	20000900 	.word	0x20000900
 8000cc0:	08009328 	.word	0x08009328
 8000cc4:	08000659 	.word	0x08000659
 8000cc8:	20000734 	.word	0x20000734
 8000ccc:	08009370 	.word	0x08009370
 8000cd0:	0800072d 	.word	0x0800072d
 8000cd4:	2000073c 	.word	0x2000073c
 8000cd8:	0800934c 	.word	0x0800934c
 8000cdc:	08000785 	.word	0x08000785
 8000ce0:	20000738 	.word	0x20000738
 8000ce4:	08009394 	.word	0x08009394
 8000ce8:	080007e1 	.word	0x080007e1
 8000cec:	20000740 	.word	0x20000740
 8000cf0:	200008f0 	.word	0x200008f0
 8000cf4:	200008f4 	.word	0x200008f4

08000cf8 <HAL_TIM_PeriodElapsedCallback>:
{
 8000cf8:	b510      	push	{r4, lr}
 8000cfa:	4604      	mov	r4, r0
  if (htim->Instance == TIM4) {
 8000cfc:	6802      	ldr	r2, [r0, #0]
 8000cfe:	4b55      	ldr	r3, [pc, #340]	; (8000e54 <HAL_TIM_PeriodElapsedCallback+0x15c>)
 8000d00:	429a      	cmp	r2, r3
 8000d02:	d004      	beq.n	8000d0e <HAL_TIM_PeriodElapsedCallback+0x16>
  if (htim->Instance == TIM3) {
 8000d04:	6822      	ldr	r2, [r4, #0]
 8000d06:	4b54      	ldr	r3, [pc, #336]	; (8000e58 <HAL_TIM_PeriodElapsedCallback+0x160>)
 8000d08:	429a      	cmp	r2, r3
 8000d0a:	d003      	beq.n	8000d14 <HAL_TIM_PeriodElapsedCallback+0x1c>
}
 8000d0c:	bd10      	pop	{r4, pc}
    HAL_IncTick();
 8000d0e:	f001 fc4f 	bl	80025b0 <HAL_IncTick>
 8000d12:	e7f7      	b.n	8000d04 <HAL_TIM_PeriodElapsedCallback+0xc>
		TIM2->CCR1 = *puntero_musica >> 1;
 8000d14:	4951      	ldr	r1, [pc, #324]	; (8000e5c <HAL_TIM_PeriodElapsedCallback+0x164>)
 8000d16:	680b      	ldr	r3, [r1, #0]
 8000d18:	f813 2b01 	ldrb.w	r2, [r3], #1
 8000d1c:	0852      	lsrs	r2, r2, #1
 8000d1e:	f04f 4080 	mov.w	r0, #1073741824	; 0x40000000
 8000d22:	6342      	str	r2, [r0, #52]	; 0x34
		puntero_musica++;
 8000d24:	600b      	str	r3, [r1, #0]
		HAL_GPIO_TogglePin(GPIOA, GPIO_PIN_10);
 8000d26:	f44f 6180 	mov.w	r1, #1024	; 0x400
 8000d2a:	f500 3084 	add.w	r0, r0, #67584	; 0x10800
 8000d2e:	f002 f8e5 	bl	8002efc <HAL_GPIO_TogglePin>
		switch(musica){
 8000d32:	4b4b      	ldr	r3, [pc, #300]	; (8000e60 <HAL_TIM_PeriodElapsedCallback+0x168>)
 8000d34:	781b      	ldrb	r3, [r3, #0]
 8000d36:	2b00      	cmp	r3, #0
 8000d38:	d07c      	beq.n	8000e34 <HAL_TIM_PeriodElapsedCallback+0x13c>
 8000d3a:	2b02      	cmp	r3, #2
 8000d3c:	d1e6      	bne.n	8000d0c <HAL_TIM_PeriodElapsedCallback+0x14>
					switch(tonos){
 8000d3e:	4b49      	ldr	r3, [pc, #292]	; (8000e64 <HAL_TIM_PeriodElapsedCallback+0x16c>)
 8000d40:	781b      	ldrb	r3, [r3, #0]
 8000d42:	2b01      	cmp	r3, #1
 8000d44:	d02e      	beq.n	8000da4 <HAL_TIM_PeriodElapsedCallback+0xac>
 8000d46:	2b02      	cmp	r3, #2
 8000d48:	d048      	beq.n	8000ddc <HAL_TIM_PeriodElapsedCallback+0xe4>
 8000d4a:	b17b      	cbz	r3, 8000d6c <HAL_TIM_PeriodElapsedCallback+0x74>
						if(puntero_musica == puntero_musica_final_tonos){
 8000d4c:	4a43      	ldr	r2, [pc, #268]	; (8000e5c <HAL_TIM_PeriodElapsedCallback+0x164>)
 8000d4e:	6811      	ldr	r1, [r2, #0]
 8000d50:	4a45      	ldr	r2, [pc, #276]	; (8000e68 <HAL_TIM_PeriodElapsedCallback+0x170>)
 8000d52:	6812      	ldr	r2, [r2, #0]
 8000d54:	4291      	cmp	r1, r2
 8000d56:	d05d      	beq.n	8000e14 <HAL_TIM_PeriodElapsedCallback+0x11c>
						if(conteo_musica == 0){
 8000d58:	4a44      	ldr	r2, [pc, #272]	; (8000e6c <HAL_TIM_PeriodElapsedCallback+0x174>)
 8000d5a:	7812      	ldrb	r2, [r2, #0]
 8000d5c:	2a00      	cmp	r2, #0
 8000d5e:	d1d5      	bne.n	8000d0c <HAL_TIM_PeriodElapsedCallback+0x14>
							switch(tonos){
 8000d60:	2b03      	cmp	r3, #3
 8000d62:	d8d3      	bhi.n	8000d0c <HAL_TIM_PeriodElapsedCallback+0x14>
 8000d64:	e8df f003 	tbb	[pc, r3]
 8000d68:	5e44280c 	.word	0x5e44280c
						if(puntero_musica == puntero_musica_final_f622){
 8000d6c:	4b3b      	ldr	r3, [pc, #236]	; (8000e5c <HAL_TIM_PeriodElapsedCallback+0x164>)
 8000d6e:	681a      	ldr	r2, [r3, #0]
 8000d70:	4b3f      	ldr	r3, [pc, #252]	; (8000e70 <HAL_TIM_PeriodElapsedCallback+0x178>)
 8000d72:	681b      	ldr	r3, [r3, #0]
 8000d74:	429a      	cmp	r2, r3
 8000d76:	d00d      	beq.n	8000d94 <HAL_TIM_PeriodElapsedCallback+0x9c>
						if(conteo_musica == 0){
 8000d78:	4b3c      	ldr	r3, [pc, #240]	; (8000e6c <HAL_TIM_PeriodElapsedCallback+0x174>)
 8000d7a:	781b      	ldrb	r3, [r3, #0]
 8000d7c:	2b00      	cmp	r3, #0
 8000d7e:	d1c5      	bne.n	8000d0c <HAL_TIM_PeriodElapsedCallback+0x14>
								puntero_musica = tono_587hz;
 8000d80:	4b36      	ldr	r3, [pc, #216]	; (8000e5c <HAL_TIM_PeriodElapsedCallback+0x164>)
 8000d82:	4a3c      	ldr	r2, [pc, #240]	; (8000e74 <HAL_TIM_PeriodElapsedCallback+0x17c>)
 8000d84:	601a      	str	r2, [r3, #0]
								tonos = f587;
 8000d86:	4b37      	ldr	r3, [pc, #220]	; (8000e64 <HAL_TIM_PeriodElapsedCallback+0x16c>)
 8000d88:	2201      	movs	r2, #1
 8000d8a:	701a      	strb	r2, [r3, #0]
								conteo_musica = VECES_587HZ;
 8000d8c:	4b37      	ldr	r3, [pc, #220]	; (8000e6c <HAL_TIM_PeriodElapsedCallback+0x174>)
 8000d8e:	22a0      	movs	r2, #160	; 0xa0
 8000d90:	701a      	strb	r2, [r3, #0]
								break;
 8000d92:	e7bb      	b.n	8000d0c <HAL_TIM_PeriodElapsedCallback+0x14>
								puntero_musica = tono_622hz;
 8000d94:	4b31      	ldr	r3, [pc, #196]	; (8000e5c <HAL_TIM_PeriodElapsedCallback+0x164>)
 8000d96:	4a38      	ldr	r2, [pc, #224]	; (8000e78 <HAL_TIM_PeriodElapsedCallback+0x180>)
 8000d98:	601a      	str	r2, [r3, #0]
								conteo_musica--;
 8000d9a:	4a34      	ldr	r2, [pc, #208]	; (8000e6c <HAL_TIM_PeriodElapsedCallback+0x174>)
 8000d9c:	7813      	ldrb	r3, [r2, #0]
 8000d9e:	3b01      	subs	r3, #1
 8000da0:	7013      	strb	r3, [r2, #0]
 8000da2:	e7e9      	b.n	8000d78 <HAL_TIM_PeriodElapsedCallback+0x80>
						if(puntero_musica == puntero_musica_final_f587){
 8000da4:	4b2d      	ldr	r3, [pc, #180]	; (8000e5c <HAL_TIM_PeriodElapsedCallback+0x164>)
 8000da6:	681a      	ldr	r2, [r3, #0]
 8000da8:	4b34      	ldr	r3, [pc, #208]	; (8000e7c <HAL_TIM_PeriodElapsedCallback+0x184>)
 8000daa:	681b      	ldr	r3, [r3, #0]
 8000dac:	429a      	cmp	r2, r3
 8000dae:	d00d      	beq.n	8000dcc <HAL_TIM_PeriodElapsedCallback+0xd4>
						if(conteo_musica == 0){
 8000db0:	4b2e      	ldr	r3, [pc, #184]	; (8000e6c <HAL_TIM_PeriodElapsedCallback+0x174>)
 8000db2:	781b      	ldrb	r3, [r3, #0]
 8000db4:	2b00      	cmp	r3, #0
 8000db6:	d1a9      	bne.n	8000d0c <HAL_TIM_PeriodElapsedCallback+0x14>
								puntero_musica = tono_554hz;
 8000db8:	4b28      	ldr	r3, [pc, #160]	; (8000e5c <HAL_TIM_PeriodElapsedCallback+0x164>)
 8000dba:	4a31      	ldr	r2, [pc, #196]	; (8000e80 <HAL_TIM_PeriodElapsedCallback+0x188>)
 8000dbc:	601a      	str	r2, [r3, #0]
								tonos = f554;
 8000dbe:	4b29      	ldr	r3, [pc, #164]	; (8000e64 <HAL_TIM_PeriodElapsedCallback+0x16c>)
 8000dc0:	2202      	movs	r2, #2
 8000dc2:	701a      	strb	r2, [r3, #0]
								conteo_musica = VECES_554HZ;
 8000dc4:	4b29      	ldr	r3, [pc, #164]	; (8000e6c <HAL_TIM_PeriodElapsedCallback+0x174>)
 8000dc6:	2296      	movs	r2, #150	; 0x96
 8000dc8:	701a      	strb	r2, [r3, #0]
								break;
 8000dca:	e79f      	b.n	8000d0c <HAL_TIM_PeriodElapsedCallback+0x14>
								puntero_musica = tono_587hz;
 8000dcc:	4b23      	ldr	r3, [pc, #140]	; (8000e5c <HAL_TIM_PeriodElapsedCallback+0x164>)
 8000dce:	4a29      	ldr	r2, [pc, #164]	; (8000e74 <HAL_TIM_PeriodElapsedCallback+0x17c>)
 8000dd0:	601a      	str	r2, [r3, #0]
								conteo_musica--;
 8000dd2:	4a26      	ldr	r2, [pc, #152]	; (8000e6c <HAL_TIM_PeriodElapsedCallback+0x174>)
 8000dd4:	7813      	ldrb	r3, [r2, #0]
 8000dd6:	3b01      	subs	r3, #1
 8000dd8:	7013      	strb	r3, [r2, #0]
 8000dda:	e7e9      	b.n	8000db0 <HAL_TIM_PeriodElapsedCallback+0xb8>
						if(puntero_musica == puntero_musica_final_f554){
 8000ddc:	4b1f      	ldr	r3, [pc, #124]	; (8000e5c <HAL_TIM_PeriodElapsedCallback+0x164>)
 8000dde:	681a      	ldr	r2, [r3, #0]
 8000de0:	4b28      	ldr	r3, [pc, #160]	; (8000e84 <HAL_TIM_PeriodElapsedCallback+0x18c>)
 8000de2:	681b      	ldr	r3, [r3, #0]
 8000de4:	429a      	cmp	r2, r3
 8000de6:	d00d      	beq.n	8000e04 <HAL_TIM_PeriodElapsedCallback+0x10c>
						if(conteo_musica == 0){
 8000de8:	4b20      	ldr	r3, [pc, #128]	; (8000e6c <HAL_TIM_PeriodElapsedCallback+0x174>)
 8000dea:	781b      	ldrb	r3, [r3, #0]
 8000dec:	2b00      	cmp	r3, #0
 8000dee:	d18d      	bne.n	8000d0c <HAL_TIM_PeriodElapsedCallback+0x14>
								puntero_musica = tonos_variables;
 8000df0:	4b1a      	ldr	r3, [pc, #104]	; (8000e5c <HAL_TIM_PeriodElapsedCallback+0x164>)
 8000df2:	4a25      	ldr	r2, [pc, #148]	; (8000e88 <HAL_TIM_PeriodElapsedCallback+0x190>)
 8000df4:	601a      	str	r2, [r3, #0]
								tonos = variables;
 8000df6:	4b1b      	ldr	r3, [pc, #108]	; (8000e64 <HAL_TIM_PeriodElapsedCallback+0x16c>)
 8000df8:	2203      	movs	r2, #3
 8000dfa:	701a      	strb	r2, [r3, #0]
								conteo_musica = VECES_TONOS_VARIABLES;
 8000dfc:	4b1b      	ldr	r3, [pc, #108]	; (8000e6c <HAL_TIM_PeriodElapsedCallback+0x174>)
 8000dfe:	220a      	movs	r2, #10
 8000e00:	701a      	strb	r2, [r3, #0]
								break;
 8000e02:	e783      	b.n	8000d0c <HAL_TIM_PeriodElapsedCallback+0x14>
								puntero_musica = tono_554hz;
 8000e04:	4b15      	ldr	r3, [pc, #84]	; (8000e5c <HAL_TIM_PeriodElapsedCallback+0x164>)
 8000e06:	4a1e      	ldr	r2, [pc, #120]	; (8000e80 <HAL_TIM_PeriodElapsedCallback+0x188>)
 8000e08:	601a      	str	r2, [r3, #0]
								conteo_musica--;
 8000e0a:	4a18      	ldr	r2, [pc, #96]	; (8000e6c <HAL_TIM_PeriodElapsedCallback+0x174>)
 8000e0c:	7813      	ldrb	r3, [r2, #0]
 8000e0e:	3b01      	subs	r3, #1
 8000e10:	7013      	strb	r3, [r2, #0]
 8000e12:	e7e9      	b.n	8000de8 <HAL_TIM_PeriodElapsedCallback+0xf0>
								puntero_musica = tonos_variables;
 8000e14:	4a11      	ldr	r2, [pc, #68]	; (8000e5c <HAL_TIM_PeriodElapsedCallback+0x164>)
 8000e16:	491c      	ldr	r1, [pc, #112]	; (8000e88 <HAL_TIM_PeriodElapsedCallback+0x190>)
 8000e18:	6011      	str	r1, [r2, #0]
								conteo_musica--;
 8000e1a:	4914      	ldr	r1, [pc, #80]	; (8000e6c <HAL_TIM_PeriodElapsedCallback+0x174>)
 8000e1c:	780a      	ldrb	r2, [r1, #0]
 8000e1e:	3a01      	subs	r2, #1
 8000e20:	700a      	strb	r2, [r1, #0]
 8000e22:	e799      	b.n	8000d58 <HAL_TIM_PeriodElapsedCallback+0x60>
								HAL_TIM_PWM_Stop(&htim2, TIM_CHANNEL_1);
 8000e24:	2100      	movs	r1, #0
 8000e26:	4819      	ldr	r0, [pc, #100]	; (8000e8c <HAL_TIM_PeriodElapsedCallback+0x194>)
 8000e28:	f004 f836 	bl	8004e98 <HAL_TIM_PWM_Stop>
								HAL_TIM_Base_Stop_IT(&htim3);
 8000e2c:	4818      	ldr	r0, [pc, #96]	; (8000e90 <HAL_TIM_PeriodElapsedCallback+0x198>)
 8000e2e:	f003 fce1 	bl	80047f4 <HAL_TIM_Base_Stop_IT>
								break;
 8000e32:	e76b      	b.n	8000d0c <HAL_TIM_PeriodElapsedCallback+0x14>
			 if(puntero_musica == puntero_final_disparo){
 8000e34:	4b09      	ldr	r3, [pc, #36]	; (8000e5c <HAL_TIM_PeriodElapsedCallback+0x164>)
 8000e36:	681a      	ldr	r2, [r3, #0]
 8000e38:	4b16      	ldr	r3, [pc, #88]	; (8000e94 <HAL_TIM_PeriodElapsedCallback+0x19c>)
 8000e3a:	681b      	ldr	r3, [r3, #0]
 8000e3c:	429a      	cmp	r2, r3
 8000e3e:	f47f af65 	bne.w	8000d0c <HAL_TIM_PeriodElapsedCallback+0x14>
					HAL_TIM_PWM_Stop(&htim2, TIM_CHANNEL_1);
 8000e42:	2100      	movs	r1, #0
 8000e44:	4811      	ldr	r0, [pc, #68]	; (8000e8c <HAL_TIM_PeriodElapsedCallback+0x194>)
 8000e46:	f004 f827 	bl	8004e98 <HAL_TIM_PWM_Stop>
					HAL_TIM_Base_Stop_IT(&htim3);
 8000e4a:	4811      	ldr	r0, [pc, #68]	; (8000e90 <HAL_TIM_PeriodElapsedCallback+0x198>)
 8000e4c:	f003 fcd2 	bl	80047f4 <HAL_TIM_Base_Stop_IT>
}
 8000e50:	e75c      	b.n	8000d0c <HAL_TIM_PeriodElapsedCallback+0x14>
 8000e52:	bf00      	nop
 8000e54:	40000800 	.word	0x40000800
 8000e58:	40000400 	.word	0x40000400
 8000e5c:	200008f8 	.word	0x200008f8
 8000e60:	200008e4 	.word	0x200008e4
 8000e64:	20000904 	.word	0x20000904
 8000e68:	20000294 	.word	0x20000294
 8000e6c:	20000744 	.word	0x20000744
 8000e70:	20000290 	.word	0x20000290
 8000e74:	200002a8 	.word	0x200002a8
 8000e78:	200002b8 	.word	0x200002b8
 8000e7c:	2000028c 	.word	0x2000028c
 8000e80:	20000298 	.word	0x20000298
 8000e84:	20000288 	.word	0x20000288
 8000e88:	200002c8 	.word	0x200002c8
 8000e8c:	20000854 	.word	0x20000854
 8000e90:	2000089c 	.word	0x2000089c
 8000e94:	20000284 	.word	0x20000284

08000e98 <getPuntajes>:

puntajes_t *getPuntajes(uint8_t indice){

	//puntajes_t *(puntajes_Ptr) = malloc(sizeof(puntajes_t));
	return &Puntajes[indice];
}
 8000e98:	4b01      	ldr	r3, [pc, #4]	; (8000ea0 <getPuntajes+0x8>)
 8000e9a:	eb03 00c0 	add.w	r0, r3, r0, lsl #3
 8000e9e:	4770      	bx	lr
 8000ea0:	20000908 	.word	0x20000908

08000ea4 <Read_all>:


	return ((dato_leido[0]<<1) + (dato_leido[1]>>7));
}

void Read_all(uint16_t address, uint16_t tamano, uint8_t *buffer){
 8000ea4:	b5f0      	push	{r4, r5, r6, r7, lr}
 8000ea6:	b083      	sub	sp, #12
 8000ea8:	4606      	mov	r6, r0
 8000eaa:	460d      	mov	r5, r1
 8000eac:	4614      	mov	r4, r2


	uint8_t dato_actual, dato_anterior;


	HAL_GPIO_WritePin(CHIP_SELECT_PORT, CHIP_SELECT_PIN, GPIO_PIN_SET);
 8000eae:	2201      	movs	r2, #1
 8000eb0:	2120      	movs	r1, #32
 8000eb2:	481c      	ldr	r0, [pc, #112]	; (8000f24 <Read_all+0x80>)
 8000eb4:	f002 f81c 	bl	8002ef0 <HAL_GPIO_WritePin>

	uint8_t comando[2] = { ((uint16_t)READ<<3) + (address>>8 & 0xFF), address & 0xFF};
 8000eb8:	0a33      	lsrs	r3, r6, #8
 8000eba:	3330      	adds	r3, #48	; 0x30
 8000ebc:	f88d 3004 	strb.w	r3, [sp, #4]
 8000ec0:	f88d 6005 	strb.w	r6, [sp, #5]
	HAL_SPI_Transmit(&hspi1, comando, 2, 100);
 8000ec4:	4e18      	ldr	r6, [pc, #96]	; (8000f28 <Read_all+0x84>)
 8000ec6:	2364      	movs	r3, #100	; 0x64
 8000ec8:	2202      	movs	r2, #2
 8000eca:	a901      	add	r1, sp, #4
 8000ecc:	4630      	mov	r0, r6
 8000ece:	f003 f915 	bl	80040fc <HAL_SPI_Transmit>

	//HAL_Delay(10);

	HAL_SPI_Receive(&hspi1, &dato_anterior, 1, HAL_MAX_DELAY);
 8000ed2:	f04f 33ff 	mov.w	r3, #4294967295
 8000ed6:	2201      	movs	r2, #1
 8000ed8:	f10d 0106 	add.w	r1, sp, #6
 8000edc:	4630      	mov	r0, r6
 8000ede:	f003 fb0f 	bl	8004500 <HAL_SPI_Receive>


	for(uint16_t i=0; i< tamano; i++){
 8000ee2:	b1bd      	cbz	r5, 8000f14 <Read_all+0x70>
 8000ee4:	4425      	add	r5, r4

		HAL_SPI_Receive(&hspi1, &dato_actual, 1, HAL_MAX_DELAY);
 8000ee6:	4637      	mov	r7, r6
 8000ee8:	f04f 36ff 	mov.w	r6, #4294967295
 8000eec:	4633      	mov	r3, r6
 8000eee:	2201      	movs	r2, #1
 8000ef0:	f10d 0107 	add.w	r1, sp, #7
 8000ef4:	4638      	mov	r0, r7
 8000ef6:	f003 fb03 	bl	8004500 <HAL_SPI_Receive>
		*buffer = (dato_anterior<<1) + (dato_actual>>7);
 8000efa:	f89d 2007 	ldrb.w	r2, [sp, #7]
 8000efe:	f89d 1006 	ldrb.w	r1, [sp, #6]
 8000f02:	09d3      	lsrs	r3, r2, #7
 8000f04:	eb03 0341 	add.w	r3, r3, r1, lsl #1
 8000f08:	f804 3b01 	strb.w	r3, [r4], #1
		buffer++;
		dato_anterior = dato_actual;
 8000f0c:	f88d 2006 	strb.w	r2, [sp, #6]
	for(uint16_t i=0; i< tamano; i++){
 8000f10:	42ac      	cmp	r4, r5
 8000f12:	d1eb      	bne.n	8000eec <Read_all+0x48>

	}


	HAL_GPIO_WritePin(CHIP_SELECT_PORT, CHIP_SELECT_PIN, GPIO_PIN_RESET);
 8000f14:	2200      	movs	r2, #0
 8000f16:	2120      	movs	r1, #32
 8000f18:	4802      	ldr	r0, [pc, #8]	; (8000f24 <Read_all+0x80>)
 8000f1a:	f001 ffe9 	bl	8002ef0 <HAL_GPIO_WritePin>

}
 8000f1e:	b003      	add	sp, #12
 8000f20:	bdf0      	pop	{r4, r5, r6, r7, pc}
 8000f22:	bf00      	nop
 8000f24:	40010c00 	.word	0x40010c00
 8000f28:	200007fc 	.word	0x200007fc

08000f2c <memoriaInit>:



void memoriaInit(){
 8000f2c:	e92d 4ff0 	stmdb	sp!, {r4, r5, r6, r7, r8, r9, sl, fp, lr}
 8000f30:	b08d      	sub	sp, #52	; 0x34
 8000f32:	2700      	movs	r7, #0


		char buff_nombre[7];
		strcpy(buff_nombre, "      ");
 8000f34:	4b62      	ldr	r3, [pc, #392]	; (80010c0 <memoriaInit+0x194>)
 8000f36:	e893 0003 	ldmia.w	r3, {r0, r1}
 8000f3a:	900a      	str	r0, [sp, #40]	; 0x28
 8000f3c:	f8ad 102c 	strh.w	r1, [sp, #44]	; 0x2c
 8000f40:	0c09      	lsrs	r1, r1, #16
 8000f42:	f88d 102e 	strb.w	r1, [sp, #46]	; 0x2e
		uint8_t puntaje_msb;

		uint8_t buffer[TAMANO_TOTAL_PUNTAJES];


		Read_all(address, TAMANO_TOTAL_PUNTAJES, buffer);
 8000f46:	466a      	mov	r2, sp
 8000f48:	2128      	movs	r1, #40	; 0x28
 8000f4a:	4638      	mov	r0, r7
 8000f4c:	f7ff ffaa 	bl	8000ea4 <Read_all>
 8000f50:	466e      	mov	r6, sp
 8000f52:	2401      	movs	r4, #1
 8000f54:	463d      	mov	r5, r7
		uint8_t permiso = true;
 8000f56:	46a4      	mov	ip, r4
		uint8_t j = 0;
 8000f58:	4638      	mov	r0, r7
				puntaje_lsb = buffer[i];

				switch(i){

				case 7:
					getPuntajes(0)->puntaje = (puntaje_msb<<8) + puntaje_lsb;
 8000f5a:	f8df 8168 	ldr.w	r8, [pc, #360]	; 80010c4 <memoriaInit+0x198>
						else if((i>=32 && i<38)){
							strcpy(getPuntajes(4)->nombre, buff_nombre);
						}

						j = 0;
						strcpy(buff_nombre, "      ");
 8000f5e:	f8df a160 	ldr.w	sl, [pc, #352]	; 80010c0 <memoriaInit+0x194>
							strcpy(getPuntajes(4)->nombre, buff_nombre);
 8000f62:	f108 0b20 	add.w	fp, r8, #32
 8000f66:	e006      	b.n	8000f76 <memoriaInit+0x4a>
				puntaje_msb = buffer[i];
 8000f68:	7837      	ldrb	r7, [r6, #0]
					}
				}
			}
			i++;

		}while(i != 40);
 8000f6a:	2c28      	cmp	r4, #40	; 0x28
 8000f6c:	d06f      	beq.n	800104e <memoriaInit+0x122>
 8000f6e:	3501      	adds	r5, #1
 8000f70:	3401      	adds	r4, #1
 8000f72:	b2e4      	uxtb	r4, r4
 8000f74:	3601      	adds	r6, #1
 8000f76:	b2eb      	uxtb	r3, r5
			if( (i==6) || (i==14) || (i==22) || (i==30) || (i==38) ){
 8000f78:	2b06      	cmp	r3, #6
 8000f7a:	d0f5      	beq.n	8000f68 <memoriaInit+0x3c>
 8000f7c:	2b07      	cmp	r3, #7
 8000f7e:	f000 8096 	beq.w	80010ae <memoriaInit+0x182>
 8000f82:	f1a3 020e 	sub.w	r2, r3, #14
 8000f86:	b2d2      	uxtb	r2, r2
 8000f88:	2a19      	cmp	r2, #25
 8000f8a:	d80a      	bhi.n	8000fa2 <memoriaInit+0x76>
 8000f8c:	f1a3 010e 	sub.w	r1, r3, #14
 8000f90:	b2c9      	uxtb	r1, r1
 8000f92:	2201      	movs	r2, #1
 8000f94:	408a      	lsls	r2, r1
 8000f96:	f012 3f02 	tst.w	r2, #33686018	; 0x2020202
 8000f9a:	d12e      	bne.n	8000ffa <memoriaInit+0xce>
 8000f9c:	f012 3f01 	tst.w	r2, #16843009	; 0x1010101
 8000fa0:	d1e2      	bne.n	8000f68 <memoriaInit+0x3c>
				if( (buff_nombre[j] != '\0') && permiso==true){
 8000fa2:	f100 0230 	add.w	r2, r0, #48	; 0x30
 8000fa6:	446a      	add	r2, sp
 8000fa8:	f812 2c08 	ldrb.w	r2, [r2, #-8]
 8000fac:	2a00      	cmp	r2, #0
 8000fae:	d0dc      	beq.n	8000f6a <memoriaInit+0x3e>
 8000fb0:	f1bc 0f01 	cmp.w	ip, #1
 8000fb4:	d1d9      	bne.n	8000f6a <memoriaInit+0x3e>
					buff_nombre[j]  = buffer[i];;
 8000fb6:	f896 9000 	ldrb.w	r9, [r6]
 8000fba:	f100 0230 	add.w	r2, r0, #48	; 0x30
 8000fbe:	eb0d 0102 	add.w	r1, sp, r2
 8000fc2:	f801 9c08 	strb.w	r9, [r1, #-8]
					if(buff_nombre[j] == '\0'){
 8000fc6:	f1b9 0f00 	cmp.w	r9, #0
 8000fca:	d169      	bne.n	80010a0 <memoriaInit+0x174>
						if((i>=0 && i<6)){
 8000fcc:	2b25      	cmp	r3, #37	; 0x25
 8000fce:	d845      	bhi.n	800105c <memoriaInit+0x130>
 8000fd0:	e8df f003 	tbb	[pc, r3]
 8000fd4:	40404040 	.word	0x40404040
 8000fd8:	44444040 	.word	0x44444040
 8000fdc:	4f4f4f4f 	.word	0x4f4f4f4f
 8000fe0:	44444f4f 	.word	0x44444f4f
 8000fe4:	55555555 	.word	0x55555555
 8000fe8:	44445555 	.word	0x44445555
 8000fec:	5b5b5b5b 	.word	0x5b5b5b5b
 8000ff0:	44445b5b 	.word	0x44445b5b
 8000ff4:	61616161 	.word	0x61616161
 8000ff8:	6161      	.short	0x6161
				puntaje_lsb = buffer[i];
 8000ffa:	7832      	ldrb	r2, [r6, #0]
				switch(i){
 8000ffc:	3b07      	subs	r3, #7
 8000ffe:	2b20      	cmp	r3, #32
 8001000:	d851      	bhi.n	80010a6 <memoriaInit+0x17a>
 8001002:	e8df f003 	tbb	[pc, r3]
 8001006:	5055      	.short	0x5055
 8001008:	50505050 	.word	0x50505050
 800100c:	50115050 	.word	0x50115050
 8001010:	50505050 	.word	0x50505050
 8001014:	50165050 	.word	0x50165050
 8001018:	50505050 	.word	0x50505050
 800101c:	501b5050 	.word	0x501b5050
 8001020:	50505050 	.word	0x50505050
 8001024:	5050      	.short	0x5050
 8001026:	20          	.byte	0x20
 8001027:	00          	.byte	0x00
					getPuntajes(1)->puntaje = (puntaje_msb<<8) + puntaje_lsb;
 8001028:	eb02 2207 	add.w	r2, r2, r7, lsl #8
 800102c:	f8a8 200e 	strh.w	r2, [r8, #14]
					break;
 8001030:	e042      	b.n	80010b8 <memoriaInit+0x18c>
					getPuntajes(2)->puntaje = (puntaje_msb<<8) + puntaje_lsb;
 8001032:	eb02 2207 	add.w	r2, r2, r7, lsl #8
 8001036:	f8a8 2016 	strh.w	r2, [r8, #22]
					break;
 800103a:	e03d      	b.n	80010b8 <memoriaInit+0x18c>
					getPuntajes(3)->puntaje = (puntaje_msb<<8) + puntaje_lsb;
 800103c:	eb02 2207 	add.w	r2, r2, r7, lsl #8
 8001040:	f8a8 201e 	strh.w	r2, [r8, #30]
					break;
 8001044:	e038      	b.n	80010b8 <memoriaInit+0x18c>
					getPuntajes(4)->puntaje = (puntaje_msb<<8) + puntaje_lsb;
 8001046:	eb02 2207 	add.w	r2, r2, r7, lsl #8
 800104a:	4b1e      	ldr	r3, [pc, #120]	; (80010c4 <memoriaInit+0x198>)
 800104c:	84da      	strh	r2, [r3, #38]	; 0x26


}
 800104e:	b00d      	add	sp, #52	; 0x34
 8001050:	e8bd 8ff0 	ldmia.w	sp!, {r4, r5, r6, r7, r8, r9, sl, fp, pc}
							strcpy(getPuntajes(0)->nombre, buff_nombre);
 8001054:	a90a      	add	r1, sp, #40	; 0x28
 8001056:	4640      	mov	r0, r8
 8001058:	f006 feed 	bl	8007e36 <strcpy>
						strcpy(buff_nombre, "      ");
 800105c:	e89a 0003 	ldmia.w	sl, {r0, r1}
 8001060:	900a      	str	r0, [sp, #40]	; 0x28
 8001062:	f8ad 102c 	strh.w	r1, [sp, #44]	; 0x2c
 8001066:	0c09      	lsrs	r1, r1, #16
 8001068:	f88d 102e 	strb.w	r1, [sp, #46]	; 0x2e
						permiso = false;
 800106c:	46cc      	mov	ip, r9
						j = 0;
 800106e:	4648      	mov	r0, r9
 8001070:	e77b      	b.n	8000f6a <memoriaInit+0x3e>
							strcpy(getPuntajes(1)->nombre, buff_nombre);
 8001072:	a90a      	add	r1, sp, #40	; 0x28
 8001074:	f108 0008 	add.w	r0, r8, #8
 8001078:	f006 fedd 	bl	8007e36 <strcpy>
 800107c:	e7ee      	b.n	800105c <memoriaInit+0x130>
							strcpy(getPuntajes(2)->nombre, buff_nombre);
 800107e:	a90a      	add	r1, sp, #40	; 0x28
 8001080:	f108 0010 	add.w	r0, r8, #16
 8001084:	f006 fed7 	bl	8007e36 <strcpy>
 8001088:	e7e8      	b.n	800105c <memoriaInit+0x130>
							strcpy(getPuntajes(3)->nombre, buff_nombre);
 800108a:	a90a      	add	r1, sp, #40	; 0x28
 800108c:	f108 0018 	add.w	r0, r8, #24
 8001090:	f006 fed1 	bl	8007e36 <strcpy>
 8001094:	e7e2      	b.n	800105c <memoriaInit+0x130>
							strcpy(getPuntajes(4)->nombre, buff_nombre);
 8001096:	a90a      	add	r1, sp, #40	; 0x28
 8001098:	4658      	mov	r0, fp
 800109a:	f006 fecc 	bl	8007e36 <strcpy>
 800109e:	e7dd      	b.n	800105c <memoriaInit+0x130>
						j++;
 80010a0:	3001      	adds	r0, #1
 80010a2:	b2c0      	uxtb	r0, r0
 80010a4:	e761      	b.n	8000f6a <memoriaInit+0x3e>
				switch(i){
 80010a6:	2700      	movs	r7, #0
 80010a8:	f04f 0c01 	mov.w	ip, #1
 80010ac:	e75d      	b.n	8000f6a <memoriaInit+0x3e>
				puntaje_lsb = buffer[i];
 80010ae:	7832      	ldrb	r2, [r6, #0]
					getPuntajes(0)->puntaje = (puntaje_msb<<8) + puntaje_lsb;
 80010b0:	eb02 2207 	add.w	r2, r2, r7, lsl #8
 80010b4:	f8a8 2006 	strh.w	r2, [r8, #6]
						j = 0;
 80010b8:	2700      	movs	r7, #0
 80010ba:	f04f 0c01 	mov.w	ip, #1
 80010be:	e756      	b.n	8000f6e <memoriaInit+0x42>
 80010c0:	08009408 	.word	0x08009408
 80010c4:	20000908 	.word	0x20000908

080010c8 <Ordenamiento_Puntajes>:
}


//Hay que corregir el ordenamiento de puntajes.

void Ordenamiento_Puntajes(){
 80010c8:	e92d 4ff0 	stmdb	sp!, {r4, r5, r6, r7, r8, r9, sl, fp, lr}
 80010cc:	b08f      	sub	sp, #60	; 0x3c
	uint8_t indice_subvector = 1;
	uint16_t auxiliar;


	//Copio los nombres y los puntajes porque voy a reescribir getPuntajes()
	for(uint8_t i=0;i<5;i++){
 80010ce:	f8df 90bc 	ldr.w	r9, [pc, #188]	; 800118c <Ordenamiento_Puntajes+0xc4>
 80010d2:	f10d 0a2c 	add.w	sl, sp, #44	; 0x2c
 80010d6:	ad03      	add	r5, sp, #12
 80010d8:	f109 0728 	add.w	r7, r9, #40	; 0x28
void Ordenamiento_Puntajes(){
 80010dc:	4656      	mov	r6, sl
 80010de:	464c      	mov	r4, r9

		vector[i] = getPuntajes(i)->puntaje;
 80010e0:	88e3      	ldrh	r3, [r4, #6]
 80010e2:	f826 3b02 	strh.w	r3, [r6], #2
		strcpy(buff_nombre[i], getPuntajes(i)->nombre);
 80010e6:	4621      	mov	r1, r4
 80010e8:	4628      	mov	r0, r5
 80010ea:	f006 fea4 	bl	8007e36 <strcpy>
	for(uint8_t i=0;i<5;i++){
 80010ee:	3408      	adds	r4, #8
 80010f0:	3506      	adds	r5, #6
 80010f2:	42bc      	cmp	r4, r7
 80010f4:	d1f4      	bne.n	80010e0 <Ordenamiento_Puntajes+0x18>
 80010f6:	2402      	movs	r4, #2
 80010f8:	2001      	movs	r0, #1
 80010fa:	e003      	b.n	8001104 <Ordenamiento_Puntajes+0x3c>
 80010fc:	3001      	adds	r0, #1
 80010fe:	b2c0      	uxtb	r0, r0
 8001100:	3401      	adds	r4, #1
 8001102:	b2e4      	uxtb	r4, r4
	}

	//Ordenamiento de mayor a menor xd.
	do{

			for(uint8_t j=indice_subvector; j > 0; j--){
 8001104:	2800      	cmp	r0, #0
 8001106:	d0f9      	beq.n	80010fc <Ordenamiento_Puntajes+0x34>
 8001108:	ab0b      	add	r3, sp, #44	; 0x2c
 800110a:	eb03 0340 	add.w	r3, r3, r0, lsl #1
 800110e:	4605      	mov	r5, r0

					if(vector[j] > vector[j-1]){
 8001110:	8819      	ldrh	r1, [r3, #0]
 8001112:	f833 2d02 	ldrh.w	r2, [r3, #-2]!
 8001116:	4291      	cmp	r1, r2

						auxiliar = vector[j-1];
						vector[j-1] = vector[j];
 8001118:	bf84      	itt	hi
 800111a:	8019      	strhhi	r1, [r3, #0]
						vector[j] = auxiliar;
 800111c:	805a      	strhhi	r2, [r3, #2]
			for(uint8_t j=indice_subvector; j > 0; j--){
 800111e:	3d01      	subs	r5, #1
 8001120:	f015 05ff 	ands.w	r5, r5, #255	; 0xff
 8001124:	d1f4      	bne.n	8001110 <Ordenamiento_Puntajes+0x48>

			}

		indice_subvector++;

	}while(indice_subvector != 5);
 8001126:	2c05      	cmp	r4, #5
 8001128:	d1e8      	bne.n	80010fc <Ordenamiento_Puntajes+0x34>
 800112a:	f10a 0b0a 	add.w	fp, sl, #10
		finalizado = true;

			uint8_t j=0;
			do{

				if(getPuntajes(j)->puntaje == vector[k]){
 800112e:	4e17      	ldr	r6, [pc, #92]	; (800118c <Ordenamiento_Puntajes+0xc4>)
 8001130:	f83a 8b02 	ldrh.w	r8, [sl], #2
 8001134:	88f3      	ldrh	r3, [r6, #6]
 8001136:	4543      	cmp	r3, r8
 8001138:	d024      	beq.n	8001184 <Ordenamiento_Puntajes+0xbc>
			uint8_t j=0;
 800113a:	462c      	mov	r4, r5

					getPuntajes(j)->puntaje = getPuntajes(k)->puntaje;
					getPuntajes(k)->puntaje = vector[k];
					finalizado = false;
				}
				j++;
 800113c:	3401      	adds	r4, #1
 800113e:	b2e4      	uxtb	r4, r4
	return &Puntajes[indice];
 8001140:	4627      	mov	r7, r4
				if(getPuntajes(j)->puntaje == vector[k]){
 8001142:	eb06 03c4 	add.w	r3, r6, r4, lsl #3
 8001146:	88db      	ldrh	r3, [r3, #6]
 8001148:	4543      	cmp	r3, r8
 800114a:	d1f7      	bne.n	800113c <Ordenamiento_Puntajes+0x74>
	return &Puntajes[indice];
 800114c:	eb06 04c4 	add.w	r4, r6, r4, lsl #3
					strcpy(buff_aux, getPuntajes(k)->nombre);
 8001150:	4649      	mov	r1, r9
 8001152:	a801      	add	r0, sp, #4
 8001154:	f006 fe6f 	bl	8007e36 <strcpy>
					strcpy(getPuntajes(k)->nombre, getPuntajes(j)->nombre);
 8001158:	4621      	mov	r1, r4
 800115a:	4648      	mov	r0, r9
 800115c:	f006 fe6b 	bl	8007e36 <strcpy>
					strcpy(getPuntajes(j)->nombre, buff_aux);
 8001160:	a901      	add	r1, sp, #4
 8001162:	4620      	mov	r0, r4
 8001164:	f006 fe67 	bl	8007e36 <strcpy>
					getPuntajes(j)->puntaje = getPuntajes(k)->puntaje;
 8001168:	f8b9 3006 	ldrh.w	r3, [r9, #6]
 800116c:	eb06 07c7 	add.w	r7, r6, r7, lsl #3
 8001170:	80fb      	strh	r3, [r7, #6]
					getPuntajes(k)->puntaje = vector[k];
 8001172:	f8a9 8006 	strh.w	r8, [r9, #6]
	for(uint8_t k=0;k<5;k++){
 8001176:	f109 0908 	add.w	r9, r9, #8
 800117a:	45da      	cmp	sl, fp
 800117c:	d1d8      	bne.n	8001130 <Ordenamiento_Puntajes+0x68>
	}




}
 800117e:	b00f      	add	sp, #60	; 0x3c
 8001180:	e8bd 8ff0 	ldmia.w	sp!, {r4, r5, r6, r7, r8, r9, sl, fp, pc}
	return &Puntajes[indice];
 8001184:	4634      	mov	r4, r6
 8001186:	2700      	movs	r7, #0
 8001188:	e7e2      	b.n	8001150 <Ordenamiento_Puntajes+0x88>
 800118a:	bf00      	nop
 800118c:	20000908 	.word	0x20000908

08001190 <menuInit>:

	return &menu;
}


void menuInit(){
 8001190:	b510      	push	{r4, lr}

	//Inicializacion de la pantalla.
	SSD1306_Init ();
 8001192:	f000 ff1d 	bl	8001fd0 <SSD1306_Init>
	SSD1306_Clear();
 8001196:	f000 ff13 	bl	8001fc0 <SSD1306_Clear>
	SSD1306_UpdateScreen();
 800119a:	f000 feeb 	bl	8001f74 <SSD1306_UpdateScreen>

	//Se inicializan las posiciones iniciales del player y de los aliens.
	playerInit();
 800119e:	f7fe ffef 	bl	8000180 <playerInit>
	InvaderInit();
 80011a2:	f7ff f82b 	bl	80001fc <InvaderInit>
	disparoInit();
 80011a6:	f7ff f935 	bl	8000414 <disparoInit>

	//Se inicializan las dificultades
	getDificultad()->velocidad_horizontal = 8;
 80011aa:	f7fe ffdd 	bl	8000168 <getDificultad>
 80011ae:	2308      	movs	r3, #8
 80011b0:	7003      	strb	r3, [r0, #0]
	getDificultad()->velocidad_bajada = 1;
 80011b2:	f7fe ffd9 	bl	8000168 <getDificultad>
 80011b6:	2401      	movs	r4, #1
 80011b8:	7044      	strb	r4, [r0, #1]
	getDificultad()->velocidad_disparo_aliens = 3;
 80011ba:	f7fe ffd5 	bl	8000168 <getDificultad>
 80011be:	2303      	movs	r3, #3
 80011c0:	7083      	strb	r3, [r0, #2]


	//Se inicializa el cursor de la pantalla principal.
	//getMenu()->menuActual =  guardar_nombre;
	//getMenu()->menuActual = menu_principal;
	getMenu()->menuActual = juego;
 80011c2:	4b06      	ldr	r3, [pc, #24]	; (80011dc <menuInit+0x4c>)
 80011c4:	701c      	strb	r4, [r3, #0]
	getMenu()->posicion_MenuPrincipal = POSICION_CURSOR_JUGAR;
 80011c6:	2226      	movs	r2, #38	; 0x26
 80011c8:	705a      	strb	r2, [r3, #1]


	//Se inicializa el cursor de la pantalla Guardado de nombre
	getMenu()->GuardarNombre.posicion_x = GUARDADO_POSICION_X_INICIAL;
 80011ca:	2209      	movs	r2, #9
 80011cc:	711a      	strb	r2, [r3, #4]
	getMenu()->GuardarNombre.posicion_y = GUARDADO_POSICION_Y1;
 80011ce:	221b      	movs	r2, #27
 80011d0:	715a      	strb	r2, [r3, #5]
	getMenu()->GuardarNombre.indice = 0;
 80011d2:	2200      	movs	r2, #0
 80011d4:	731a      	strb	r2, [r3, #12]



	//Para las variables de juego
	getMenu()->juego.flag = 0;
 80011d6:	f883 2020 	strb.w	r2, [r3, #32]


}
 80011da:	bd10      	pop	{r4, pc}
 80011dc:	20000930 	.word	0x20000930

080011e0 <menuReset>:
	}

}


void menuReset(){
 80011e0:	b508      	push	{r3, lr}

	//Se inicializan las posiciones iniciales del player y de los aliens.
	playerInit();
 80011e2:	f7fe ffcd 	bl	8000180 <playerInit>
	InvaderInit();
 80011e6:	f7ff f809 	bl	80001fc <InvaderInit>
	disparoInit();
 80011ea:	f7ff f913 	bl	8000414 <disparoInit>

	//Se reinician las dificultades al nivel 1
	getDificultad()->velocidad_horizontal = 8;
 80011ee:	f7fe ffbb 	bl	8000168 <getDificultad>
 80011f2:	2308      	movs	r3, #8
 80011f4:	7003      	strb	r3, [r0, #0]
	getDificultad()->velocidad_bajada = 1;
 80011f6:	f7fe ffb7 	bl	8000168 <getDificultad>
 80011fa:	2301      	movs	r3, #1
 80011fc:	7043      	strb	r3, [r0, #1]
	getDificultad()->velocidad_disparo_aliens = 3;
 80011fe:	f7fe ffb3 	bl	8000168 <getDificultad>
 8001202:	2303      	movs	r3, #3
 8001204:	7083      	strb	r3, [r0, #2]


	//Para las variables de juego
	getMenu()->juego.flag = 0;
 8001206:	4b03      	ldr	r3, [pc, #12]	; (8001214 <menuReset+0x34>)
 8001208:	2200      	movs	r2, #0
 800120a:	f883 2020 	strb.w	r2, [r3, #32]

	//Se inicializa el cursor de la pantalla principal.
	getMenu()->posicion_MenuPrincipal = POSICION_CURSOR_JUGAR;
 800120e:	2226      	movs	r2, #38	; 0x26
 8001210:	705a      	strb	r2, [r3, #1]

}
 8001212:	bd08      	pop	{r3, pc}
 8001214:	20000930 	.word	0x20000930

08001218 <GuardarNombreReset>:


void GuardarNombreReset(){

	//Se inicializa el cursor de la pantalla Guardado de nombre
	getMenu()->GuardarNombre.posicion_x = GUARDADO_POSICION_X_INICIAL;
 8001218:	4b06      	ldr	r3, [pc, #24]	; (8001234 <GuardarNombreReset+0x1c>)
 800121a:	2209      	movs	r2, #9
 800121c:	711a      	strb	r2, [r3, #4]
	getMenu()->GuardarNombre.posicion_y = GUARDADO_POSICION_Y1;
 800121e:	221b      	movs	r2, #27
 8001220:	715a      	strb	r2, [r3, #5]
	getMenu()->GuardarNombre.indice = 0;
 8001222:	2200      	movs	r2, #0
 8001224:	731a      	strb	r2, [r3, #12]
	strcpy(getMenu()->GuardarNombre.nombre,"     ");
 8001226:	4a04      	ldr	r2, [pc, #16]	; (8001238 <GuardarNombreReset+0x20>)
 8001228:	6810      	ldr	r0, [r2, #0]
 800122a:	f8c3 0006 	str.w	r0, [r3, #6]
 800122e:	8892      	ldrh	r2, [r2, #4]
 8001230:	815a      	strh	r2, [r3, #10]

}
 8001232:	4770      	bx	lr
 8001234:	20000930 	.word	0x20000930
 8001238:	08009410 	.word	0x08009410

0800123c <menuActualizar>:
void menuActualizar(uint8_t x, uint8_t y, uint8_t boton){
 800123c:	e92d 4ff0 	stmdb	sp!, {r4, r5, r6, r7, r8, r9, sl, fp, lr}
 8001240:	b08d      	sub	sp, #52	; 0x34
 8001242:	9003      	str	r0, [sp, #12]
 8001244:	460d      	mov	r5, r1
 8001246:	4616      	mov	r6, r2
	switch(getMenu()->menuActual){
 8001248:	4b92      	ldr	r3, [pc, #584]	; (8001494 <menuActualizar+0x258>)
 800124a:	781b      	ldrb	r3, [r3, #0]
 800124c:	2b05      	cmp	r3, #5
 800124e:	f200 81e0 	bhi.w	8001612 <menuActualizar+0x3d6>
 8001252:	e8df f013 	tbh	[pc, r3, lsl #1]
 8001256:	0006      	.short	0x0006
 8001258:	00b00046 	.word	0x00b00046
 800125c:	013100d2 	.word	0x013100d2
 8001260:	02f1      	.short	0x02f1
		SSD1306_DrawBitmap(35, 0, SpaceInvaders, 64, 32, 1);
 8001262:	2401      	movs	r4, #1
 8001264:	9401      	str	r4, [sp, #4]
 8001266:	2320      	movs	r3, #32
 8001268:	9300      	str	r3, [sp, #0]
 800126a:	2340      	movs	r3, #64	; 0x40
 800126c:	4a8a      	ldr	r2, [pc, #552]	; (8001498 <menuActualizar+0x25c>)
 800126e:	2100      	movs	r1, #0
 8001270:	2023      	movs	r0, #35	; 0x23
 8001272:	f000 fb7f 	bl	8001974 <SSD1306_DrawBitmap>
		SSD1306_GotoXY(45, 35);
 8001276:	2123      	movs	r1, #35	; 0x23
 8001278:	202d      	movs	r0, #45	; 0x2d
 800127a:	f000 fbc7 	bl	8001a0c <SSD1306_GotoXY>
		SSD1306_Puts("JUGAR", &Font_7x10, 1);
 800127e:	4f87      	ldr	r7, [pc, #540]	; (800149c <menuActualizar+0x260>)
 8001280:	4622      	mov	r2, r4
 8001282:	4639      	mov	r1, r7
 8001284:	4886      	ldr	r0, [pc, #536]	; (80014a0 <menuActualizar+0x264>)
 8001286:	f000 fc13 	bl	8001ab0 <SSD1306_Puts>
		SSD1306_GotoXY(45, 45);
 800128a:	212d      	movs	r1, #45	; 0x2d
 800128c:	4608      	mov	r0, r1
 800128e:	f000 fbbd 	bl	8001a0c <SSD1306_GotoXY>
		SSD1306_Puts("PUNTAJES", &Font_7x10, 1);
 8001292:	4622      	mov	r2, r4
 8001294:	4639      	mov	r1, r7
 8001296:	4883      	ldr	r0, [pc, #524]	; (80014a4 <menuActualizar+0x268>)
 8001298:	f000 fc0a 	bl	8001ab0 <SSD1306_Puts>
		if(y == arriba){
 800129c:	b9bd      	cbnz	r5, 80012ce <menuActualizar+0x92>
			getMenu()->posicion_MenuPrincipal = POSICION_CURSOR_JUGAR;
 800129e:	4b7d      	ldr	r3, [pc, #500]	; (8001494 <menuActualizar+0x258>)
 80012a0:	2226      	movs	r2, #38	; 0x26
 80012a2:	705a      	strb	r2, [r3, #1]
		SSD1306_DrawCircle(POSICION_CURSOR_X, getMenu()->posicion_MenuPrincipal, 3, 1);
 80012a4:	2301      	movs	r3, #1
 80012a6:	2203      	movs	r2, #3
 80012a8:	497a      	ldr	r1, [pc, #488]	; (8001494 <menuActualizar+0x258>)
 80012aa:	7849      	ldrb	r1, [r1, #1]
 80012ac:	2027      	movs	r0, #39	; 0x27
 80012ae:	f000 fcff 	bl	8001cb0 <SSD1306_DrawCircle>
		switch(boton){
 80012b2:	2e01      	cmp	r6, #1
 80012b4:	f040 81ad 	bne.w	8001612 <menuActualizar+0x3d6>
			if(getMenu()->posicion_MenuPrincipal == POSICION_CURSOR_JUGAR){
 80012b8:	4b76      	ldr	r3, [pc, #472]	; (8001494 <menuActualizar+0x258>)
 80012ba:	785b      	ldrb	r3, [r3, #1]
 80012bc:	2b26      	cmp	r3, #38	; 0x26
 80012be:	d00c      	beq.n	80012da <menuActualizar+0x9e>
			else if(getMenu()->posicion_MenuPrincipal == POSICION_CURSOR_PUNTAJES){
 80012c0:	2b30      	cmp	r3, #48	; 0x30
 80012c2:	f040 81a6 	bne.w	8001612 <menuActualizar+0x3d6>
			    getMenu()->menuActual = puntajes;
 80012c6:	4b73      	ldr	r3, [pc, #460]	; (8001494 <menuActualizar+0x258>)
 80012c8:	2203      	movs	r2, #3
 80012ca:	701a      	strb	r2, [r3, #0]
 80012cc:	e1a1      	b.n	8001612 <menuActualizar+0x3d6>
		else if(y == abajo){
 80012ce:	2d01      	cmp	r5, #1
 80012d0:	d1e8      	bne.n	80012a4 <menuActualizar+0x68>
			getMenu()->posicion_MenuPrincipal = POSICION_CURSOR_PUNTAJES;
 80012d2:	4b70      	ldr	r3, [pc, #448]	; (8001494 <menuActualizar+0x258>)
 80012d4:	2230      	movs	r2, #48	; 0x30
 80012d6:	705a      	strb	r2, [r3, #1]
 80012d8:	e7e4      	b.n	80012a4 <menuActualizar+0x68>
				getMenu()->menuActual = juego;
 80012da:	4b6e      	ldr	r3, [pc, #440]	; (8001494 <menuActualizar+0x258>)
 80012dc:	2201      	movs	r2, #1
 80012de:	701a      	strb	r2, [r3, #0]
 80012e0:	e197      	b.n	8001612 <menuActualizar+0x3d6>
		plotPlayer(x, getPlayer());
 80012e2:	f7fe ff35 	bl	8000150 <getPlayer>
 80012e6:	4601      	mov	r1, r0
 80012e8:	9803      	ldr	r0, [sp, #12]
 80012ea:	f7fe ff51 	bl	8000190 <plotPlayer>
		plotAliens();
 80012ee:	f7fe ffa5 	bl	800023c <plotAliens>
		disparoAliens();
 80012f2:	f7ff f937 	bl	8000564 <disparoAliens>
		if( getDisparoAliens()->numero_disparos == 0){
 80012f6:	f7fe ff33 	bl	8000160 <getDisparoAliens>
 80012fa:	78c3      	ldrb	r3, [r0, #3]
 80012fc:	b913      	cbnz	r3, 8001304 <menuActualizar+0xc8>
			getMenu()->menuActual = progresion_niveles;
 80012fe:	4b65      	ldr	r3, [pc, #404]	; (8001494 <menuActualizar+0x258>)
 8001300:	2202      	movs	r2, #2
 8001302:	701a      	strb	r2, [r3, #0]
		TickType_t Tiempo_Actual = xTaskGetTickCount();
 8001304:	f005 fae4 	bl	80068d0 <xTaskGetTickCount>
 8001308:	4604      	mov	r4, r0
		if(getMenu()->juego.flag == 0){
 800130a:	4b62      	ldr	r3, [pc, #392]	; (8001494 <menuActualizar+0x258>)
 800130c:	f893 3020 	ldrb.w	r3, [r3, #32]
 8001310:	b16b      	cbz	r3, 800132e <menuActualizar+0xf2>
		if(Tiempo_Actual - getMenu()->juego.retrasoJuego_GameOver > pdMS_TO_TICKS(500)){
 8001312:	4b60      	ldr	r3, [pc, #384]	; (8001494 <menuActualizar+0x258>)
 8001314:	69db      	ldr	r3, [r3, #28]
 8001316:	1ae4      	subs	r4, r4, r3
 8001318:	f5b4 7ffa 	cmp.w	r4, #500	; 0x1f4
 800131c:	d902      	bls.n	8001324 <menuActualizar+0xe8>
			getMenu()->menuActual = game_over;
 800131e:	4b5d      	ldr	r3, [pc, #372]	; (8001494 <menuActualizar+0x258>)
 8001320:	2205      	movs	r2, #5
 8001322:	701a      	strb	r2, [r3, #0]
		if(boton == true && getPlayer()->vivo == true ){
 8001324:	2e01      	cmp	r6, #1
 8001326:	d023      	beq.n	8001370 <menuActualizar+0x134>
		disparar();
 8001328:	f7ff f884 	bl	8000434 <disparar>
		break;
 800132c:	e171      	b.n	8001612 <menuActualizar+0x3d6>
			if(getPlayer()->vivo == false){
 800132e:	f7fe ff0f 	bl	8000150 <getPlayer>
 8001332:	7883      	ldrb	r3, [r0, #2]
 8001334:	b113      	cbz	r3, 800133c <menuActualizar+0x100>
				getMenu()->juego.retrasoJuego_GameOver = Tiempo_Actual;
 8001336:	4b57      	ldr	r3, [pc, #348]	; (8001494 <menuActualizar+0x258>)
 8001338:	61dc      	str	r4, [r3, #28]
		if(Tiempo_Actual - getMenu()->juego.retrasoJuego_GameOver > pdMS_TO_TICKS(500)){
 800133a:	e7f3      	b.n	8001324 <menuActualizar+0xe8>
				getMenu()->juego.retrasoJuego_GameOver = xTaskGetTickCount();
 800133c:	f005 fac8 	bl	80068d0 <xTaskGetTickCount>
 8001340:	4b54      	ldr	r3, [pc, #336]	; (8001494 <menuActualizar+0x258>)
 8001342:	61d8      	str	r0, [r3, #28]
				getMenu()->juego.flag = 1;
 8001344:	2201      	movs	r2, #1
 8001346:	f883 2020 	strb.w	r2, [r3, #32]
				musica_t musica_ = gameover_;
 800134a:	2302      	movs	r3, #2
 800134c:	f88d 3024 	strb.w	r3, [sp, #36]	; 0x24
				osStatus_t res = osMessageQueuePut(queueSonidoMenuHandle, &musica_, 0, 0);
 8001350:	2300      	movs	r3, #0
 8001352:	461a      	mov	r2, r3
 8001354:	a909      	add	r1, sp, #36	; 0x24
 8001356:	4854      	ldr	r0, [pc, #336]	; (80014a8 <menuActualizar+0x26c>)
 8001358:	6800      	ldr	r0, [r0, #0]
 800135a:	f004 f915 	bl	8005588 <osMessageQueuePut>
				if(res != osOK) HAL_GPIO_WritePin(GPIOC, GPIO_PIN_13, GPIO_PIN_RESET);
 800135e:	2800      	cmp	r0, #0
 8001360:	d0d7      	beq.n	8001312 <menuActualizar+0xd6>
 8001362:	2200      	movs	r2, #0
 8001364:	f44f 5100 	mov.w	r1, #8192	; 0x2000
 8001368:	4850      	ldr	r0, [pc, #320]	; (80014ac <menuActualizar+0x270>)
 800136a:	f001 fdc1 	bl	8002ef0 <HAL_GPIO_WritePin>
 800136e:	e7d0      	b.n	8001312 <menuActualizar+0xd6>
		if(boton == true && getPlayer()->vivo == true ){
 8001370:	f7fe feee 	bl	8000150 <getPlayer>
 8001374:	7883      	ldrb	r3, [r0, #2]
 8001376:	2b01      	cmp	r3, #1
 8001378:	d1d6      	bne.n	8001328 <menuActualizar+0xec>
				getDisparo()->numero_disparos = getDisparo()->numero_disparos + 1;
 800137a:	f7fe feed 	bl	8000158 <getDisparo>
 800137e:	78c4      	ldrb	r4, [r0, #3]
 8001380:	f7fe feea 	bl	8000158 <getDisparo>
 8001384:	3401      	adds	r4, #1
 8001386:	70c4      	strb	r4, [r0, #3]
				if(getDisparo()->numero_disparos == 1){
 8001388:	f7fe fee6 	bl	8000158 <getDisparo>
 800138c:	78c3      	ldrb	r3, [r0, #3]
 800138e:	2b01      	cmp	r3, #1
 8001390:	d1ca      	bne.n	8001328 <menuActualizar+0xec>
					musica_t musica_ = disparo_;
 8001392:	2200      	movs	r2, #0
 8001394:	f88d 2024 	strb.w	r2, [sp, #36]	; 0x24
					osStatus_t res = osMessageQueuePut(queueSonidoMenuHandle, &musica_, 0, 0);
 8001398:	4613      	mov	r3, r2
 800139a:	a909      	add	r1, sp, #36	; 0x24
 800139c:	4842      	ldr	r0, [pc, #264]	; (80014a8 <menuActualizar+0x26c>)
 800139e:	6800      	ldr	r0, [r0, #0]
 80013a0:	f004 f8f2 	bl	8005588 <osMessageQueuePut>
					if(res != osOK) HAL_GPIO_WritePin(GPIOC, GPIO_PIN_13, GPIO_PIN_RESET);
 80013a4:	2800      	cmp	r0, #0
 80013a6:	d0bf      	beq.n	8001328 <menuActualizar+0xec>
 80013a8:	2200      	movs	r2, #0
 80013aa:	f44f 5100 	mov.w	r1, #8192	; 0x2000
 80013ae:	483f      	ldr	r0, [pc, #252]	; (80014ac <menuActualizar+0x270>)
 80013b0:	f001 fd9e 	bl	8002ef0 <HAL_GPIO_WritePin>
 80013b4:	e7b8      	b.n	8001328 <menuActualizar+0xec>
		SSD1306_GotoXY(15, 15);
 80013b6:	210f      	movs	r1, #15
 80013b8:	4608      	mov	r0, r1
 80013ba:	f000 fb27 	bl	8001a0c <SSD1306_GotoXY>
		SSD1306_Puts("PUNTAJE ACTUAL", &Font_7x10, 1);
 80013be:	2201      	movs	r2, #1
 80013c0:	4936      	ldr	r1, [pc, #216]	; (800149c <menuActualizar+0x260>)
 80013c2:	483b      	ldr	r0, [pc, #236]	; (80014b0 <menuActualizar+0x274>)
 80013c4:	f000 fb74 	bl	8001ab0 <SSD1306_Puts>
		getDificultad()->velocidad_horizontal = 6;
 80013c8:	f7fe fece 	bl	8000168 <getDificultad>
 80013cc:	2306      	movs	r3, #6
 80013ce:	7003      	strb	r3, [r0, #0]
		getDificultad()->velocidad_bajada = 2;
 80013d0:	f7fe feca 	bl	8000168 <getDificultad>
 80013d4:	2302      	movs	r3, #2
 80013d6:	7043      	strb	r3, [r0, #1]
		getDificultad()->velocidad_disparo_aliens = 3;
 80013d8:	f7fe fec6 	bl	8000168 <getDificultad>
 80013dc:	2303      	movs	r3, #3
 80013de:	7083      	strb	r3, [r0, #2]
		playerInit();
 80013e0:	f7fe fece 	bl	8000180 <playerInit>
		InvaderInit();
 80013e4:	f7fe ff0a 	bl	80001fc <InvaderInit>
		disparoInit();
 80013e8:	f7ff f814 	bl	8000414 <disparoInit>
		if(y == arriba){
 80013ec:	2d00      	cmp	r5, #0
 80013ee:	f040 8110 	bne.w	8001612 <menuActualizar+0x3d6>
			getMenu()->menuActual = juego;
 80013f2:	4b28      	ldr	r3, [pc, #160]	; (8001494 <menuActualizar+0x258>)
 80013f4:	2201      	movs	r2, #1
 80013f6:	701a      	strb	r2, [r3, #0]
 80013f8:	e10b      	b.n	8001612 <menuActualizar+0x3d6>
		SSD1306_GotoXY(35, 0);
 80013fa:	2100      	movs	r1, #0
 80013fc:	2023      	movs	r0, #35	; 0x23
 80013fe:	f000 fb05 	bl	8001a0c <SSD1306_GotoXY>
		SSD1306_Puts("PUNTAJES", &Font_7x10, 1);
 8001402:	2201      	movs	r2, #1
 8001404:	4925      	ldr	r1, [pc, #148]	; (800149c <menuActualizar+0x260>)
 8001406:	4827      	ldr	r0, [pc, #156]	; (80014a4 <menuActualizar+0x268>)
 8001408:	f000 fb52 	bl	8001ab0 <SSD1306_Puts>
		osMutexAcquire(mutexPuntajesHandle, osWaitForever);
 800140c:	f04f 31ff 	mov.w	r1, #4294967295
 8001410:	4b28      	ldr	r3, [pc, #160]	; (80014b4 <menuActualizar+0x278>)
 8001412:	6818      	ldr	r0, [r3, #0]
 8001414:	f003 ff6e 	bl	80052f4 <osMutexAcquire>
 8001418:	240d      	movs	r4, #13
 800141a:	2600      	movs	r6, #0
			SSD1306_GotoXY(15, posicion);
 800141c:	f04f 090f 	mov.w	r9, #15
			SSD1306_Puts(getPuntajes(j)->nombre, &Font_7x10, 1);
 8001420:	f8df 8078 	ldr.w	r8, [pc, #120]	; 800149c <menuActualizar+0x260>
 8001424:	2701      	movs	r7, #1
			SSD1306_GotoXY(15, posicion);
 8001426:	4621      	mov	r1, r4
 8001428:	4648      	mov	r0, r9
 800142a:	f000 faef 	bl	8001a0c <SSD1306_GotoXY>
			SSD1306_Puts(getPuntajes(j)->nombre, &Font_7x10, 1);
 800142e:	b2f0      	uxtb	r0, r6
 8001430:	f7ff fd32 	bl	8000e98 <getPuntajes>
 8001434:	463a      	mov	r2, r7
 8001436:	4641      	mov	r1, r8
 8001438:	f000 fb3a 	bl	8001ab0 <SSD1306_Puts>
		for(uint8_t j=0; j<5;j++){
 800143c:	3601      	adds	r6, #1
 800143e:	340a      	adds	r4, #10
 8001440:	b2a4      	uxth	r4, r4
 8001442:	2e05      	cmp	r6, #5
 8001444:	d1ef      	bne.n	8001426 <menuActualizar+0x1ea>
 8001446:	240d      	movs	r4, #13
 8001448:	2600      	movs	r6, #0
			SSD1306_GotoXY(90, posicion);
 800144a:	f04f 085a 	mov.w	r8, #90	; 0x5a
			SSD1306_Puts((char *)buffer, &Font_7x10, 1);
 800144e:	4f13      	ldr	r7, [pc, #76]	; (800149c <menuActualizar+0x260>)
			SSD1306_GotoXY(90, posicion);
 8001450:	4621      	mov	r1, r4
 8001452:	4640      	mov	r0, r8
 8001454:	f000 fada 	bl	8001a0c <SSD1306_GotoXY>
			itoa(getPuntajes(j)->puntaje,(char*)buffer,10);
 8001458:	b2f0      	uxtb	r0, r6
 800145a:	f7ff fd1d 	bl	8000e98 <getPuntajes>
 800145e:	220a      	movs	r2, #10
 8001460:	a909      	add	r1, sp, #36	; 0x24
 8001462:	88c0      	ldrh	r0, [r0, #6]
 8001464:	f006 fae4 	bl	8007a30 <itoa>
			SSD1306_Puts((char *)buffer, &Font_7x10, 1);
 8001468:	2201      	movs	r2, #1
 800146a:	4639      	mov	r1, r7
 800146c:	a809      	add	r0, sp, #36	; 0x24
 800146e:	f000 fb1f 	bl	8001ab0 <SSD1306_Puts>
		for(uint8_t j=0; j<5;j++){
 8001472:	3601      	adds	r6, #1
 8001474:	340a      	adds	r4, #10
 8001476:	b2a4      	uxth	r4, r4
 8001478:	2e05      	cmp	r6, #5
 800147a:	d1e9      	bne.n	8001450 <menuActualizar+0x214>
		osMutexRelease(mutexPuntajesHandle);
 800147c:	4b0d      	ldr	r3, [pc, #52]	; (80014b4 <menuActualizar+0x278>)
 800147e:	6818      	ldr	r0, [r3, #0]
 8001480:	f003 ff7a 	bl	8005378 <osMutexRelease>
		switch(y){
 8001484:	2d00      	cmp	r5, #0
 8001486:	f040 80c4 	bne.w	8001612 <menuActualizar+0x3d6>
				getMenu()->menuActual = menu_principal;
 800148a:	4b02      	ldr	r3, [pc, #8]	; (8001494 <menuActualizar+0x258>)
 800148c:	2200      	movs	r2, #0
 800148e:	701a      	strb	r2, [r3, #0]
			break;
 8001490:	e0bf      	b.n	8001612 <menuActualizar+0x3d6>
 8001492:	bf00      	nop
 8001494:	20000930 	.word	0x20000930
 8001498:	0800945c 	.word	0x0800945c
 800149c:	20000000 	.word	0x20000000
 80014a0:	08009418 	.word	0x08009418
 80014a4:	08009420 	.word	0x08009420
 80014a8:	20000900 	.word	0x20000900
 80014ac:	40011000 	.word	0x40011000
 80014b0:	0800942c 	.word	0x0800942c
 80014b4:	200008e8 	.word	0x200008e8
		char buff_qwerty[] = "qwertyuiop";
 80014b8:	4ab0      	ldr	r2, [pc, #704]	; (800177c <menuActualizar+0x540>)
 80014ba:	ab06      	add	r3, sp, #24
 80014bc:	ca07      	ldmia	r2, {r0, r1, r2}
 80014be:	c303      	stmia	r3!, {r0, r1}
 80014c0:	f823 2b02 	strh.w	r2, [r3], #2
 80014c4:	0c12      	lsrs	r2, r2, #16
 80014c6:	701a      	strb	r2, [r3, #0]
		char buff_asdf[] = "asdfghjkl@";
 80014c8:	4aad      	ldr	r2, [pc, #692]	; (8001780 <menuActualizar+0x544>)
 80014ca:	ab09      	add	r3, sp, #36	; 0x24
 80014cc:	ca07      	ldmia	r2, {r0, r1, r2}
 80014ce:	c303      	stmia	r3!, {r0, r1}
 80014d0:	f823 2b02 	strh.w	r2, [r3], #2
 80014d4:	0c12      	lsrs	r2, r2, #16
 80014d6:	701a      	strb	r2, [r3, #0]
		char buff_zxc[] = "zxcvbnm";
 80014d8:	4aaa      	ldr	r2, [pc, #680]	; (8001784 <menuActualizar+0x548>)
 80014da:	ab04      	add	r3, sp, #16
 80014dc:	e892 0003 	ldmia.w	r2, {r0, r1}
 80014e0:	e883 0003 	stmia.w	r3, {r0, r1}
		SSD1306_DrawRectangle(30, 0, 60, 15, 1);
 80014e4:	2301      	movs	r3, #1
 80014e6:	9300      	str	r3, [sp, #0]
 80014e8:	230f      	movs	r3, #15
 80014ea:	223c      	movs	r2, #60	; 0x3c
 80014ec:	2100      	movs	r1, #0
 80014ee:	201e      	movs	r0, #30
 80014f0:	f000 fba1 	bl	8001c36 <SSD1306_DrawRectangle>
			for(uint8_t i=0;i<10;i++){
 80014f4:	f10d 0a18 	add.w	sl, sp, #24
 80014f8:	f10d 0924 	add.w	r9, sp, #36	; 0x24
		SSD1306_DrawRectangle(30, 0, 60, 15, 1);
 80014fc:	2406      	movs	r4, #6
				SSD1306_GotoXY(posicion_x, 23);
 80014fe:	f04f 0b17 	mov.w	fp, #23
				SSD1306_Putc(buff_qwerty[i], &Font_7x10, 1);
 8001502:	f8df 8284 	ldr.w	r8, [pc, #644]	; 8001788 <menuActualizar+0x54c>
 8001506:	2701      	movs	r7, #1
				SSD1306_GotoXY(posicion_x, 23);
 8001508:	4659      	mov	r1, fp
 800150a:	4620      	mov	r0, r4
 800150c:	f000 fa7e 	bl	8001a0c <SSD1306_GotoXY>
				SSD1306_Putc(buff_qwerty[i], &Font_7x10, 1);
 8001510:	463a      	mov	r2, r7
 8001512:	4641      	mov	r1, r8
 8001514:	f81a 0b01 	ldrb.w	r0, [sl], #1
 8001518:	f000 fa7e 	bl	8001a18 <SSD1306_Putc>
				SSD1306_GotoXY(posicion_x, 38);
 800151c:	2126      	movs	r1, #38	; 0x26
 800151e:	4620      	mov	r0, r4
 8001520:	f000 fa74 	bl	8001a0c <SSD1306_GotoXY>
				SSD1306_Putc(buff_asdf[i], &Font_7x10, 1);
 8001524:	463a      	mov	r2, r7
 8001526:	4641      	mov	r1, r8
 8001528:	f819 0b01 	ldrb.w	r0, [r9], #1
 800152c:	f000 fa74 	bl	8001a18 <SSD1306_Putc>
			for(uint8_t i=0;i<10;i++){
 8001530:	340c      	adds	r4, #12
 8001532:	b2a4      	uxth	r4, r4
 8001534:	2c7e      	cmp	r4, #126	; 0x7e
 8001536:	d1e7      	bne.n	8001508 <menuActualizar+0x2cc>
 8001538:	f10d 070f 	add.w	r7, sp, #15
 800153c:	241a      	movs	r4, #26
				SSD1306_GotoXY(posicion_x, 53);
 800153e:	f04f 0a35 	mov.w	sl, #53	; 0x35
				SSD1306_Putc(buff_zxc[i], &Font_7x10, 1);
 8001542:	f8df 9244 	ldr.w	r9, [pc, #580]	; 8001788 <menuActualizar+0x54c>
 8001546:	f04f 0801 	mov.w	r8, #1
				SSD1306_GotoXY(posicion_x, 53);
 800154a:	4651      	mov	r1, sl
 800154c:	4620      	mov	r0, r4
 800154e:	f000 fa5d 	bl	8001a0c <SSD1306_GotoXY>
				SSD1306_Putc(buff_zxc[i], &Font_7x10, 1);
 8001552:	4642      	mov	r2, r8
 8001554:	4649      	mov	r1, r9
 8001556:	f817 0f01 	ldrb.w	r0, [r7, #1]!
 800155a:	f000 fa5d 	bl	8001a18 <SSD1306_Putc>
			for(uint8_t i=0;i<7;i++){
 800155e:	340c      	adds	r4, #12
 8001560:	b2a4      	uxth	r4, r4
 8001562:	2c6e      	cmp	r4, #110	; 0x6e
 8001564:	d1f1      	bne.n	800154a <menuActualizar+0x30e>
			SSD1306_DrawRectangle(3, 50, 16, 16, 1);
 8001566:	2401      	movs	r4, #1
 8001568:	9400      	str	r4, [sp, #0]
 800156a:	2310      	movs	r3, #16
 800156c:	461a      	mov	r2, r3
 800156e:	2132      	movs	r1, #50	; 0x32
 8001570:	2003      	movs	r0, #3
 8001572:	f000 fb60 	bl	8001c36 <SSD1306_DrawRectangle>
			SSD1306_GotoXY(8, 53);
 8001576:	2135      	movs	r1, #53	; 0x35
 8001578:	2008      	movs	r0, #8
 800157a:	f000 fa47 	bl	8001a0c <SSD1306_GotoXY>
			SSD1306_Putc(borrar, &Font_7x10, 1);
 800157e:	4f82      	ldr	r7, [pc, #520]	; (8001788 <menuActualizar+0x54c>)
 8001580:	4622      	mov	r2, r4
 8001582:	4639      	mov	r1, r7
 8001584:	2078      	movs	r0, #120	; 0x78
 8001586:	f000 fa47 	bl	8001a18 <SSD1306_Putc>
			SSD1306_DrawRectangle(108, 50, 16, 16, 1);
 800158a:	9400      	str	r4, [sp, #0]
 800158c:	2310      	movs	r3, #16
 800158e:	461a      	mov	r2, r3
 8001590:	2132      	movs	r1, #50	; 0x32
 8001592:	206c      	movs	r0, #108	; 0x6c
 8001594:	f000 fb4f 	bl	8001c36 <SSD1306_DrawRectangle>
			SSD1306_GotoXY(113, 53);
 8001598:	2135      	movs	r1, #53	; 0x35
 800159a:	2071      	movs	r0, #113	; 0x71
 800159c:	f000 fa36 	bl	8001a0c <SSD1306_GotoXY>
			SSD1306_Putc(enter, &Font_7x10, 1);
 80015a0:	4622      	mov	r2, r4
 80015a2:	4639      	mov	r1, r7
 80015a4:	203c      	movs	r0, #60	; 0x3c
 80015a6:	f000 fa37 	bl	8001a18 <SSD1306_Putc>
			switch(y){
 80015aa:	2d00      	cmp	r5, #0
 80015ac:	f000 816d 	beq.w	800188a <menuActualizar+0x64e>
 80015b0:	42a5      	cmp	r5, r4
 80015b2:	f000 8154 	beq.w	800185e <menuActualizar+0x622>
			Timenow = xTaskGetTickCount();
 80015b6:	f005 f98b 	bl	80068d0 <xTaskGetTickCount>
			if((Timenow - getMenu()->GuardarNombre.xLastWakeTime_y) > pdMS_TO_TICKS(150) && (y!=nulo)){
 80015ba:	4b74      	ldr	r3, [pc, #464]	; (800178c <menuActualizar+0x550>)
 80015bc:	695b      	ldr	r3, [r3, #20]
 80015be:	1ac0      	subs	r0, r0, r3
 80015c0:	2896      	cmp	r0, #150	; 0x96
 80015c2:	d965      	bls.n	8001690 <menuActualizar+0x454>
 80015c4:	2d04      	cmp	r5, #4
 80015c6:	d127      	bne.n	8001618 <menuActualizar+0x3dc>
 80015c8:	9d03      	ldr	r5, [sp, #12]
			Timenow = xTaskGetTickCount();
 80015ca:	f005 f981 	bl	80068d0 <xTaskGetTickCount>
		if((Timenow - getMenu()->GuardarNombre.xLastWakeTime_x) > pdMS_TO_TICKS(100) && (x!=nulo) ){
 80015ce:	4b6f      	ldr	r3, [pc, #444]	; (800178c <menuActualizar+0x550>)
 80015d0:	691b      	ldr	r3, [r3, #16]
 80015d2:	1ac0      	subs	r0, r0, r3
 80015d4:	2864      	cmp	r0, #100	; 0x64
 80015d6:	d902      	bls.n	80015de <menuActualizar+0x3a2>
 80015d8:	9b03      	ldr	r3, [sp, #12]
 80015da:	2b04      	cmp	r3, #4
 80015dc:	d15a      	bne.n	8001694 <menuActualizar+0x458>
			Timenow = xTaskGetTickCount();
 80015de:	f005 f977 	bl	80068d0 <xTaskGetTickCount>
		if((Timenow - getMenu()->GuardarNombre.xLastWakeTime_boton) > pdMS_TO_TICKS(100) && (boton !=false) ){
 80015e2:	4b6a      	ldr	r3, [pc, #424]	; (800178c <menuActualizar+0x550>)
 80015e4:	699b      	ldr	r3, [r3, #24]
 80015e6:	1ac0      	subs	r0, r0, r3
 80015e8:	2864      	cmp	r0, #100	; 0x64
 80015ea:	d902      	bls.n	80015f2 <menuActualizar+0x3b6>
 80015ec:	2e00      	cmp	r6, #0
 80015ee:	f040 809b 	bne.w	8001728 <menuActualizar+0x4ec>
				SSD1306_DrawFilledCircle(getMenu()->GuardarNombre.posicion_x,  getMenu()->GuardarNombre.posicion_y, 5, 1);
 80015f2:	4c66      	ldr	r4, [pc, #408]	; (800178c <menuActualizar+0x550>)
 80015f4:	2301      	movs	r3, #1
 80015f6:	2205      	movs	r2, #5
 80015f8:	7961      	ldrb	r1, [r4, #5]
 80015fa:	7920      	ldrb	r0, [r4, #4]
 80015fc:	f000 fbf3 	bl	8001de6 <SSD1306_DrawFilledCircle>
				SSD1306_GotoXY(43, 5);
 8001600:	2105      	movs	r1, #5
 8001602:	202b      	movs	r0, #43	; 0x2b
 8001604:	f000 fa02 	bl	8001a0c <SSD1306_GotoXY>
				SSD1306_Puts(getMenu()->GuardarNombre.nombre, &Font_7x10, 1);
 8001608:	2201      	movs	r2, #1
 800160a:	495f      	ldr	r1, [pc, #380]	; (8001788 <menuActualizar+0x54c>)
 800160c:	1da0      	adds	r0, r4, #6
 800160e:	f000 fa4f 	bl	8001ab0 <SSD1306_Puts>
}
 8001612:	b00d      	add	sp, #52	; 0x34
 8001614:	e8bd 8ff0 	ldmia.w	sp!, {r4, r5, r6, r7, r8, r9, sl, fp, pc}
 8001618:	9d03      	ldr	r5, [sp, #12]
 800161a:	e13e      	b.n	800189a <menuActualizar+0x65e>
 800161c:	2d01      	cmp	r5, #1
 800161e:	d1d4      	bne.n	80015ca <menuActualizar+0x38e>
 8001620:	e129      	b.n	8001876 <menuActualizar+0x63a>
							getMenu()->GuardarNombre.posicion_y = GUARDADO_POSICION_Y1;
 8001622:	4b5a      	ldr	r3, [pc, #360]	; (800178c <menuActualizar+0x550>)
 8001624:	221b      	movs	r2, #27
 8001626:	715a      	strb	r2, [r3, #5]
							break;
 8001628:	e7cf      	b.n	80015ca <menuActualizar+0x38e>
								if(div < 0) getMenu()->GuardarNombre.posicion_x = GUARDADO_POSICION_X_INICIAL;
 800162a:	4b58      	ldr	r3, [pc, #352]	; (800178c <menuActualizar+0x550>)
 800162c:	2209      	movs	r2, #9
 800162e:	711a      	strb	r2, [r3, #4]
 8001630:	e7cb      	b.n	80015ca <menuActualizar+0x38e>
								getMenu()->GuardarNombre.posicion_x = GUARDADO_POSICION_X_INICIAL;
 8001632:	4b56      	ldr	r3, [pc, #344]	; (800178c <menuActualizar+0x550>)
 8001634:	2209      	movs	r2, #9
 8001636:	711a      	strb	r2, [r3, #4]
 8001638:	e7c7      	b.n	80015ca <menuActualizar+0x38e>
							getMenu()->GuardarNombre.posicion_y = GUARDADO_POSICION_Y2;
 800163a:	4b54      	ldr	r3, [pc, #336]	; (800178c <menuActualizar+0x550>)
 800163c:	222a      	movs	r2, #42	; 0x2a
 800163e:	715a      	strb	r2, [r3, #5]
							break;
 8001640:	2501      	movs	r5, #1
 8001642:	e7c2      	b.n	80015ca <menuActualizar+0x38e>
							getMenu()->GuardarNombre.posicion_y = GUARDADO_POSICION_Y3;
 8001644:	4b51      	ldr	r3, [pc, #324]	; (800178c <menuActualizar+0x550>)
 8001646:	2239      	movs	r2, #57	; 0x39
 8001648:	715a      	strb	r2, [r3, #5]
							div = getMenu()->GuardarNombre.posicion_x - (GUARDADO_POSICION_X_INICIAL);
 800164a:	791b      	ldrb	r3, [r3, #4]
 800164c:	3b09      	subs	r3, #9
 800164e:	b25b      	sxtb	r3, r3
							div = div/GUARDADO_OFFSET_X_CURSOR;
 8001650:	4a4f      	ldr	r2, [pc, #316]	; (8001790 <menuActualizar+0x554>)
 8001652:	fb82 1203 	smull	r1, r2, r2, r3
 8001656:	17db      	asrs	r3, r3, #31
 8001658:	ebc3 0362 	rsb	r3, r3, r2, asr #1
 800165c:	b25b      	sxtb	r3, r3
							if(div == 0){
 800165e:	b923      	cbnz	r3, 800166a <menuActualizar+0x42e>
								getMenu()->GuardarNombre.posicion_x = GUARDADO_POSICION_X_BORRAR;
 8001660:	4b4a      	ldr	r3, [pc, #296]	; (800178c <menuActualizar+0x550>)
 8001662:	220b      	movs	r2, #11
 8001664:	711a      	strb	r2, [r3, #4]
 8001666:	2501      	movs	r5, #1
 8001668:	e7af      	b.n	80015ca <menuActualizar+0x38e>
							else if(div == 8 || div == 9){
 800166a:	f1a3 0208 	sub.w	r2, r3, #8
 800166e:	b2d2      	uxtb	r2, r2
 8001670:	2a01      	cmp	r2, #1
 8001672:	d908      	bls.n	8001686 <menuActualizar+0x44a>
								getMenu()->GuardarNombre.posicion_x = GUARDADO_POSICION_X3_INICIAL + (div-1)*GUARDADO_OFFSET_X_CURSOR;
 8001674:	3b01      	subs	r3, #1
 8001676:	eb03 0343 	add.w	r3, r3, r3, lsl #1
 800167a:	009b      	lsls	r3, r3, #2
 800167c:	331c      	adds	r3, #28
 800167e:	4a43      	ldr	r2, [pc, #268]	; (800178c <menuActualizar+0x550>)
 8001680:	7113      	strb	r3, [r2, #4]
 8001682:	2501      	movs	r5, #1
 8001684:	e7a1      	b.n	80015ca <menuActualizar+0x38e>
								getMenu()->GuardarNombre.posicion_x = GUARDADO_POSICION_X_ENTER;
 8001686:	4b41      	ldr	r3, [pc, #260]	; (800178c <menuActualizar+0x550>)
 8001688:	2274      	movs	r2, #116	; 0x74
 800168a:	711a      	strb	r2, [r3, #4]
 800168c:	2501      	movs	r5, #1
 800168e:	e79c      	b.n	80015ca <menuActualizar+0x38e>
 8001690:	9d03      	ldr	r5, [sp, #12]
 8001692:	e79a      	b.n	80015ca <menuActualizar+0x38e>
			getMenu()->GuardarNombre.xLastWakeTime_x= xTaskGetTickCount();
 8001694:	f005 f91c 	bl	80068d0 <xTaskGetTickCount>
 8001698:	4b3c      	ldr	r3, [pc, #240]	; (800178c <menuActualizar+0x550>)
 800169a:	6118      	str	r0, [r3, #16]
			switch(mov){
 800169c:	2d02      	cmp	r5, #2
 800169e:	d021      	beq.n	80016e4 <menuActualizar+0x4a8>
 80016a0:	2d03      	cmp	r5, #3
 80016a2:	d19c      	bne.n	80015de <menuActualizar+0x3a2>
					getMenu()->GuardarNombre.posicion_x = getMenu()->GuardarNombre.posicion_x - GUARDADO_OFFSET_X_CURSOR;
 80016a4:	461a      	mov	r2, r3
 80016a6:	791b      	ldrb	r3, [r3, #4]
 80016a8:	3b0c      	subs	r3, #12
 80016aa:	b2db      	uxtb	r3, r3
 80016ac:	7113      	strb	r3, [r2, #4]
					if(getMenu()->GuardarNombre.posicion_y != GUARDADO_POSICION_Y3){
 80016ae:	7952      	ldrb	r2, [r2, #5]
 80016b0:	2a39      	cmp	r2, #57	; 0x39
 80016b2:	d005      	beq.n	80016c0 <menuActualizar+0x484>
						if(getMenu()->GuardarNombre.posicion_x == (uint8_t)(GUARDADO_POSICION_X_INICIAL - GUARDADO_OFFSET_X_CURSOR)){
 80016b4:	2bfd      	cmp	r3, #253	; 0xfd
 80016b6:	d192      	bne.n	80015de <menuActualizar+0x3a2>
							getMenu()->GuardarNombre.posicion_x = GUARDADO_POSICION_X_FINAL;
 80016b8:	4b34      	ldr	r3, [pc, #208]	; (800178c <menuActualizar+0x550>)
 80016ba:	2275      	movs	r2, #117	; 0x75
 80016bc:	711a      	strb	r2, [r3, #4]
 80016be:	e78e      	b.n	80015de <menuActualizar+0x3a2>
						if(getMenu()->GuardarNombre.posicion_x == (uint8_t)(GUARDADO_POSICION_X3_INICIAL - GUARDADO_OFFSET_X_CURSOR) ){
 80016c0:	2b10      	cmp	r3, #16
 80016c2:	d007      	beq.n	80016d4 <menuActualizar+0x498>
						else if(getMenu()->GuardarNombre.posicion_x == (uint8_t)(GUARDADO_POSICION_X_ENTER - GUARDADO_OFFSET_X_CURSOR)){
 80016c4:	2b68      	cmp	r3, #104	; 0x68
 80016c6:	d009      	beq.n	80016dc <menuActualizar+0x4a0>
						else if(getMenu()->GuardarNombre.posicion_x == (uint8_t)(GUARDADO_POSICION_X_BORRAR - GUARDADO_OFFSET_X_CURSOR)){
 80016c8:	2bff      	cmp	r3, #255	; 0xff
 80016ca:	d188      	bne.n	80015de <menuActualizar+0x3a2>
							getMenu()->GuardarNombre.posicion_x = GUARDADO_POSICION_X_BORRAR;
 80016cc:	4b2f      	ldr	r3, [pc, #188]	; (800178c <menuActualizar+0x550>)
 80016ce:	220b      	movs	r2, #11
 80016d0:	711a      	strb	r2, [r3, #4]
 80016d2:	e784      	b.n	80015de <menuActualizar+0x3a2>
							getMenu()->GuardarNombre.posicion_x = GUARDADO_POSICION_X_BORRAR;
 80016d4:	4b2d      	ldr	r3, [pc, #180]	; (800178c <menuActualizar+0x550>)
 80016d6:	220b      	movs	r2, #11
 80016d8:	711a      	strb	r2, [r3, #4]
 80016da:	e780      	b.n	80015de <menuActualizar+0x3a2>
							getMenu()->GuardarNombre.posicion_x = GUARDADO_POSICION_X3_FINAL;
 80016dc:	4b2b      	ldr	r3, [pc, #172]	; (800178c <menuActualizar+0x550>)
 80016de:	2264      	movs	r2, #100	; 0x64
 80016e0:	711a      	strb	r2, [r3, #4]
 80016e2:	e77c      	b.n	80015de <menuActualizar+0x3a2>
					getMenu()->GuardarNombre.posicion_x = getMenu()->GuardarNombre.posicion_x + GUARDADO_OFFSET_X_CURSOR;
 80016e4:	4a29      	ldr	r2, [pc, #164]	; (800178c <menuActualizar+0x550>)
 80016e6:	7913      	ldrb	r3, [r2, #4]
 80016e8:	330c      	adds	r3, #12
 80016ea:	b2db      	uxtb	r3, r3
 80016ec:	7113      	strb	r3, [r2, #4]
					if(getMenu()->GuardarNombre.posicion_y != GUARDADO_POSICION_Y3){
 80016ee:	7952      	ldrb	r2, [r2, #5]
 80016f0:	2a39      	cmp	r2, #57	; 0x39
 80016f2:	d006      	beq.n	8001702 <menuActualizar+0x4c6>
						if(getMenu()->GuardarNombre.posicion_x > GUARDADO_POSICION_X_FINAL){
 80016f4:	2b75      	cmp	r3, #117	; 0x75
 80016f6:	f67f af72 	bls.w	80015de <menuActualizar+0x3a2>
								getMenu()->GuardarNombre.posicion_x = GUARDADO_POSICION_X_INICIAL;
 80016fa:	4b24      	ldr	r3, [pc, #144]	; (800178c <menuActualizar+0x550>)
 80016fc:	2209      	movs	r2, #9
 80016fe:	711a      	strb	r2, [r3, #4]
 8001700:	e76d      	b.n	80015de <menuActualizar+0x3a2>
						if(getMenu()->GuardarNombre.posicion_x == (uint8_t)(GUARDADO_POSICION_X3_FINAL + GUARDADO_OFFSET_X_CURSOR)){
 8001702:	2b70      	cmp	r3, #112	; 0x70
 8001704:	d008      	beq.n	8001718 <menuActualizar+0x4dc>
						else if(getMenu()->GuardarNombre.posicion_x == (uint8_t)(GUARDADO_POSICION_X_ENTER + GUARDADO_OFFSET_X_CURSOR)){
 8001706:	2b80      	cmp	r3, #128	; 0x80
 8001708:	d00a      	beq.n	8001720 <menuActualizar+0x4e4>
						else if(getMenu()->GuardarNombre.posicion_x == (uint8_t)(GUARDADO_POSICION_X_BORRAR + GUARDADO_OFFSET_X_CURSOR)){
 800170a:	2b17      	cmp	r3, #23
 800170c:	f47f af67 	bne.w	80015de <menuActualizar+0x3a2>
							getMenu()->GuardarNombre.posicion_x = GUARDADO_POSICION_X3_INICIAL;
 8001710:	4b1e      	ldr	r3, [pc, #120]	; (800178c <menuActualizar+0x550>)
 8001712:	221c      	movs	r2, #28
 8001714:	711a      	strb	r2, [r3, #4]
 8001716:	e762      	b.n	80015de <menuActualizar+0x3a2>
							getMenu()->GuardarNombre.posicion_x = GUARDADO_POSICION_X_ENTER;
 8001718:	4b1c      	ldr	r3, [pc, #112]	; (800178c <menuActualizar+0x550>)
 800171a:	2274      	movs	r2, #116	; 0x74
 800171c:	711a      	strb	r2, [r3, #4]
 800171e:	e75e      	b.n	80015de <menuActualizar+0x3a2>
							getMenu()->GuardarNombre.posicion_x = GUARDADO_POSICION_X_BORRAR;
 8001720:	4b1a      	ldr	r3, [pc, #104]	; (800178c <menuActualizar+0x550>)
 8001722:	220b      	movs	r2, #11
 8001724:	711a      	strb	r2, [r3, #4]
 8001726:	e75a      	b.n	80015de <menuActualizar+0x3a2>
			getMenu()->GuardarNombre.xLastWakeTime_boton= xTaskGetTickCount();
 8001728:	f005 f8d2 	bl	80068d0 <xTaskGetTickCount>
 800172c:	4b17      	ldr	r3, [pc, #92]	; (800178c <menuActualizar+0x550>)
 800172e:	6198      	str	r0, [r3, #24]
			if((boton == true) && (getMenu()->GuardarNombre.indice <= 5)){
 8001730:	2e01      	cmp	r6, #1
 8001732:	f47f af5e 	bne.w	80015f2 <menuActualizar+0x3b6>
 8001736:	f993 300c 	ldrsb.w	r3, [r3, #12]
 800173a:	2b05      	cmp	r3, #5
 800173c:	f73f af59 	bgt.w	80015f2 <menuActualizar+0x3b6>
						if((getMenu()->GuardarNombre.posicion_y != GUARDADO_POSICION_Y3)){
 8001740:	4a12      	ldr	r2, [pc, #72]	; (800178c <menuActualizar+0x550>)
 8001742:	7951      	ldrb	r1, [r2, #5]
 8001744:	2939      	cmp	r1, #57	; 0x39
 8001746:	d03a      	beq.n	80017be <menuActualizar+0x582>
							div = getMenu()->GuardarNombre.posicion_x - GUARDADO_POSICION_X_INICIAL;
 8001748:	7912      	ldrb	r2, [r2, #4]
 800174a:	3a09      	subs	r2, #9
 800174c:	b252      	sxtb	r2, r2
							div = div / (GUARDADO_OFFSET_X_CURSOR);
 800174e:	4810      	ldr	r0, [pc, #64]	; (8001790 <menuActualizar+0x554>)
 8001750:	fb80 4002 	smull	r4, r0, r0, r2
 8001754:	17d2      	asrs	r2, r2, #31
 8001756:	ebc2 0260 	rsb	r2, r2, r0, asr #1
 800175a:	b252      	sxtb	r2, r2
							if((getMenu()->GuardarNombre.posicion_y == GUARDADO_POSICION_Y1)){
 800175c:	291b      	cmp	r1, #27
 800175e:	d019      	beq.n	8001794 <menuActualizar+0x558>
							else if((getMenu()->GuardarNombre.posicion_y == GUARDADO_POSICION_Y2)){
 8001760:	292a      	cmp	r1, #42	; 0x2a
 8001762:	f47f af46 	bne.w	80015f2 <menuActualizar+0x3b6>
								getMenu()->GuardarNombre.nombre[getMenu()->GuardarNombre.indice] = buff_asdf[div];
 8001766:	4909      	ldr	r1, [pc, #36]	; (800178c <menuActualizar+0x550>)
 8001768:	18c8      	adds	r0, r1, r3
 800176a:	3230      	adds	r2, #48	; 0x30
 800176c:	446a      	add	r2, sp
 800176e:	f812 2c0c 	ldrb.w	r2, [r2, #-12]
 8001772:	7182      	strb	r2, [r0, #6]
								getMenu()->GuardarNombre.indice = getMenu()->GuardarNombre.indice + 1;
 8001774:	3301      	adds	r3, #1
 8001776:	730b      	strb	r3, [r1, #12]
 8001778:	e015      	b.n	80017a6 <menuActualizar+0x56a>
 800177a:	bf00      	nop
 800177c:	0800943c 	.word	0x0800943c
 8001780:	08009448 	.word	0x08009448
 8001784:	08009454 	.word	0x08009454
 8001788:	20000000 	.word	0x20000000
 800178c:	20000930 	.word	0x20000930
 8001790:	2aaaaaab 	.word	0x2aaaaaab
								getMenu()->GuardarNombre.nombre[getMenu()->GuardarNombre.indice] = buff_qwerty[div];
 8001794:	4955      	ldr	r1, [pc, #340]	; (80018ec <menuActualizar+0x6b0>)
 8001796:	18c8      	adds	r0, r1, r3
 8001798:	3230      	adds	r2, #48	; 0x30
 800179a:	446a      	add	r2, sp
 800179c:	f812 2c18 	ldrb.w	r2, [r2, #-24]
 80017a0:	7182      	strb	r2, [r0, #6]
								getMenu()->GuardarNombre.indice = getMenu()->GuardarNombre.indice + 1;
 80017a2:	3301      	adds	r3, #1
 80017a4:	730b      	strb	r3, [r1, #12]
						if(getMenu()->GuardarNombre.indice > 5){
 80017a6:	4b51      	ldr	r3, [pc, #324]	; (80018ec <menuActualizar+0x6b0>)
 80017a8:	f993 300c 	ldrsb.w	r3, [r3, #12]
 80017ac:	2b05      	cmp	r3, #5
 80017ae:	f77f af20 	ble.w	80015f2 <menuActualizar+0x3b6>
							getMenu()->GuardarNombre.indice = 5;
 80017b2:	4b4e      	ldr	r3, [pc, #312]	; (80018ec <menuActualizar+0x6b0>)
 80017b4:	2205      	movs	r2, #5
 80017b6:	731a      	strb	r2, [r3, #12]
							getMenu()->GuardarNombre.nombre[5] = '\0';
 80017b8:	2200      	movs	r2, #0
 80017ba:	72da      	strb	r2, [r3, #11]
 80017bc:	e719      	b.n	80015f2 <menuActualizar+0x3b6>
							div = getMenu()->GuardarNombre.posicion_x - GUARDADO_POSICION_X3_INICIAL;
 80017be:	4a4b      	ldr	r2, [pc, #300]	; (80018ec <menuActualizar+0x6b0>)
 80017c0:	7912      	ldrb	r2, [r2, #4]
 80017c2:	3a1c      	subs	r2, #28
 80017c4:	b252      	sxtb	r2, r2
							if(div < 0){	//SI SE APRIETA EL BOTON BORRAR
 80017c6:	2a00      	cmp	r2, #0
 80017c8:	db0e      	blt.n	80017e8 <menuActualizar+0x5ac>
								div = div / GUARDADO_OFFSET_X_CURSOR;
 80017ca:	210c      	movs	r1, #12
 80017cc:	fb92 f2f1 	sdiv	r2, r2, r1
									if(div == 7){	//SI SE APRIETA EL BOTON ENTER
 80017d0:	2a07      	cmp	r2, #7
 80017d2:	d013      	beq.n	80017fc <menuActualizar+0x5c0>
										getMenu()->GuardarNombre.nombre[getMenu()->GuardarNombre.indice] = buff_zxc[div];
 80017d4:	4945      	ldr	r1, [pc, #276]	; (80018ec <menuActualizar+0x6b0>)
 80017d6:	18c8      	adds	r0, r1, r3
 80017d8:	3230      	adds	r2, #48	; 0x30
 80017da:	446a      	add	r2, sp
 80017dc:	f812 2c20 	ldrb.w	r2, [r2, #-32]
 80017e0:	7182      	strb	r2, [r0, #6]
										getMenu()->GuardarNombre.indice = getMenu()->GuardarNombre.indice + 1;
 80017e2:	3301      	adds	r3, #1
 80017e4:	730b      	strb	r3, [r1, #12]
 80017e6:	e7de      	b.n	80017a6 <menuActualizar+0x56a>
								getMenu()->GuardarNombre.indice = getMenu()->GuardarNombre.indice - 1;
 80017e8:	3b01      	subs	r3, #1
 80017ea:	b25b      	sxtb	r3, r3
 80017ec:	ea23 73e3 	bic.w	r3, r3, r3, asr #31
 80017f0:	4a3e      	ldr	r2, [pc, #248]	; (80018ec <menuActualizar+0x6b0>)
 80017f2:	7313      	strb	r3, [r2, #12]
								getMenu()->GuardarNombre.nombre[getMenu()->GuardarNombre.indice] = '\0';
 80017f4:	441a      	add	r2, r3
 80017f6:	2300      	movs	r3, #0
 80017f8:	7193      	strb	r3, [r2, #6]
 80017fa:	e7d4      	b.n	80017a6 <menuActualizar+0x56a>
										if((getMenu()->GuardarNombre.indice != 0 )){
 80017fc:	2b00      	cmp	r3, #0
 80017fe:	f43f aef8 	beq.w	80015f2 <menuActualizar+0x3b6>
											strcpy(getPuntajes(4)->nombre,getMenu()->GuardarNombre.nombre);
 8001802:	2004      	movs	r0, #4
 8001804:	f7ff fb48 	bl	8000e98 <getPuntajes>
 8001808:	4939      	ldr	r1, [pc, #228]	; (80018f0 <menuActualizar+0x6b4>)
 800180a:	f006 fb14 	bl	8007e36 <strcpy>
										    osEventFlagsSet(notificationFlag, NOTIFICATION_VALUE);
 800180e:	2101      	movs	r1, #1
 8001810:	4b38      	ldr	r3, [pc, #224]	; (80018f4 <menuActualizar+0x6b8>)
 8001812:	6818      	ldr	r0, [r3, #0]
 8001814:	f003 fc92 	bl	800513c <osEventFlagsSet>
										    uint32_t flags = osEventFlagsWait(notificationFlag2, NOTIFICATION_VALUE2, osFlagsWaitAny, osWaitForever);
 8001818:	f04f 33ff 	mov.w	r3, #4294967295
 800181c:	2200      	movs	r2, #0
 800181e:	2102      	movs	r1, #2
 8001820:	4835      	ldr	r0, [pc, #212]	; (80018f8 <menuActualizar+0x6bc>)
 8001822:	6800      	ldr	r0, [r0, #0]
 8001824:	f003 fcc8 	bl	80051b8 <osEventFlagsWait>
										    if (flags == NOTIFICATION_VALUE2){
 8001828:	2802      	cmp	r0, #2
 800182a:	d1bc      	bne.n	80017a6 <menuActualizar+0x56a>
										    	menuReset();
 800182c:	f7ff fcd8 	bl	80011e0 <menuReset>
										    	getMenu()->menuActual = puntajes;
 8001830:	4b2e      	ldr	r3, [pc, #184]	; (80018ec <menuActualizar+0x6b0>)
 8001832:	2203      	movs	r2, #3
 8001834:	701a      	strb	r2, [r3, #0]
 8001836:	e7b6      	b.n	80017a6 <menuActualizar+0x56a>
		SSD1306_DrawBitmap(15, 10, game_over_figura, 100, 40, 1);
 8001838:	2301      	movs	r3, #1
 800183a:	9301      	str	r3, [sp, #4]
 800183c:	2328      	movs	r3, #40	; 0x28
 800183e:	9300      	str	r3, [sp, #0]
 8001840:	2364      	movs	r3, #100	; 0x64
 8001842:	4a2e      	ldr	r2, [pc, #184]	; (80018fc <menuActualizar+0x6c0>)
 8001844:	210a      	movs	r1, #10
 8001846:	200f      	movs	r0, #15
 8001848:	f000 f894 	bl	8001974 <SSD1306_DrawBitmap>
		if(y == arriba){
 800184c:	2d00      	cmp	r5, #0
 800184e:	f47f aee0 	bne.w	8001612 <menuActualizar+0x3d6>
			GuardarNombreReset();
 8001852:	f7ff fce1 	bl	8001218 <GuardarNombreReset>
			getMenu()->menuActual = guardar_nombre;
 8001856:	4b25      	ldr	r3, [pc, #148]	; (80018ec <menuActualizar+0x6b0>)
 8001858:	2204      	movs	r2, #4
 800185a:	701a      	strb	r2, [r3, #0]
}
 800185c:	e6d9      	b.n	8001612 <menuActualizar+0x3d6>
			Timenow = xTaskGetTickCount();
 800185e:	f005 f837 	bl	80068d0 <xTaskGetTickCount>
			if((Timenow - getMenu()->GuardarNombre.xLastWakeTime_y) > pdMS_TO_TICKS(150) && (y!=nulo)){
 8001862:	4b22      	ldr	r3, [pc, #136]	; (80018ec <menuActualizar+0x6b0>)
 8001864:	695b      	ldr	r3, [r3, #20]
 8001866:	1ac0      	subs	r0, r0, r3
 8001868:	2896      	cmp	r0, #150	; 0x96
 800186a:	f67f aeae 	bls.w	80015ca <menuActualizar+0x38e>
				getMenu()->GuardarNombre.xLastWakeTime_y = xTaskGetTickCount();
 800186e:	f005 f82f 	bl	80068d0 <xTaskGetTickCount>
 8001872:	4b1e      	ldr	r3, [pc, #120]	; (80018ec <menuActualizar+0x6b0>)
 8001874:	6158      	str	r0, [r3, #20]
					switch(getMenu()->GuardarNombre.posicion_y){
 8001876:	4b1d      	ldr	r3, [pc, #116]	; (80018ec <menuActualizar+0x6b0>)
 8001878:	795b      	ldrb	r3, [r3, #5]
 800187a:	2b1b      	cmp	r3, #27
 800187c:	f43f aedd 	beq.w	800163a <menuActualizar+0x3fe>
 8001880:	2b2a      	cmp	r3, #42	; 0x2a
 8001882:	f43f aedf 	beq.w	8001644 <menuActualizar+0x408>
 8001886:	2501      	movs	r5, #1
 8001888:	e69f      	b.n	80015ca <menuActualizar+0x38e>
			Timenow = xTaskGetTickCount();
 800188a:	f005 f821 	bl	80068d0 <xTaskGetTickCount>
			if((Timenow - getMenu()->GuardarNombre.xLastWakeTime_y) > pdMS_TO_TICKS(150) && (y!=nulo)){
 800188e:	4b17      	ldr	r3, [pc, #92]	; (80018ec <menuActualizar+0x6b0>)
 8001890:	695b      	ldr	r3, [r3, #20]
 8001892:	1ac0      	subs	r0, r0, r3
 8001894:	2896      	cmp	r0, #150	; 0x96
 8001896:	f67f ae98 	bls.w	80015ca <menuActualizar+0x38e>
				getMenu()->GuardarNombre.xLastWakeTime_y = xTaskGetTickCount();
 800189a:	f005 f819 	bl	80068d0 <xTaskGetTickCount>
 800189e:	4b13      	ldr	r3, [pc, #76]	; (80018ec <menuActualizar+0x6b0>)
 80018a0:	6158      	str	r0, [r3, #20]
			switch(mov){
 80018a2:	2d00      	cmp	r5, #0
 80018a4:	f47f aeba 	bne.w	800161c <menuActualizar+0x3e0>
					switch(getMenu()->GuardarNombre.posicion_y){
 80018a8:	4b10      	ldr	r3, [pc, #64]	; (80018ec <menuActualizar+0x6b0>)
 80018aa:	795b      	ldrb	r3, [r3, #5]
 80018ac:	2b2a      	cmp	r3, #42	; 0x2a
 80018ae:	f43f aeb8 	beq.w	8001622 <menuActualizar+0x3e6>
 80018b2:	2b39      	cmp	r3, #57	; 0x39
 80018b4:	f47f ae89 	bne.w	80015ca <menuActualizar+0x38e>
							getMenu()->GuardarNombre.posicion_y = GUARDADO_POSICION_Y2;
 80018b8:	4b0c      	ldr	r3, [pc, #48]	; (80018ec <menuActualizar+0x6b0>)
 80018ba:	222a      	movs	r2, #42	; 0x2a
 80018bc:	715a      	strb	r2, [r3, #5]
							if(getMenu()->GuardarNombre.posicion_x >= GUARDADO_POSICION_X3_INICIAL ){
 80018be:	791b      	ldrb	r3, [r3, #4]
 80018c0:	2b1b      	cmp	r3, #27
 80018c2:	f67f aeb6 	bls.w	8001632 <menuActualizar+0x3f6>
								div = getMenu()->GuardarNombre.posicion_x - (GUARDADO_POSICION_X3_INICIAL);
 80018c6:	3b1c      	subs	r3, #28
 80018c8:	b25b      	sxtb	r3, r3
								if(div < 0) getMenu()->GuardarNombre.posicion_x = GUARDADO_POSICION_X_INICIAL;
 80018ca:	2b00      	cmp	r3, #0
 80018cc:	f6ff aead 	blt.w	800162a <menuActualizar+0x3ee>
									div = div / GUARDADO_OFFSET_X_CURSOR;
 80018d0:	4a0b      	ldr	r2, [pc, #44]	; (8001900 <menuActualizar+0x6c4>)
 80018d2:	fb82 1203 	smull	r1, r2, r2, r3
 80018d6:	17db      	asrs	r3, r3, #31
 80018d8:	ebc3 0362 	rsb	r3, r3, r2, asr #1
									 getMenu()->GuardarNombre.posicion_x = GUARDADO_POSICION_X_INICIAL + (div+1)*GUARDADO_OFFSET_X_CURSOR ;
 80018dc:	3301      	adds	r3, #1
 80018de:	eb03 0343 	add.w	r3, r3, r3, lsl #1
 80018e2:	009b      	lsls	r3, r3, #2
 80018e4:	3309      	adds	r3, #9
 80018e6:	4a01      	ldr	r2, [pc, #4]	; (80018ec <menuActualizar+0x6b0>)
 80018e8:	7113      	strb	r3, [r2, #4]
 80018ea:	e66e      	b.n	80015ca <menuActualizar+0x38e>
 80018ec:	20000930 	.word	0x20000930
 80018f0:	20000936 	.word	0x20000936
 80018f4:	200008f0 	.word	0x200008f0
 80018f8:	200008f4 	.word	0x200008f4
 80018fc:	0800955c 	.word	0x0800955c
 8001900:	2aaaaaab 	.word	0x2aaaaaab

08001904 <SSD1306_Fill>:
	for (i = 0; i < sizeof(SSD1306_Buffer); i++) {
		SSD1306_Buffer[i] = ~SSD1306_Buffer[i];
	}
}

void SSD1306_Fill(SSD1306_COLOR_t color) {
 8001904:	b508      	push	{r3, lr}
	/* Set memory */
	memset(SSD1306_Buffer, (color == SSD1306_COLOR_BLACK) ? 0x00 : 0xFF, sizeof(SSD1306_Buffer));
 8001906:	2800      	cmp	r0, #0
 8001908:	f44f 6280 	mov.w	r2, #1024	; 0x400
 800190c:	bf0c      	ite	eq
 800190e:	2100      	moveq	r1, #0
 8001910:	21ff      	movne	r1, #255	; 0xff
 8001912:	4802      	ldr	r0, [pc, #8]	; (800191c <SSD1306_Fill+0x18>)
 8001914:	f006 fa13 	bl	8007d3e <memset>
}
 8001918:	bd08      	pop	{r3, pc}
 800191a:	bf00      	nop
 800191c:	20000960 	.word	0x20000960

08001920 <SSD1306_DrawPixel>:

void SSD1306_DrawPixel(uint16_t x, uint16_t y, SSD1306_COLOR_t color) {
	if (
 8001920:	287f      	cmp	r0, #127	; 0x7f
 8001922:	d822      	bhi.n	800196a <SSD1306_DrawPixel+0x4a>
		x >= SSD1306_WIDTH ||
 8001924:	293f      	cmp	r1, #63	; 0x3f
 8001926:	d820      	bhi.n	800196a <SSD1306_DrawPixel+0x4a>
		/* Error */
		return;
	}
	
	/* Check if pixels are inverted */
	if (SSD1306.Inverted) {
 8001928:	4b10      	ldr	r3, [pc, #64]	; (800196c <SSD1306_DrawPixel+0x4c>)
 800192a:	791b      	ldrb	r3, [r3, #4]
 800192c:	b17b      	cbz	r3, 800194e <SSD1306_DrawPixel+0x2e>
		color = (SSD1306_COLOR_t)!color;
	}
	
	/* Set color */
	if (color == SSD1306_COLOR_WHITE) {
 800192e:	b182      	cbz	r2, 8001952 <SSD1306_DrawPixel+0x32>
void SSD1306_DrawPixel(uint16_t x, uint16_t y, SSD1306_COLOR_t color) {
 8001930:	b410      	push	{r4}
		SSD1306_Buffer[x + (y / 8) * SSD1306_WIDTH] |= 1 << (y % 8);
	} else {
		SSD1306_Buffer[x + (y / 8) * SSD1306_WIDTH] &= ~(1 << (y % 8));
 8001932:	08cb      	lsrs	r3, r1, #3
 8001934:	eb00 10c3 	add.w	r0, r0, r3, lsl #7
 8001938:	4c0d      	ldr	r4, [pc, #52]	; (8001970 <SSD1306_DrawPixel+0x50>)
 800193a:	f001 0107 	and.w	r1, r1, #7
 800193e:	2201      	movs	r2, #1
 8001940:	408a      	lsls	r2, r1
 8001942:	5c23      	ldrb	r3, [r4, r0]
 8001944:	ea23 0302 	bic.w	r3, r3, r2
 8001948:	5423      	strb	r3, [r4, r0]
	}
}
 800194a:	bc10      	pop	{r4}
 800194c:	4770      	bx	lr
	if (color == SSD1306_COLOR_WHITE) {
 800194e:	2a01      	cmp	r2, #1
 8001950:	d1ee      	bne.n	8001930 <SSD1306_DrawPixel+0x10>
		SSD1306_Buffer[x + (y / 8) * SSD1306_WIDTH] |= 1 << (y % 8);
 8001952:	08cb      	lsrs	r3, r1, #3
 8001954:	eb00 10c3 	add.w	r0, r0, r3, lsl #7
 8001958:	4a05      	ldr	r2, [pc, #20]	; (8001970 <SSD1306_DrawPixel+0x50>)
 800195a:	f001 0107 	and.w	r1, r1, #7
 800195e:	2301      	movs	r3, #1
 8001960:	408b      	lsls	r3, r1
 8001962:	5c11      	ldrb	r1, [r2, r0]
 8001964:	430b      	orrs	r3, r1
 8001966:	5413      	strb	r3, [r2, r0]
 8001968:	4770      	bx	lr
 800196a:	4770      	bx	lr
 800196c:	20000958 	.word	0x20000958
 8001970:	20000960 	.word	0x20000960

08001974 <SSD1306_DrawBitmap>:
{
 8001974:	e92d 4ff0 	stmdb	sp!, {r4, r5, r6, r7, r8, r9, sl, fp, lr}
 8001978:	b085      	sub	sp, #20
 800197a:	4683      	mov	fp, r0
 800197c:	4688      	mov	r8, r1
 800197e:	9203      	str	r2, [sp, #12]
 8001980:	461e      	mov	r6, r3
 8001982:	f9bd 3038 	ldrsh.w	r3, [sp, #56]	; 0x38
 8001986:	9301      	str	r3, [sp, #4]
    int16_t byteWidth = (w + 7) / 8; // Bitmap scanline pad = whole byte
 8001988:	1df3      	adds	r3, r6, #7
 800198a:	bf48      	it	mi
 800198c:	3307      	addmi	r3, #7
 800198e:	10db      	asrs	r3, r3, #3
 8001990:	9302      	str	r3, [sp, #8]
    for(int16_t j=0; j<h; j++, y++)
 8001992:	9b01      	ldr	r3, [sp, #4]
 8001994:	2b00      	cmp	r3, #0
 8001996:	dd36      	ble.n	8001a06 <SSD1306_DrawBitmap+0x92>
 8001998:	2700      	movs	r7, #0
    uint8_t byte = 0;
 800199a:	463d      	mov	r5, r7
            if(byte & 0x80) SSD1306_DrawPixel(x+i, y, color);
 800199c:	f89d 303c 	ldrb.w	r3, [sp, #60]	; 0x3c
 80019a0:	9300      	str	r3, [sp, #0]
 80019a2:	e026      	b.n	80019f2 <SSD1306_DrawBitmap+0x7e>
               byte = (*(const unsigned char *)(&bitmap[j * byteWidth + i / 8]));
 80019a4:	461a      	mov	r2, r3
 80019a6:	2b00      	cmp	r3, #0
 80019a8:	bfb8      	it	lt
 80019aa:	1dda      	addlt	r2, r3, #7
 80019ac:	f342 02cf 	sbfx	r2, r2, #3, #16
 80019b0:	f819 5002 	ldrb.w	r5, [r9, r2]
            if(byte & 0x80) SSD1306_DrawPixel(x+i, y, color);
 80019b4:	f015 0f80 	tst.w	r5, #128	; 0x80
 80019b8:	d10a      	bne.n	80019d0 <SSD1306_DrawBitmap+0x5c>
        for(int16_t i=0; i<w; i++)
 80019ba:	3401      	adds	r4, #1
 80019bc:	b223      	sxth	r3, r4
 80019be:	42b3      	cmp	r3, r6
 80019c0:	d00e      	beq.n	80019e0 <SSD1306_DrawBitmap+0x6c>
            if(i & 7)
 80019c2:	b29c      	uxth	r4, r3
 80019c4:	f013 0f07 	tst.w	r3, #7
 80019c8:	d0ec      	beq.n	80019a4 <SSD1306_DrawBitmap+0x30>
               byte <<= 1;
 80019ca:	006d      	lsls	r5, r5, #1
 80019cc:	b2ed      	uxtb	r5, r5
 80019ce:	e7f1      	b.n	80019b4 <SSD1306_DrawBitmap+0x40>
            if(byte & 0x80) SSD1306_DrawPixel(x+i, y, color);
 80019d0:	eb04 000b 	add.w	r0, r4, fp
 80019d4:	9a00      	ldr	r2, [sp, #0]
 80019d6:	4651      	mov	r1, sl
 80019d8:	b280      	uxth	r0, r0
 80019da:	f7ff ffa1 	bl	8001920 <SSD1306_DrawPixel>
 80019de:	e7ec      	b.n	80019ba <SSD1306_DrawBitmap+0x46>
    for(int16_t j=0; j<h; j++, y++)
 80019e0:	3701      	adds	r7, #1
 80019e2:	b23f      	sxth	r7, r7
 80019e4:	f108 0801 	add.w	r8, r8, #1
 80019e8:	fa0f f888 	sxth.w	r8, r8
 80019ec:	9b01      	ldr	r3, [sp, #4]
 80019ee:	42bb      	cmp	r3, r7
 80019f0:	dd09      	ble.n	8001a06 <SSD1306_DrawBitmap+0x92>
        for(int16_t i=0; i<w; i++)
 80019f2:	2e00      	cmp	r6, #0
 80019f4:	ddf4      	ble.n	80019e0 <SSD1306_DrawBitmap+0x6c>
 80019f6:	2300      	movs	r3, #0
               byte = (*(const unsigned char *)(&bitmap[j * byteWidth + i / 8]));
 80019f8:	9a03      	ldr	r2, [sp, #12]
 80019fa:	9902      	ldr	r1, [sp, #8]
 80019fc:	fb07 2901 	mla	r9, r7, r1, r2
            if(byte & 0x80) SSD1306_DrawPixel(x+i, y, color);
 8001a00:	fa1f fa88 	uxth.w	sl, r8
 8001a04:	e7dd      	b.n	80019c2 <SSD1306_DrawBitmap+0x4e>
}
 8001a06:	b005      	add	sp, #20
 8001a08:	e8bd 8ff0 	ldmia.w	sp!, {r4, r5, r6, r7, r8, r9, sl, fp, pc}

08001a0c <SSD1306_GotoXY>:

void SSD1306_GotoXY(uint16_t x, uint16_t y) {
	/* Set write pointers */
	SSD1306.CurrentX = x;
 8001a0c:	4b01      	ldr	r3, [pc, #4]	; (8001a14 <SSD1306_GotoXY+0x8>)
 8001a0e:	8018      	strh	r0, [r3, #0]
	SSD1306.CurrentY = y;
 8001a10:	8059      	strh	r1, [r3, #2]
}
 8001a12:	4770      	bx	lr
 8001a14:	20000958 	.word	0x20000958

08001a18 <SSD1306_Putc>:

char SSD1306_Putc(char ch, FontDef_t* Font, SSD1306_COLOR_t color) {
 8001a18:	e92d 4ff0 	stmdb	sp!, {r4, r5, r6, r7, r8, r9, sl, fp, lr}
 8001a1c:	b083      	sub	sp, #12
 8001a1e:	9001      	str	r0, [sp, #4]
 8001a20:	4691      	mov	r9, r2
	uint32_t i, b, j;
	
	/* Check available space in LCD */
	if (
		SSD1306_WIDTH <= (SSD1306.CurrentX + Font->FontWidth) ||
 8001a22:	4b22      	ldr	r3, [pc, #136]	; (8001aac <SSD1306_Putc+0x94>)
 8001a24:	881b      	ldrh	r3, [r3, #0]
 8001a26:	461a      	mov	r2, r3
 8001a28:	9300      	str	r3, [sp, #0]
 8001a2a:	780b      	ldrb	r3, [r1, #0]
 8001a2c:	4413      	add	r3, r2
	if (
 8001a2e:	2b7f      	cmp	r3, #127	; 0x7f
 8001a30:	dc38      	bgt.n	8001aa4 <SSD1306_Putc+0x8c>
 8001a32:	460e      	mov	r6, r1
		SSD1306_HEIGHT <= (SSD1306.CurrentY + Font->FontHeight)
 8001a34:	4b1d      	ldr	r3, [pc, #116]	; (8001aac <SSD1306_Putc+0x94>)
 8001a36:	885f      	ldrh	r7, [r3, #2]
 8001a38:	784b      	ldrb	r3, [r1, #1]
 8001a3a:	18fa      	adds	r2, r7, r3
		SSD1306_WIDTH <= (SSD1306.CurrentX + Font->FontWidth) ||
 8001a3c:	2a3f      	cmp	r2, #63	; 0x3f
 8001a3e:	dc33      	bgt.n	8001aa8 <SSD1306_Putc+0x90>
		/* Error */
		return 0;
	}
	
	/* Go through font */
	for (i = 0; i < Font->FontHeight; i++) {
 8001a40:	b333      	cbz	r3, 8001a90 <SSD1306_Putc+0x78>
 8001a42:	f04f 0a00 	mov.w	sl, #0
		b = Font->data[(ch - 32) * Font->FontHeight + i];
 8001a46:	f1a0 0b20 	sub.w	fp, r0, #32
 8001a4a:	fb03 a30b 	mla	r3, r3, fp, sl
 8001a4e:	6872      	ldr	r2, [r6, #4]
 8001a50:	f832 8013 	ldrh.w	r8, [r2, r3, lsl #1]
		for (j = 0; j < Font->FontWidth; j++) {
 8001a54:	7833      	ldrb	r3, [r6, #0]
 8001a56:	b1a3      	cbz	r3, 8001a82 <SSD1306_Putc+0x6a>
 8001a58:	9c00      	ldr	r4, [sp, #0]
 8001a5a:	2500      	movs	r5, #0
			if ((b << j) & 0x8000) {
 8001a5c:	fa08 f305 	lsl.w	r3, r8, r5
 8001a60:	f413 4f00 	tst.w	r3, #32768	; 0x8000
				SSD1306_DrawPixel(SSD1306.CurrentX + j, (SSD1306.CurrentY + i), (SSD1306_COLOR_t) color);
 8001a64:	bf12      	itee	ne
 8001a66:	464a      	movne	r2, r9
			} else {
				SSD1306_DrawPixel(SSD1306.CurrentX + j, (SSD1306.CurrentY + i), (SSD1306_COLOR_t)!color);
 8001a68:	fab9 f289 	clzeq	r2, r9
 8001a6c:	0952      	lsreq	r2, r2, #5
 8001a6e:	4639      	mov	r1, r7
 8001a70:	4620      	mov	r0, r4
 8001a72:	f7ff ff55 	bl	8001920 <SSD1306_DrawPixel>
		for (j = 0; j < Font->FontWidth; j++) {
 8001a76:	3501      	adds	r5, #1
 8001a78:	3401      	adds	r4, #1
 8001a7a:	b2a4      	uxth	r4, r4
 8001a7c:	7833      	ldrb	r3, [r6, #0]
 8001a7e:	42ab      	cmp	r3, r5
 8001a80:	d8ec      	bhi.n	8001a5c <SSD1306_Putc+0x44>
	for (i = 0; i < Font->FontHeight; i++) {
 8001a82:	f10a 0a01 	add.w	sl, sl, #1
 8001a86:	7873      	ldrb	r3, [r6, #1]
 8001a88:	3701      	adds	r7, #1
 8001a8a:	b2bf      	uxth	r7, r7
 8001a8c:	4553      	cmp	r3, sl
 8001a8e:	d8dc      	bhi.n	8001a4a <SSD1306_Putc+0x32>
			}
		}
	}
	
	/* Increase pointer */
	SSD1306.CurrentX += Font->FontWidth;
 8001a90:	7833      	ldrb	r3, [r6, #0]
 8001a92:	9a00      	ldr	r2, [sp, #0]
 8001a94:	441a      	add	r2, r3
 8001a96:	4613      	mov	r3, r2
 8001a98:	4a04      	ldr	r2, [pc, #16]	; (8001aac <SSD1306_Putc+0x94>)
 8001a9a:	8013      	strh	r3, [r2, #0]
	
	/* Return character written */
	return ch;
 8001a9c:	9801      	ldr	r0, [sp, #4]
}
 8001a9e:	b003      	add	sp, #12
 8001aa0:	e8bd 8ff0 	ldmia.w	sp!, {r4, r5, r6, r7, r8, r9, sl, fp, pc}
		return 0;
 8001aa4:	2000      	movs	r0, #0
 8001aa6:	e7fa      	b.n	8001a9e <SSD1306_Putc+0x86>
 8001aa8:	2000      	movs	r0, #0
 8001aaa:	e7f8      	b.n	8001a9e <SSD1306_Putc+0x86>
 8001aac:	20000958 	.word	0x20000958

08001ab0 <SSD1306_Puts>:

char SSD1306_Puts(char* str, FontDef_t* Font, SSD1306_COLOR_t color) {
 8001ab0:	b570      	push	{r4, r5, r6, lr}
 8001ab2:	4604      	mov	r4, r0
 8001ab4:	460e      	mov	r6, r1
 8001ab6:	4615      	mov	r5, r2
	/* Write characters */
	while (*str) {
 8001ab8:	7800      	ldrb	r0, [r0, #0]
 8001aba:	b158      	cbz	r0, 8001ad4 <SSD1306_Puts+0x24>
		/* Write character by character */
		if (SSD1306_Putc(*str, Font, color) != *str) {
 8001abc:	462a      	mov	r2, r5
 8001abe:	4631      	mov	r1, r6
 8001ac0:	f7ff ffaa 	bl	8001a18 <SSD1306_Putc>
 8001ac4:	4603      	mov	r3, r0
 8001ac6:	7820      	ldrb	r0, [r4, #0]
 8001ac8:	4283      	cmp	r3, r0
 8001aca:	d103      	bne.n	8001ad4 <SSD1306_Puts+0x24>
	while (*str) {
 8001acc:	f814 0f01 	ldrb.w	r0, [r4, #1]!
 8001ad0:	2800      	cmp	r0, #0
 8001ad2:	d1f3      	bne.n	8001abc <SSD1306_Puts+0xc>
		str++;
	}
	
	/* Everything OK, zero should be returned */
	return *str;
}
 8001ad4:	bd70      	pop	{r4, r5, r6, pc}

08001ad6 <SSD1306_DrawLine>:
 

void SSD1306_DrawLine(uint16_t x0, uint16_t y0, uint16_t x1, uint16_t y1, SSD1306_COLOR_t c) {
 8001ad6:	e92d 4ff0 	stmdb	sp!, {r4, r5, r6, r7, r8, r9, sl, fp, lr}
 8001ada:	b085      	sub	sp, #20
 8001adc:	f89d 9038 	ldrb.w	r9, [sp, #56]	; 0x38
	int16_t dx, dy, sx, sy, err, e2, i, tmp; 
	
	/* Check for overflow */
	if (x0 >= SSD1306_WIDTH) {
 8001ae0:	287f      	cmp	r0, #127	; 0x7f
 8001ae2:	bf28      	it	cs
 8001ae4:	207f      	movcs	r0, #127	; 0x7f
 8001ae6:	4605      	mov	r5, r0
		x0 = SSD1306_WIDTH - 1;
	}
	if (x1 >= SSD1306_WIDTH) {
 8001ae8:	2a7f      	cmp	r2, #127	; 0x7f
 8001aea:	bf28      	it	cs
 8001aec:	227f      	movcs	r2, #127	; 0x7f
 8001aee:	4690      	mov	r8, r2
		x1 = SSD1306_WIDTH - 1;
	}
	if (y0 >= SSD1306_HEIGHT) {
 8001af0:	293f      	cmp	r1, #63	; 0x3f
 8001af2:	bf28      	it	cs
 8001af4:	213f      	movcs	r1, #63	; 0x3f
 8001af6:	460c      	mov	r4, r1
		y0 = SSD1306_HEIGHT - 1;
	}
	if (y1 >= SSD1306_HEIGHT) {
 8001af8:	2b3f      	cmp	r3, #63	; 0x3f
 8001afa:	bf28      	it	cs
 8001afc:	233f      	movcs	r3, #63	; 0x3f
 8001afe:	9301      	str	r3, [sp, #4]
		y1 = SSD1306_HEIGHT - 1;
	}
	
	dx = (x0 < x1) ? (x1 - x0) : (x0 - x1); 
 8001b00:	4290      	cmp	r0, r2
 8001b02:	d21c      	bcs.n	8001b3e <SSD1306_DrawLine+0x68>
 8001b04:	eba2 0a00 	sub.w	sl, r2, r0
 8001b08:	fa0f fa8a 	sxth.w	sl, sl
	dy = (y0 < y1) ? (y1 - y0) : (y0 - y1); 
 8001b0c:	4299      	cmp	r1, r3
 8001b0e:	d326      	bcc.n	8001b5e <SSD1306_DrawLine+0x88>
 8001b10:	9b01      	ldr	r3, [sp, #4]
 8001b12:	1ae7      	subs	r7, r4, r3
 8001b14:	b23f      	sxth	r7, r7
	sx = (x0 < x1) ? 1 : -1; 
 8001b16:	4545      	cmp	r5, r8
 8001b18:	d230      	bcs.n	8001b7c <SSD1306_DrawLine+0xa6>
 8001b1a:	2301      	movs	r3, #1
 8001b1c:	9303      	str	r3, [sp, #12]
	sy = (y0 < y1) ? 1 : -1; 
 8001b1e:	f04f 33ff 	mov.w	r3, #4294967295
 8001b22:	9302      	str	r3, [sp, #8]
	err = ((dx > dy) ? dx : -dy) / 2; 
 8001b24:	4557      	cmp	r7, sl
 8001b26:	da2e      	bge.n	8001b86 <SSD1306_DrawLine+0xb0>
 8001b28:	eb0a 76da 	add.w	r6, sl, sl, lsr #31
 8001b2c:	1076      	asrs	r6, r6, #1

	if (dx == 0) {
 8001b2e:	f1ba 0f00 	cmp.w	sl, #0
 8001b32:	d02e      	beq.n	8001b92 <SSD1306_DrawLine+0xbc>
		
		/* Return from function */
		return;
	}
	
	if (dy == 0) {
 8001b34:	2f00      	cmp	r7, #0
 8001b36:	d047      	beq.n	8001bc8 <SSD1306_DrawLine+0xf2>
		SSD1306_DrawPixel(x0, y0, c);
		if (x0 == x1 && y0 == y1) {
			break;
		}
		e2 = err; 
		if (e2 > -dx) {
 8001b38:	f1ca 0b00 	rsb	fp, sl, #0
 8001b3c:	e06c      	b.n	8001c18 <SSD1306_DrawLine+0x142>
	dx = (x0 < x1) ? (x1 - x0) : (x0 - x1); 
 8001b3e:	eba0 0a02 	sub.w	sl, r0, r2
 8001b42:	fa0f fa8a 	sxth.w	sl, sl
	dy = (y0 < y1) ? (y1 - y0) : (y0 - y1); 
 8001b46:	9b01      	ldr	r3, [sp, #4]
 8001b48:	4299      	cmp	r1, r3
 8001b4a:	d2e1      	bcs.n	8001b10 <SSD1306_DrawLine+0x3a>
 8001b4c:	9b01      	ldr	r3, [sp, #4]
 8001b4e:	1a5f      	subs	r7, r3, r1
 8001b50:	b23f      	sxth	r7, r7
	sx = (x0 < x1) ? 1 : -1; 
 8001b52:	f04f 33ff 	mov.w	r3, #4294967295
 8001b56:	9303      	str	r3, [sp, #12]
	sy = (y0 < y1) ? 1 : -1; 
 8001b58:	2301      	movs	r3, #1
 8001b5a:	9302      	str	r3, [sp, #8]
 8001b5c:	e7e2      	b.n	8001b24 <SSD1306_DrawLine+0x4e>
	dy = (y0 < y1) ? (y1 - y0) : (y0 - y1); 
 8001b5e:	9b01      	ldr	r3, [sp, #4]
 8001b60:	1a5f      	subs	r7, r3, r1
 8001b62:	b23f      	sxth	r7, r7
	sx = (x0 < x1) ? 1 : -1; 
 8001b64:	4290      	cmp	r0, r2
 8001b66:	d203      	bcs.n	8001b70 <SSD1306_DrawLine+0x9a>
 8001b68:	2301      	movs	r3, #1
 8001b6a:	9303      	str	r3, [sp, #12]
	sy = (y0 < y1) ? 1 : -1; 
 8001b6c:	9302      	str	r3, [sp, #8]
 8001b6e:	e7d9      	b.n	8001b24 <SSD1306_DrawLine+0x4e>
	sx = (x0 < x1) ? 1 : -1; 
 8001b70:	f04f 33ff 	mov.w	r3, #4294967295
 8001b74:	9303      	str	r3, [sp, #12]
	sy = (y0 < y1) ? 1 : -1; 
 8001b76:	2301      	movs	r3, #1
 8001b78:	9302      	str	r3, [sp, #8]
 8001b7a:	e7d3      	b.n	8001b24 <SSD1306_DrawLine+0x4e>
	sx = (x0 < x1) ? 1 : -1; 
 8001b7c:	f04f 33ff 	mov.w	r3, #4294967295
 8001b80:	9303      	str	r3, [sp, #12]
	sy = (y0 < y1) ? 1 : -1; 
 8001b82:	9302      	str	r3, [sp, #8]
 8001b84:	e7ce      	b.n	8001b24 <SSD1306_DrawLine+0x4e>
	err = ((dx > dy) ? dx : -dy) / 2; 
 8001b86:	eb07 76d7 	add.w	r6, r7, r7, lsr #31
 8001b8a:	1076      	asrs	r6, r6, #1
 8001b8c:	4276      	negs	r6, r6
 8001b8e:	b236      	sxth	r6, r6
 8001b90:	e7cd      	b.n	8001b2e <SSD1306_DrawLine+0x58>
		if (y1 < y0) {
 8001b92:	9a01      	ldr	r2, [sp, #4]
 8001b94:	4294      	cmp	r4, r2
 8001b96:	d902      	bls.n	8001b9e <SSD1306_DrawLine+0xc8>
 8001b98:	4623      	mov	r3, r4
			y0 = tmp;
 8001b9a:	4614      	mov	r4, r2
			y1 = y0;
 8001b9c:	9301      	str	r3, [sp, #4]
		if (x1 < x0) {
 8001b9e:	45a8      	cmp	r8, r5
 8001ba0:	bf28      	it	cs
 8001ba2:	46a8      	movcs	r8, r5
 8001ba4:	fa1f f888 	uxth.w	r8, r8
		for (i = y0; i <= y1; i++) {
 8001ba8:	b224      	sxth	r4, r4
 8001baa:	9b01      	ldr	r3, [sp, #4]
 8001bac:	461d      	mov	r5, r3
 8001bae:	429c      	cmp	r4, r3
 8001bb0:	dc26      	bgt.n	8001c00 <SSD1306_DrawLine+0x12a>
			SSD1306_DrawPixel(x0, i, c);
 8001bb2:	b2a4      	uxth	r4, r4
 8001bb4:	464a      	mov	r2, r9
 8001bb6:	4621      	mov	r1, r4
 8001bb8:	4640      	mov	r0, r8
 8001bba:	f7ff feb1 	bl	8001920 <SSD1306_DrawPixel>
		for (i = y0; i <= y1; i++) {
 8001bbe:	3401      	adds	r4, #1
 8001bc0:	b224      	sxth	r4, r4
 8001bc2:	42ac      	cmp	r4, r5
 8001bc4:	ddf5      	ble.n	8001bb2 <SSD1306_DrawLine+0xdc>
 8001bc6:	e01b      	b.n	8001c00 <SSD1306_DrawLine+0x12a>
		if (y1 < y0) {
 8001bc8:	9b01      	ldr	r3, [sp, #4]
 8001bca:	429c      	cmp	r4, r3
 8001bcc:	bf28      	it	cs
 8001bce:	461c      	movcs	r4, r3
 8001bd0:	b2a4      	uxth	r4, r4
		if (x1 < x0) {
 8001bd2:	4545      	cmp	r5, r8
 8001bd4:	d902      	bls.n	8001bdc <SSD1306_DrawLine+0x106>
 8001bd6:	462b      	mov	r3, r5
			x0 = tmp;
 8001bd8:	4645      	mov	r5, r8
			x1 = x0;
 8001bda:	4698      	mov	r8, r3
		for (i = x0; i <= x1; i++) {
 8001bdc:	b22d      	sxth	r5, r5
 8001bde:	4646      	mov	r6, r8
 8001be0:	4545      	cmp	r5, r8
 8001be2:	dc0d      	bgt.n	8001c00 <SSD1306_DrawLine+0x12a>
			SSD1306_DrawPixel(i, y0, c);
 8001be4:	b2ad      	uxth	r5, r5
 8001be6:	464a      	mov	r2, r9
 8001be8:	4621      	mov	r1, r4
 8001bea:	4628      	mov	r0, r5
 8001bec:	f7ff fe98 	bl	8001920 <SSD1306_DrawPixel>
		for (i = x0; i <= x1; i++) {
 8001bf0:	3501      	adds	r5, #1
 8001bf2:	b22d      	sxth	r5, r5
 8001bf4:	42b5      	cmp	r5, r6
 8001bf6:	ddf5      	ble.n	8001be4 <SSD1306_DrawLine+0x10e>
 8001bf8:	e002      	b.n	8001c00 <SSD1306_DrawLine+0x12a>
		if (x0 == x1 && y0 == y1) {
 8001bfa:	9b01      	ldr	r3, [sp, #4]
 8001bfc:	429c      	cmp	r4, r3
 8001bfe:	d112      	bne.n	8001c26 <SSD1306_DrawLine+0x150>
		if (e2 < dy) {
			err += dx;
			y0 += sy;
		} 
	}
}
 8001c00:	b005      	add	sp, #20
 8001c02:	e8bd 8ff0 	ldmia.w	sp!, {r4, r5, r6, r7, r8, r9, sl, fp, pc}
 8001c06:	4633      	mov	r3, r6
		if (e2 < dy) {
 8001c08:	42be      	cmp	r6, r7
 8001c0a:	da04      	bge.n	8001c16 <SSD1306_DrawLine+0x140>
			err += dx;
 8001c0c:	4453      	add	r3, sl
 8001c0e:	b21b      	sxth	r3, r3
			y0 += sy;
 8001c10:	9a02      	ldr	r2, [sp, #8]
 8001c12:	4414      	add	r4, r2
 8001c14:	b2a4      	uxth	r4, r4
			x1 = x0;
 8001c16:	461e      	mov	r6, r3
		SSD1306_DrawPixel(x0, y0, c);
 8001c18:	464a      	mov	r2, r9
 8001c1a:	4621      	mov	r1, r4
 8001c1c:	4628      	mov	r0, r5
 8001c1e:	f7ff fe7f 	bl	8001920 <SSD1306_DrawPixel>
		if (x0 == x1 && y0 == y1) {
 8001c22:	45a8      	cmp	r8, r5
 8001c24:	d0e9      	beq.n	8001bfa <SSD1306_DrawLine+0x124>
		if (e2 > -dx) {
 8001c26:	455e      	cmp	r6, fp
 8001c28:	dded      	ble.n	8001c06 <SSD1306_DrawLine+0x130>
			err -= dy;
 8001c2a:	1bf3      	subs	r3, r6, r7
 8001c2c:	b21b      	sxth	r3, r3
			x0 += sx;
 8001c2e:	9a03      	ldr	r2, [sp, #12]
 8001c30:	4415      	add	r5, r2
 8001c32:	b2ad      	uxth	r5, r5
 8001c34:	e7e8      	b.n	8001c08 <SSD1306_DrawLine+0x132>

08001c36 <SSD1306_DrawRectangle>:

void SSD1306_DrawRectangle(uint16_t x, uint16_t y, uint16_t w, uint16_t h, SSD1306_COLOR_t c) {
 8001c36:	e92d 41f0 	stmdb	sp!, {r4, r5, r6, r7, r8, lr}
 8001c3a:	b082      	sub	sp, #8
 8001c3c:	f89d 8020 	ldrb.w	r8, [sp, #32]
	/* Check input parameters */
	if (
 8001c40:	287f      	cmp	r0, #127	; 0x7f
 8001c42:	d832      	bhi.n	8001caa <SSD1306_DrawRectangle+0x74>
 8001c44:	4606      	mov	r6, r0
 8001c46:	460f      	mov	r7, r1
 8001c48:	461d      	mov	r5, r3
		x >= SSD1306_WIDTH ||
 8001c4a:	293f      	cmp	r1, #63	; 0x3f
 8001c4c:	d82d      	bhi.n	8001caa <SSD1306_DrawRectangle+0x74>
		/* Return error */
		return;
	}
	
	/* Check width and height */
	if ((x + w) >= SSD1306_WIDTH) {
 8001c4e:	1883      	adds	r3, r0, r2
 8001c50:	2b7f      	cmp	r3, #127	; 0x7f
		w = SSD1306_WIDTH - x;
 8001c52:	bfc4      	itt	gt
 8001c54:	f1c0 0280 	rsbgt	r2, r0, #128	; 0x80
 8001c58:	b292      	uxthgt	r2, r2
	}
	if ((y + h) >= SSD1306_HEIGHT) {
 8001c5a:	194b      	adds	r3, r1, r5
 8001c5c:	2b3f      	cmp	r3, #63	; 0x3f
		h = SSD1306_HEIGHT - y;
 8001c5e:	bfc4      	itt	gt
 8001c60:	f1c1 0540 	rsbgt	r5, r1, #64	; 0x40
 8001c64:	b2ad      	uxthgt	r5, r5
	}
	
	/* Draw 4 lines */
	SSD1306_DrawLine(x, y, x + w, y, c);         /* Top line */
 8001c66:	1814      	adds	r4, r2, r0
 8001c68:	b2a4      	uxth	r4, r4
 8001c6a:	f8cd 8000 	str.w	r8, [sp]
 8001c6e:	460b      	mov	r3, r1
 8001c70:	4622      	mov	r2, r4
 8001c72:	f7ff ff30 	bl	8001ad6 <SSD1306_DrawLine>
	SSD1306_DrawLine(x, y + h, x + w, y + h, c); /* Bottom line */
 8001c76:	443d      	add	r5, r7
 8001c78:	b2ad      	uxth	r5, r5
 8001c7a:	f8cd 8000 	str.w	r8, [sp]
 8001c7e:	462b      	mov	r3, r5
 8001c80:	4622      	mov	r2, r4
 8001c82:	4629      	mov	r1, r5
 8001c84:	4630      	mov	r0, r6
 8001c86:	f7ff ff26 	bl	8001ad6 <SSD1306_DrawLine>
	SSD1306_DrawLine(x, y, x, y + h, c);         /* Left line */
 8001c8a:	f8cd 8000 	str.w	r8, [sp]
 8001c8e:	462b      	mov	r3, r5
 8001c90:	4632      	mov	r2, r6
 8001c92:	4639      	mov	r1, r7
 8001c94:	4630      	mov	r0, r6
 8001c96:	f7ff ff1e 	bl	8001ad6 <SSD1306_DrawLine>
	SSD1306_DrawLine(x + w, y, x + w, y + h, c); /* Right line */
 8001c9a:	f8cd 8000 	str.w	r8, [sp]
 8001c9e:	462b      	mov	r3, r5
 8001ca0:	4622      	mov	r2, r4
 8001ca2:	4639      	mov	r1, r7
 8001ca4:	4620      	mov	r0, r4
 8001ca6:	f7ff ff16 	bl	8001ad6 <SSD1306_DrawLine>
}
 8001caa:	b002      	add	sp, #8
 8001cac:	e8bd 81f0 	ldmia.w	sp!, {r4, r5, r6, r7, r8, pc}

08001cb0 <SSD1306_DrawCircle>:
		x += xinc2;
		y += yinc2;
	}
}

void SSD1306_DrawCircle(int16_t x0, int16_t y0, int16_t r, SSD1306_COLOR_t c) {
 8001cb0:	e92d 4ff0 	stmdb	sp!, {r4, r5, r6, r7, r8, r9, sl, fp, lr}
 8001cb4:	b085      	sub	sp, #20
 8001cb6:	4615      	mov	r5, r2
 8001cb8:	9200      	str	r2, [sp, #0]
 8001cba:	461e      	mov	r6, r3
	int16_t f = 1 - r;
 8001cbc:	b294      	uxth	r4, r2
 8001cbe:	f1c4 0301 	rsb	r3, r4, #1
 8001cc2:	fa0f f983 	sxth.w	r9, r3
	int16_t ddF_x = 1;
	int16_t ddF_y = -2 * r;
 8001cc6:	ebc4 33c4 	rsb	r3, r4, r4, lsl #15
 8001cca:	005b      	lsls	r3, r3, #1
 8001ccc:	b21b      	sxth	r3, r3
 8001cce:	9303      	str	r3, [sp, #12]
	int16_t x = 0;
	int16_t y = r;

    SSD1306_DrawPixel(x0, y0 + r, c);
 8001cd0:	fa1f fa80 	uxth.w	sl, r0
 8001cd4:	fa1f fb81 	uxth.w	fp, r1
 8001cd8:	eb04 010b 	add.w	r1, r4, fp
 8001cdc:	4632      	mov	r2, r6
 8001cde:	b289      	uxth	r1, r1
 8001ce0:	4650      	mov	r0, sl
 8001ce2:	f7ff fe1d 	bl	8001920 <SSD1306_DrawPixel>
    SSD1306_DrawPixel(x0, y0 - r, c);
 8001ce6:	ebab 0104 	sub.w	r1, fp, r4
 8001cea:	4632      	mov	r2, r6
 8001cec:	b289      	uxth	r1, r1
 8001cee:	4650      	mov	r0, sl
 8001cf0:	f7ff fe16 	bl	8001920 <SSD1306_DrawPixel>
    SSD1306_DrawPixel(x0 + r, y0, c);
 8001cf4:	eb04 000a 	add.w	r0, r4, sl
 8001cf8:	4632      	mov	r2, r6
 8001cfa:	4659      	mov	r1, fp
 8001cfc:	b280      	uxth	r0, r0
 8001cfe:	f7ff fe0f 	bl	8001920 <SSD1306_DrawPixel>
    SSD1306_DrawPixel(x0 - r, y0, c);
 8001d02:	ebaa 0004 	sub.w	r0, sl, r4
 8001d06:	4632      	mov	r2, r6
 8001d08:	4659      	mov	r1, fp
 8001d0a:	b280      	uxth	r0, r0
 8001d0c:	f7ff fe08 	bl	8001920 <SSD1306_DrawPixel>

    while (x < y) {
 8001d10:	2d00      	cmp	r5, #0
 8001d12:	dd65      	ble.n	8001de0 <SSD1306_DrawCircle+0x130>
	int16_t x = 0;
 8001d14:	2300      	movs	r3, #0
 8001d16:	9301      	str	r3, [sp, #4]
 8001d18:	e05e      	b.n	8001dd8 <SSD1306_DrawCircle+0x128>
        if (f >= 0) {
            y--;
 8001d1a:	9b00      	ldr	r3, [sp, #0]
 8001d1c:	3b01      	subs	r3, #1
 8001d1e:	b21b      	sxth	r3, r3
 8001d20:	9300      	str	r3, [sp, #0]
            ddF_y += 2;
 8001d22:	9b03      	ldr	r3, [sp, #12]
 8001d24:	3302      	adds	r3, #2
 8001d26:	b21a      	sxth	r2, r3
 8001d28:	9203      	str	r2, [sp, #12]
            f += ddF_y;
 8001d2a:	444b      	add	r3, r9
 8001d2c:	fa0f f983 	sxth.w	r9, r3
        }
        x++;
 8001d30:	9b01      	ldr	r3, [sp, #4]
 8001d32:	3301      	adds	r3, #1
 8001d34:	b29c      	uxth	r4, r3
 8001d36:	b21b      	sxth	r3, r3
 8001d38:	9301      	str	r3, [sp, #4]
        ddF_x += 2;
 8001d3a:	eb09 0944 	add.w	r9, r9, r4, lsl #1
        f += ddF_x;
 8001d3e:	f109 0901 	add.w	r9, r9, #1
 8001d42:	fa0f f989 	sxth.w	r9, r9

        SSD1306_DrawPixel(x0 + x, y0 + y, c);
 8001d46:	eb0a 0304 	add.w	r3, sl, r4
 8001d4a:	b298      	uxth	r0, r3
 8001d4c:	f8bd 5000 	ldrh.w	r5, [sp]
 8001d50:	eb0b 0805 	add.w	r8, fp, r5
 8001d54:	fa1f f888 	uxth.w	r8, r8
 8001d58:	4632      	mov	r2, r6
 8001d5a:	4641      	mov	r1, r8
 8001d5c:	9002      	str	r0, [sp, #8]
 8001d5e:	f7ff fddf 	bl	8001920 <SSD1306_DrawPixel>
        SSD1306_DrawPixel(x0 - x, y0 + y, c);
 8001d62:	ebaa 0704 	sub.w	r7, sl, r4
 8001d66:	b2bf      	uxth	r7, r7
 8001d68:	4632      	mov	r2, r6
 8001d6a:	4641      	mov	r1, r8
 8001d6c:	4638      	mov	r0, r7
 8001d6e:	f7ff fdd7 	bl	8001920 <SSD1306_DrawPixel>
        SSD1306_DrawPixel(x0 + x, y0 - y, c);
 8001d72:	ebab 0805 	sub.w	r8, fp, r5
 8001d76:	fa1f f888 	uxth.w	r8, r8
 8001d7a:	4632      	mov	r2, r6
 8001d7c:	4641      	mov	r1, r8
 8001d7e:	9802      	ldr	r0, [sp, #8]
 8001d80:	f7ff fdce 	bl	8001920 <SSD1306_DrawPixel>
        SSD1306_DrawPixel(x0 - x, y0 - y, c);
 8001d84:	4632      	mov	r2, r6
 8001d86:	4641      	mov	r1, r8
 8001d88:	4638      	mov	r0, r7
 8001d8a:	f7ff fdc9 	bl	8001920 <SSD1306_DrawPixel>

        SSD1306_DrawPixel(x0 + y, y0 + x, c);
 8001d8e:	eb0a 0705 	add.w	r7, sl, r5
 8001d92:	b2bf      	uxth	r7, r7
 8001d94:	eb0b 0804 	add.w	r8, fp, r4
 8001d98:	fa1f f888 	uxth.w	r8, r8
 8001d9c:	4632      	mov	r2, r6
 8001d9e:	4641      	mov	r1, r8
 8001da0:	4638      	mov	r0, r7
 8001da2:	f7ff fdbd 	bl	8001920 <SSD1306_DrawPixel>
        SSD1306_DrawPixel(x0 - y, y0 + x, c);
 8001da6:	ebaa 0505 	sub.w	r5, sl, r5
 8001daa:	b2ad      	uxth	r5, r5
 8001dac:	4632      	mov	r2, r6
 8001dae:	4641      	mov	r1, r8
 8001db0:	4628      	mov	r0, r5
 8001db2:	f7ff fdb5 	bl	8001920 <SSD1306_DrawPixel>
        SSD1306_DrawPixel(x0 + y, y0 - x, c);
 8001db6:	ebab 0404 	sub.w	r4, fp, r4
 8001dba:	b2a4      	uxth	r4, r4
 8001dbc:	4632      	mov	r2, r6
 8001dbe:	4621      	mov	r1, r4
 8001dc0:	4638      	mov	r0, r7
 8001dc2:	f7ff fdad 	bl	8001920 <SSD1306_DrawPixel>
        SSD1306_DrawPixel(x0 - y, y0 - x, c);
 8001dc6:	4632      	mov	r2, r6
 8001dc8:	4621      	mov	r1, r4
 8001dca:	4628      	mov	r0, r5
 8001dcc:	f7ff fda8 	bl	8001920 <SSD1306_DrawPixel>
    while (x < y) {
 8001dd0:	9a00      	ldr	r2, [sp, #0]
 8001dd2:	9b01      	ldr	r3, [sp, #4]
 8001dd4:	429a      	cmp	r2, r3
 8001dd6:	dd03      	ble.n	8001de0 <SSD1306_DrawCircle+0x130>
        if (f >= 0) {
 8001dd8:	f1b9 0f00 	cmp.w	r9, #0
 8001ddc:	da9d      	bge.n	8001d1a <SSD1306_DrawCircle+0x6a>
 8001dde:	e7a7      	b.n	8001d30 <SSD1306_DrawCircle+0x80>
    }
}
 8001de0:	b005      	add	sp, #20
 8001de2:	e8bd 8ff0 	ldmia.w	sp!, {r4, r5, r6, r7, r8, r9, sl, fp, pc}

08001de6 <SSD1306_DrawFilledCircle>:

void SSD1306_DrawFilledCircle(int16_t x0, int16_t y0, int16_t r, SSD1306_COLOR_t c) {
 8001de6:	e92d 4ff0 	stmdb	sp!, {r4, r5, r6, r7, r8, r9, sl, fp, lr}
 8001dea:	b087      	sub	sp, #28
 8001dec:	4690      	mov	r8, r2
 8001dee:	9203      	str	r2, [sp, #12]
 8001df0:	469a      	mov	sl, r3
	int16_t f = 1 - r;
 8001df2:	b295      	uxth	r5, r2
 8001df4:	f1c5 0401 	rsb	r4, r5, #1
	int16_t ddF_x = 1;
	int16_t ddF_y = -2 * r;
 8001df8:	ebc5 33c5 	rsb	r3, r5, r5, lsl #15
 8001dfc:	005b      	lsls	r3, r3, #1
 8001dfe:	b21b      	sxth	r3, r3
 8001e00:	9305      	str	r3, [sp, #20]
	int16_t x = 0;
	int16_t y = r;

    SSD1306_DrawPixel(x0, y0 + r, c);
 8001e02:	fa1f fb80 	uxth.w	fp, r0
 8001e06:	b28f      	uxth	r7, r1
 8001e08:	19e9      	adds	r1, r5, r7
 8001e0a:	4652      	mov	r2, sl
 8001e0c:	b289      	uxth	r1, r1
 8001e0e:	4658      	mov	r0, fp
 8001e10:	f7ff fd86 	bl	8001920 <SSD1306_DrawPixel>
    SSD1306_DrawPixel(x0, y0 - r, c);
 8001e14:	1b79      	subs	r1, r7, r5
 8001e16:	4652      	mov	r2, sl
 8001e18:	b289      	uxth	r1, r1
 8001e1a:	4658      	mov	r0, fp
 8001e1c:	f7ff fd80 	bl	8001920 <SSD1306_DrawPixel>
    SSD1306_DrawPixel(x0 + r, y0, c);
 8001e20:	eb05 060b 	add.w	r6, r5, fp
 8001e24:	b2b6      	uxth	r6, r6
 8001e26:	4652      	mov	r2, sl
 8001e28:	4639      	mov	r1, r7
 8001e2a:	4630      	mov	r0, r6
 8001e2c:	f7ff fd78 	bl	8001920 <SSD1306_DrawPixel>
    SSD1306_DrawPixel(x0 - r, y0, c);
 8001e30:	ebab 0505 	sub.w	r5, fp, r5
 8001e34:	b2ad      	uxth	r5, r5
 8001e36:	4652      	mov	r2, sl
 8001e38:	4639      	mov	r1, r7
 8001e3a:	4628      	mov	r0, r5
 8001e3c:	f7ff fd70 	bl	8001920 <SSD1306_DrawPixel>
    SSD1306_DrawLine(x0 - r, y0, x0 + r, y0, c);
 8001e40:	f8cd a000 	str.w	sl, [sp]
 8001e44:	463b      	mov	r3, r7
 8001e46:	4632      	mov	r2, r6
 8001e48:	4639      	mov	r1, r7
 8001e4a:	4628      	mov	r0, r5
 8001e4c:	f7ff fe43 	bl	8001ad6 <SSD1306_DrawLine>

    while (x < y) {
 8001e50:	4643      	mov	r3, r8
 8001e52:	2b00      	cmp	r3, #0
 8001e54:	dd52      	ble.n	8001efc <SSD1306_DrawFilledCircle+0x116>
 8001e56:	b224      	sxth	r4, r4
	int16_t x = 0;
 8001e58:	2300      	movs	r3, #0
 8001e5a:	9304      	str	r3, [sp, #16]
 8001e5c:	e04b      	b.n	8001ef6 <SSD1306_DrawFilledCircle+0x110>
        if (f >= 0) {
            y--;
 8001e5e:	9b03      	ldr	r3, [sp, #12]
 8001e60:	3b01      	subs	r3, #1
 8001e62:	b21b      	sxth	r3, r3
 8001e64:	9303      	str	r3, [sp, #12]
            ddF_y += 2;
 8001e66:	9b05      	ldr	r3, [sp, #20]
 8001e68:	3302      	adds	r3, #2
 8001e6a:	b21a      	sxth	r2, r3
 8001e6c:	9205      	str	r2, [sp, #20]
            f += ddF_y;
 8001e6e:	4423      	add	r3, r4
 8001e70:	b21c      	sxth	r4, r3
        }
        x++;
 8001e72:	9b04      	ldr	r3, [sp, #16]
 8001e74:	3301      	adds	r3, #1
 8001e76:	b29d      	uxth	r5, r3
 8001e78:	b21b      	sxth	r3, r3
 8001e7a:	9304      	str	r3, [sp, #16]
        ddF_x += 2;
 8001e7c:	eb04 0445 	add.w	r4, r4, r5, lsl #1
        f += ddF_x;
 8001e80:	3401      	adds	r4, #1
 8001e82:	b224      	sxth	r4, r4

        SSD1306_DrawLine(x0 - x, y0 + y, x0 + x, y0 + y, c);
 8001e84:	ebab 0905 	sub.w	r9, fp, r5
 8001e88:	fa1f f989 	uxth.w	r9, r9
 8001e8c:	f8bd 600c 	ldrh.w	r6, [sp, #12]
 8001e90:	19b9      	adds	r1, r7, r6
 8001e92:	b289      	uxth	r1, r1
 8001e94:	eb0b 0805 	add.w	r8, fp, r5
 8001e98:	fa1f f888 	uxth.w	r8, r8
 8001e9c:	f8cd a000 	str.w	sl, [sp]
 8001ea0:	460b      	mov	r3, r1
 8001ea2:	4642      	mov	r2, r8
 8001ea4:	4648      	mov	r0, r9
 8001ea6:	f7ff fe16 	bl	8001ad6 <SSD1306_DrawLine>
        SSD1306_DrawLine(x0 + x, y0 - y, x0 - x, y0 - y, c);
 8001eaa:	1bb9      	subs	r1, r7, r6
 8001eac:	b289      	uxth	r1, r1
 8001eae:	f8cd a000 	str.w	sl, [sp]
 8001eb2:	460b      	mov	r3, r1
 8001eb4:	464a      	mov	r2, r9
 8001eb6:	4640      	mov	r0, r8
 8001eb8:	f7ff fe0d 	bl	8001ad6 <SSD1306_DrawLine>

        SSD1306_DrawLine(x0 + y, y0 + x, x0 - y, y0 + x, c);
 8001ebc:	eb0b 0806 	add.w	r8, fp, r6
 8001ec0:	fa1f f888 	uxth.w	r8, r8
 8001ec4:	1979      	adds	r1, r7, r5
 8001ec6:	b289      	uxth	r1, r1
 8001ec8:	ebab 0606 	sub.w	r6, fp, r6
 8001ecc:	b2b6      	uxth	r6, r6
 8001ece:	f8cd a000 	str.w	sl, [sp]
 8001ed2:	460b      	mov	r3, r1
 8001ed4:	4632      	mov	r2, r6
 8001ed6:	4640      	mov	r0, r8
 8001ed8:	f7ff fdfd 	bl	8001ad6 <SSD1306_DrawLine>
        SSD1306_DrawLine(x0 + y, y0 - x, x0 - y, y0 - x, c);
 8001edc:	1b79      	subs	r1, r7, r5
 8001ede:	b289      	uxth	r1, r1
 8001ee0:	f8cd a000 	str.w	sl, [sp]
 8001ee4:	460b      	mov	r3, r1
 8001ee6:	4632      	mov	r2, r6
 8001ee8:	4640      	mov	r0, r8
 8001eea:	f7ff fdf4 	bl	8001ad6 <SSD1306_DrawLine>
    while (x < y) {
 8001eee:	9a03      	ldr	r2, [sp, #12]
 8001ef0:	9b04      	ldr	r3, [sp, #16]
 8001ef2:	429a      	cmp	r2, r3
 8001ef4:	dd02      	ble.n	8001efc <SSD1306_DrawFilledCircle+0x116>
        if (f >= 0) {
 8001ef6:	2c00      	cmp	r4, #0
 8001ef8:	dab1      	bge.n	8001e5e <SSD1306_DrawFilledCircle+0x78>
 8001efa:	e7ba      	b.n	8001e72 <SSD1306_DrawFilledCircle+0x8c>
    }
}
 8001efc:	b007      	add	sp, #28
 8001efe:	e8bd 8ff0 	ldmia.w	sp!, {r4, r5, r6, r7, r8, r9, sl, fp, pc}
	...

08001f04 <ssd1306_I2C_WriteMulti>:
	//while(p>0)
	//	p--;
	//MX_I2C1_Init();
}

void ssd1306_I2C_WriteMulti(uint8_t address, uint8_t reg, uint8_t* data, uint16_t count) {
 8001f04:	b500      	push	{lr}
 8001f06:	b0c3      	sub	sp, #268	; 0x10c
uint8_t dt[256];
dt[0] = reg;
 8001f08:	f88d 1008 	strb.w	r1, [sp, #8]
uint8_t i;
for(i = 0; i < count; i++)
 8001f0c:	4619      	mov	r1, r3
 8001f0e:	b173      	cbz	r3, 8001f2e <ssd1306_I2C_WriteMulti+0x2a>
 8001f10:	f04f 0e00 	mov.w	lr, #0
dt[i+1] = data[i];
 8001f14:	ab02      	add	r3, sp, #8
 8001f16:	eb03 0c0e 	add.w	ip, r3, lr
 8001f1a:	f812 300e 	ldrb.w	r3, [r2, lr]
 8001f1e:	f88c 3001 	strb.w	r3, [ip, #1]
for(i = 0; i < count; i++)
 8001f22:	f10e 0c01 	add.w	ip, lr, #1
 8001f26:	fa5f fe8c 	uxtb.w	lr, ip
 8001f2a:	458e      	cmp	lr, r1
 8001f2c:	d3f2      	bcc.n	8001f14 <ssd1306_I2C_WriteMulti+0x10>
HAL_I2C_Master_Transmit(&hi2c1, address, dt, count+1, 10);
 8001f2e:	1c4b      	adds	r3, r1, #1
 8001f30:	220a      	movs	r2, #10
 8001f32:	9200      	str	r2, [sp, #0]
 8001f34:	b29b      	uxth	r3, r3
 8001f36:	aa02      	add	r2, sp, #8
 8001f38:	4601      	mov	r1, r0
 8001f3a:	4803      	ldr	r0, [pc, #12]	; (8001f48 <ssd1306_I2C_WriteMulti+0x44>)
 8001f3c:	f001 f9c0 	bl	80032c0 <HAL_I2C_Master_Transmit>
}
 8001f40:	b043      	add	sp, #268	; 0x10c
 8001f42:	f85d fb04 	ldr.w	pc, [sp], #4
 8001f46:	bf00      	nop
 8001f48:	200007a8 	.word	0x200007a8

08001f4c <ssd1306_I2C_Write>:


void ssd1306_I2C_Write(uint8_t address, uint8_t reg, uint8_t data) {
 8001f4c:	b500      	push	{lr}
 8001f4e:	b085      	sub	sp, #20
	uint8_t dt[2];
	dt[0] = reg;
 8001f50:	f88d 100c 	strb.w	r1, [sp, #12]
	dt[1] = data;
 8001f54:	f88d 200d 	strb.w	r2, [sp, #13]
	HAL_I2C_Master_Transmit(&hi2c1, address, dt, 2, 10);
 8001f58:	230a      	movs	r3, #10
 8001f5a:	9300      	str	r3, [sp, #0]
 8001f5c:	2302      	movs	r3, #2
 8001f5e:	aa03      	add	r2, sp, #12
 8001f60:	4601      	mov	r1, r0
 8001f62:	4803      	ldr	r0, [pc, #12]	; (8001f70 <ssd1306_I2C_Write+0x24>)
 8001f64:	f001 f9ac 	bl	80032c0 <HAL_I2C_Master_Transmit>
}
 8001f68:	b005      	add	sp, #20
 8001f6a:	f85d fb04 	ldr.w	pc, [sp], #4
 8001f6e:	bf00      	nop
 8001f70:	200007a8 	.word	0x200007a8

08001f74 <SSD1306_UpdateScreen>:
void SSD1306_UpdateScreen(void) {
 8001f74:	e92d 41f0 	stmdb	sp!, {r4, r5, r6, r7, r8, lr}
	for (m = 0; m < 8; m++) {
 8001f78:	4f10      	ldr	r7, [pc, #64]	; (8001fbc <SSD1306_UpdateScreen+0x48>)
void SSD1306_UpdateScreen(void) {
 8001f7a:	24b0      	movs	r4, #176	; 0xb0
		SSD1306_WRITECOMMAND(0xB0 + m);
 8001f7c:	2600      	movs	r6, #0
 8001f7e:	2578      	movs	r5, #120	; 0x78
		SSD1306_WRITECOMMAND(0x10);
 8001f80:	f04f 0810 	mov.w	r8, #16
		SSD1306_WRITECOMMAND(0xB0 + m);
 8001f84:	4622      	mov	r2, r4
 8001f86:	4631      	mov	r1, r6
 8001f88:	4628      	mov	r0, r5
 8001f8a:	f7ff ffdf 	bl	8001f4c <ssd1306_I2C_Write>
		SSD1306_WRITECOMMAND(0x00);
 8001f8e:	4632      	mov	r2, r6
 8001f90:	4631      	mov	r1, r6
 8001f92:	4628      	mov	r0, r5
 8001f94:	f7ff ffda 	bl	8001f4c <ssd1306_I2C_Write>
		SSD1306_WRITECOMMAND(0x10);
 8001f98:	4642      	mov	r2, r8
 8001f9a:	4631      	mov	r1, r6
 8001f9c:	4628      	mov	r0, r5
 8001f9e:	f7ff ffd5 	bl	8001f4c <ssd1306_I2C_Write>
		ssd1306_I2C_WriteMulti(SSD1306_I2C_ADDR, 0x40, &SSD1306_Buffer[SSD1306_WIDTH * m], SSD1306_WIDTH);
 8001fa2:	2380      	movs	r3, #128	; 0x80
 8001fa4:	463a      	mov	r2, r7
 8001fa6:	2140      	movs	r1, #64	; 0x40
 8001fa8:	4628      	mov	r0, r5
 8001faa:	f7ff ffab 	bl	8001f04 <ssd1306_I2C_WriteMulti>
	for (m = 0; m < 8; m++) {
 8001fae:	3401      	adds	r4, #1
 8001fb0:	b2e4      	uxtb	r4, r4
 8001fb2:	3780      	adds	r7, #128	; 0x80
 8001fb4:	2cb8      	cmp	r4, #184	; 0xb8
 8001fb6:	d1e5      	bne.n	8001f84 <SSD1306_UpdateScreen+0x10>
}
 8001fb8:	e8bd 81f0 	ldmia.w	sp!, {r4, r5, r6, r7, r8, pc}
 8001fbc:	20000960 	.word	0x20000960

08001fc0 <SSD1306_Clear>:
{
 8001fc0:	b508      	push	{r3, lr}
	SSD1306_Fill (0);
 8001fc2:	2000      	movs	r0, #0
 8001fc4:	f7ff fc9e 	bl	8001904 <SSD1306_Fill>
    SSD1306_UpdateScreen();
 8001fc8:	f7ff ffd4 	bl	8001f74 <SSD1306_UpdateScreen>
}
 8001fcc:	bd08      	pop	{r3, pc}
	...

08001fd0 <SSD1306_Init>:
uint8_t SSD1306_Init(void) {
 8001fd0:	b508      	push	{r3, lr}
	if (HAL_I2C_IsDeviceReady(&hi2c1, SSD1306_I2C_ADDR, 1, 20000) != HAL_OK) {
 8001fd2:	f644 6320 	movw	r3, #20000	; 0x4e20
 8001fd6:	2201      	movs	r2, #1
 8001fd8:	2178      	movs	r1, #120	; 0x78
 8001fda:	4854      	ldr	r0, [pc, #336]	; (800212c <SSD1306_Init+0x15c>)
 8001fdc:	f001 fa74 	bl	80034c8 <HAL_I2C_IsDeviceReady>
 8001fe0:	2800      	cmp	r0, #0
 8001fe2:	f040 80a1 	bne.w	8002128 <SSD1306_Init+0x158>
 8001fe6:	f640 13c4 	movw	r3, #2500	; 0x9c4
	while(p>0)
 8001fea:	3b01      	subs	r3, #1
 8001fec:	d1fd      	bne.n	8001fea <SSD1306_Init+0x1a>
	SSD1306_WRITECOMMAND(0xAE); //display off
 8001fee:	22ae      	movs	r2, #174	; 0xae
 8001ff0:	2100      	movs	r1, #0
 8001ff2:	2078      	movs	r0, #120	; 0x78
 8001ff4:	f7ff ffaa 	bl	8001f4c <ssd1306_I2C_Write>
	SSD1306_WRITECOMMAND(0x20); //Set Memory Addressing Mode   
 8001ff8:	2220      	movs	r2, #32
 8001ffa:	2100      	movs	r1, #0
 8001ffc:	2078      	movs	r0, #120	; 0x78
 8001ffe:	f7ff ffa5 	bl	8001f4c <ssd1306_I2C_Write>
	SSD1306_WRITECOMMAND(0x10); //00,Horizontal Addressing Mode;01,Vertical Addressing Mode;10,Page Addressing Mode (RESET);11,Invalid
 8002002:	2210      	movs	r2, #16
 8002004:	2100      	movs	r1, #0
 8002006:	2078      	movs	r0, #120	; 0x78
 8002008:	f7ff ffa0 	bl	8001f4c <ssd1306_I2C_Write>
	SSD1306_WRITECOMMAND(0xB0); //Set Page Start Address for Page Addressing Mode,0-7
 800200c:	22b0      	movs	r2, #176	; 0xb0
 800200e:	2100      	movs	r1, #0
 8002010:	2078      	movs	r0, #120	; 0x78
 8002012:	f7ff ff9b 	bl	8001f4c <ssd1306_I2C_Write>
	SSD1306_WRITECOMMAND(0xC8); //Set COM Output Scan Direction
 8002016:	22c8      	movs	r2, #200	; 0xc8
 8002018:	2100      	movs	r1, #0
 800201a:	2078      	movs	r0, #120	; 0x78
 800201c:	f7ff ff96 	bl	8001f4c <ssd1306_I2C_Write>
	SSD1306_WRITECOMMAND(0x00); //---set low column address
 8002020:	2200      	movs	r2, #0
 8002022:	4611      	mov	r1, r2
 8002024:	2078      	movs	r0, #120	; 0x78
 8002026:	f7ff ff91 	bl	8001f4c <ssd1306_I2C_Write>
	SSD1306_WRITECOMMAND(0x10); //---set high column address
 800202a:	2210      	movs	r2, #16
 800202c:	2100      	movs	r1, #0
 800202e:	2078      	movs	r0, #120	; 0x78
 8002030:	f7ff ff8c 	bl	8001f4c <ssd1306_I2C_Write>
	SSD1306_WRITECOMMAND(0x40); //--set start line address
 8002034:	2240      	movs	r2, #64	; 0x40
 8002036:	2100      	movs	r1, #0
 8002038:	2078      	movs	r0, #120	; 0x78
 800203a:	f7ff ff87 	bl	8001f4c <ssd1306_I2C_Write>
	SSD1306_WRITECOMMAND(0x81); //--set contrast control register
 800203e:	2281      	movs	r2, #129	; 0x81
 8002040:	2100      	movs	r1, #0
 8002042:	2078      	movs	r0, #120	; 0x78
 8002044:	f7ff ff82 	bl	8001f4c <ssd1306_I2C_Write>
	SSD1306_WRITECOMMAND(0xFF);
 8002048:	22ff      	movs	r2, #255	; 0xff
 800204a:	2100      	movs	r1, #0
 800204c:	2078      	movs	r0, #120	; 0x78
 800204e:	f7ff ff7d 	bl	8001f4c <ssd1306_I2C_Write>
	SSD1306_WRITECOMMAND(0xA1); //--set segment re-map 0 to 127
 8002052:	22a1      	movs	r2, #161	; 0xa1
 8002054:	2100      	movs	r1, #0
 8002056:	2078      	movs	r0, #120	; 0x78
 8002058:	f7ff ff78 	bl	8001f4c <ssd1306_I2C_Write>
	SSD1306_WRITECOMMAND(0xA6); //--set normal display
 800205c:	22a6      	movs	r2, #166	; 0xa6
 800205e:	2100      	movs	r1, #0
 8002060:	2078      	movs	r0, #120	; 0x78
 8002062:	f7ff ff73 	bl	8001f4c <ssd1306_I2C_Write>
	SSD1306_WRITECOMMAND(0xA8); //--set multiplex ratio(1 to 64)
 8002066:	22a8      	movs	r2, #168	; 0xa8
 8002068:	2100      	movs	r1, #0
 800206a:	2078      	movs	r0, #120	; 0x78
 800206c:	f7ff ff6e 	bl	8001f4c <ssd1306_I2C_Write>
	SSD1306_WRITECOMMAND(0x3F); //
 8002070:	223f      	movs	r2, #63	; 0x3f
 8002072:	2100      	movs	r1, #0
 8002074:	2078      	movs	r0, #120	; 0x78
 8002076:	f7ff ff69 	bl	8001f4c <ssd1306_I2C_Write>
	SSD1306_WRITECOMMAND(0xA4); //0xa4,Output follows RAM content;0xa5,Output ignores RAM content
 800207a:	22a4      	movs	r2, #164	; 0xa4
 800207c:	2100      	movs	r1, #0
 800207e:	2078      	movs	r0, #120	; 0x78
 8002080:	f7ff ff64 	bl	8001f4c <ssd1306_I2C_Write>
	SSD1306_WRITECOMMAND(0xD3); //-set display offset
 8002084:	22d3      	movs	r2, #211	; 0xd3
 8002086:	2100      	movs	r1, #0
 8002088:	2078      	movs	r0, #120	; 0x78
 800208a:	f7ff ff5f 	bl	8001f4c <ssd1306_I2C_Write>
	SSD1306_WRITECOMMAND(0x00); //-not offset
 800208e:	2200      	movs	r2, #0
 8002090:	4611      	mov	r1, r2
 8002092:	2078      	movs	r0, #120	; 0x78
 8002094:	f7ff ff5a 	bl	8001f4c <ssd1306_I2C_Write>
	SSD1306_WRITECOMMAND(0xD5); //--set display clock divide ratio/oscillator frequency
 8002098:	22d5      	movs	r2, #213	; 0xd5
 800209a:	2100      	movs	r1, #0
 800209c:	2078      	movs	r0, #120	; 0x78
 800209e:	f7ff ff55 	bl	8001f4c <ssd1306_I2C_Write>
	SSD1306_WRITECOMMAND(0xF0); //--set divide ratio
 80020a2:	22f0      	movs	r2, #240	; 0xf0
 80020a4:	2100      	movs	r1, #0
 80020a6:	2078      	movs	r0, #120	; 0x78
 80020a8:	f7ff ff50 	bl	8001f4c <ssd1306_I2C_Write>
	SSD1306_WRITECOMMAND(0xD9); //--set pre-charge period
 80020ac:	22d9      	movs	r2, #217	; 0xd9
 80020ae:	2100      	movs	r1, #0
 80020b0:	2078      	movs	r0, #120	; 0x78
 80020b2:	f7ff ff4b 	bl	8001f4c <ssd1306_I2C_Write>
	SSD1306_WRITECOMMAND(0x22); //
 80020b6:	2222      	movs	r2, #34	; 0x22
 80020b8:	2100      	movs	r1, #0
 80020ba:	2078      	movs	r0, #120	; 0x78
 80020bc:	f7ff ff46 	bl	8001f4c <ssd1306_I2C_Write>
	SSD1306_WRITECOMMAND(0xDA); //--set com pins hardware configuration
 80020c0:	22da      	movs	r2, #218	; 0xda
 80020c2:	2100      	movs	r1, #0
 80020c4:	2078      	movs	r0, #120	; 0x78
 80020c6:	f7ff ff41 	bl	8001f4c <ssd1306_I2C_Write>
	SSD1306_WRITECOMMAND(0x12);
 80020ca:	2212      	movs	r2, #18
 80020cc:	2100      	movs	r1, #0
 80020ce:	2078      	movs	r0, #120	; 0x78
 80020d0:	f7ff ff3c 	bl	8001f4c <ssd1306_I2C_Write>
	SSD1306_WRITECOMMAND(0xDB); //--set vcomh
 80020d4:	22db      	movs	r2, #219	; 0xdb
 80020d6:	2100      	movs	r1, #0
 80020d8:	2078      	movs	r0, #120	; 0x78
 80020da:	f7ff ff37 	bl	8001f4c <ssd1306_I2C_Write>
	SSD1306_WRITECOMMAND(0x20); //0x20,0.77xVcc
 80020de:	2220      	movs	r2, #32
 80020e0:	2100      	movs	r1, #0
 80020e2:	2078      	movs	r0, #120	; 0x78
 80020e4:	f7ff ff32 	bl	8001f4c <ssd1306_I2C_Write>
	SSD1306_WRITECOMMAND(0x8D); //--set DC-DC enable
 80020e8:	228d      	movs	r2, #141	; 0x8d
 80020ea:	2100      	movs	r1, #0
 80020ec:	2078      	movs	r0, #120	; 0x78
 80020ee:	f7ff ff2d 	bl	8001f4c <ssd1306_I2C_Write>
	SSD1306_WRITECOMMAND(0x14); //
 80020f2:	2214      	movs	r2, #20
 80020f4:	2100      	movs	r1, #0
 80020f6:	2078      	movs	r0, #120	; 0x78
 80020f8:	f7ff ff28 	bl	8001f4c <ssd1306_I2C_Write>
	SSD1306_WRITECOMMAND(0xAF); //--turn on SSD1306 panel
 80020fc:	22af      	movs	r2, #175	; 0xaf
 80020fe:	2100      	movs	r1, #0
 8002100:	2078      	movs	r0, #120	; 0x78
 8002102:	f7ff ff23 	bl	8001f4c <ssd1306_I2C_Write>
	SSD1306_WRITECOMMAND(SSD1306_DEACTIVATE_SCROLL);
 8002106:	222e      	movs	r2, #46	; 0x2e
 8002108:	2100      	movs	r1, #0
 800210a:	2078      	movs	r0, #120	; 0x78
 800210c:	f7ff ff1e 	bl	8001f4c <ssd1306_I2C_Write>
	SSD1306_Fill(SSD1306_COLOR_BLACK);
 8002110:	2000      	movs	r0, #0
 8002112:	f7ff fbf7 	bl	8001904 <SSD1306_Fill>
	SSD1306_UpdateScreen();
 8002116:	f7ff ff2d 	bl	8001f74 <SSD1306_UpdateScreen>
	SSD1306.CurrentX = 0;
 800211a:	4b05      	ldr	r3, [pc, #20]	; (8002130 <SSD1306_Init+0x160>)
 800211c:	2200      	movs	r2, #0
 800211e:	801a      	strh	r2, [r3, #0]
	SSD1306.CurrentY = 0;
 8002120:	805a      	strh	r2, [r3, #2]
	SSD1306.Initialized = 1;
 8002122:	2001      	movs	r0, #1
 8002124:	7158      	strb	r0, [r3, #5]
}
 8002126:	bd08      	pop	{r3, pc}
		return 0;
 8002128:	2000      	movs	r0, #0
 800212a:	e7fc      	b.n	8002126 <SSD1306_Init+0x156>
 800212c:	200007a8 	.word	0x200007a8
 8002130:	20000958 	.word	0x20000958

08002134 <HAL_MspInit>:
void HAL_TIM_MspPostInit(TIM_HandleTypeDef *htim);
                    /**
  * Initializes the Global MSP.
  */
void HAL_MspInit(void)
{
 8002134:	b500      	push	{lr}
 8002136:	b083      	sub	sp, #12
  /* USER CODE BEGIN MspInit 0 */

  /* USER CODE END MspInit 0 */

  __HAL_RCC_AFIO_CLK_ENABLE();
 8002138:	4b11      	ldr	r3, [pc, #68]	; (8002180 <HAL_MspInit+0x4c>)
 800213a:	699a      	ldr	r2, [r3, #24]
 800213c:	f042 0201 	orr.w	r2, r2, #1
 8002140:	619a      	str	r2, [r3, #24]
 8002142:	699a      	ldr	r2, [r3, #24]
 8002144:	f002 0201 	and.w	r2, r2, #1
 8002148:	9200      	str	r2, [sp, #0]
 800214a:	9a00      	ldr	r2, [sp, #0]
  __HAL_RCC_PWR_CLK_ENABLE();
 800214c:	69da      	ldr	r2, [r3, #28]
 800214e:	f042 5280 	orr.w	r2, r2, #268435456	; 0x10000000
 8002152:	61da      	str	r2, [r3, #28]
 8002154:	69db      	ldr	r3, [r3, #28]
 8002156:	f003 5380 	and.w	r3, r3, #268435456	; 0x10000000
 800215a:	9301      	str	r3, [sp, #4]
 800215c:	9b01      	ldr	r3, [sp, #4]

  /* System interrupt init*/
  /* PendSV_IRQn interrupt configuration */
  HAL_NVIC_SetPriority(PendSV_IRQn, 15, 0);
 800215e:	2200      	movs	r2, #0
 8002160:	210f      	movs	r1, #15
 8002162:	f06f 0001 	mvn.w	r0, #1
 8002166:	f000 fd3f 	bl	8002be8 <HAL_NVIC_SetPriority>

  /** NOJTAG: JTAG-DP Disabled and SW-DP Enabled
  */
  __HAL_AFIO_REMAP_SWJ_NOJTAG();
 800216a:	4a06      	ldr	r2, [pc, #24]	; (8002184 <HAL_MspInit+0x50>)
 800216c:	6853      	ldr	r3, [r2, #4]
 800216e:	f023 63e0 	bic.w	r3, r3, #117440512	; 0x7000000
 8002172:	f043 7300 	orr.w	r3, r3, #33554432	; 0x2000000
 8002176:	6053      	str	r3, [r2, #4]

  /* USER CODE BEGIN MspInit 1 */

  /* USER CODE END MspInit 1 */
}
 8002178:	b003      	add	sp, #12
 800217a:	f85d fb04 	ldr.w	pc, [sp], #4
 800217e:	bf00      	nop
 8002180:	40021000 	.word	0x40021000
 8002184:	40010000 	.word	0x40010000

08002188 <HAL_ADC_MspInit>:
* This function configures the hardware resources used in this example
* @param hadc: ADC handle pointer
* @retval None
*/
void HAL_ADC_MspInit(ADC_HandleTypeDef* hadc)
{
 8002188:	b500      	push	{lr}
 800218a:	b089      	sub	sp, #36	; 0x24
  GPIO_InitTypeDef GPIO_InitStruct = {0};
 800218c:	2300      	movs	r3, #0
 800218e:	9304      	str	r3, [sp, #16]
 8002190:	9305      	str	r3, [sp, #20]
 8002192:	9306      	str	r3, [sp, #24]
 8002194:	9307      	str	r3, [sp, #28]
  if(hadc->Instance==ADC1)
 8002196:	6803      	ldr	r3, [r0, #0]
 8002198:	4a20      	ldr	r2, [pc, #128]	; (800221c <HAL_ADC_MspInit+0x94>)
 800219a:	4293      	cmp	r3, r2
 800219c:	d005      	beq.n	80021aa <HAL_ADC_MspInit+0x22>

  /* USER CODE BEGIN ADC1_MspInit 1 */

  /* USER CODE END ADC1_MspInit 1 */
  }
  else if(hadc->Instance==ADC2)
 800219e:	4a20      	ldr	r2, [pc, #128]	; (8002220 <HAL_ADC_MspInit+0x98>)
 80021a0:	4293      	cmp	r3, r2
 80021a2:	d01e      	beq.n	80021e2 <HAL_ADC_MspInit+0x5a>
  /* USER CODE BEGIN ADC2_MspInit 1 */

  /* USER CODE END ADC2_MspInit 1 */
  }

}
 80021a4:	b009      	add	sp, #36	; 0x24
 80021a6:	f85d fb04 	ldr.w	pc, [sp], #4
    __HAL_RCC_ADC1_CLK_ENABLE();
 80021aa:	4b1e      	ldr	r3, [pc, #120]	; (8002224 <HAL_ADC_MspInit+0x9c>)
 80021ac:	699a      	ldr	r2, [r3, #24]
 80021ae:	f442 7200 	orr.w	r2, r2, #512	; 0x200
 80021b2:	619a      	str	r2, [r3, #24]
 80021b4:	699a      	ldr	r2, [r3, #24]
 80021b6:	f402 7200 	and.w	r2, r2, #512	; 0x200
 80021ba:	9200      	str	r2, [sp, #0]
 80021bc:	9a00      	ldr	r2, [sp, #0]
    __HAL_RCC_GPIOA_CLK_ENABLE();
 80021be:	699a      	ldr	r2, [r3, #24]
 80021c0:	f042 0204 	orr.w	r2, r2, #4
 80021c4:	619a      	str	r2, [r3, #24]
 80021c6:	699b      	ldr	r3, [r3, #24]
 80021c8:	f003 0304 	and.w	r3, r3, #4
 80021cc:	9301      	str	r3, [sp, #4]
 80021ce:	9b01      	ldr	r3, [sp, #4]
    GPIO_InitStruct.Pin = GPIO_PIN_3;
 80021d0:	2308      	movs	r3, #8
 80021d2:	9304      	str	r3, [sp, #16]
    GPIO_InitStruct.Mode = GPIO_MODE_ANALOG;
 80021d4:	2303      	movs	r3, #3
 80021d6:	9305      	str	r3, [sp, #20]
    HAL_GPIO_Init(GPIOA, &GPIO_InitStruct);
 80021d8:	a904      	add	r1, sp, #16
 80021da:	4813      	ldr	r0, [pc, #76]	; (8002228 <HAL_ADC_MspInit+0xa0>)
 80021dc:	f000 fd48 	bl	8002c70 <HAL_GPIO_Init>
 80021e0:	e7e0      	b.n	80021a4 <HAL_ADC_MspInit+0x1c>
    __HAL_RCC_ADC2_CLK_ENABLE();
 80021e2:	4b10      	ldr	r3, [pc, #64]	; (8002224 <HAL_ADC_MspInit+0x9c>)
 80021e4:	699a      	ldr	r2, [r3, #24]
 80021e6:	f442 6280 	orr.w	r2, r2, #1024	; 0x400
 80021ea:	619a      	str	r2, [r3, #24]
 80021ec:	699a      	ldr	r2, [r3, #24]
 80021ee:	f402 6280 	and.w	r2, r2, #1024	; 0x400
 80021f2:	9202      	str	r2, [sp, #8]
 80021f4:	9a02      	ldr	r2, [sp, #8]
    __HAL_RCC_GPIOA_CLK_ENABLE();
 80021f6:	699a      	ldr	r2, [r3, #24]
 80021f8:	f042 0204 	orr.w	r2, r2, #4
 80021fc:	619a      	str	r2, [r3, #24]
 80021fe:	699b      	ldr	r3, [r3, #24]
 8002200:	f003 0304 	and.w	r3, r3, #4
 8002204:	9303      	str	r3, [sp, #12]
 8002206:	9b03      	ldr	r3, [sp, #12]
    GPIO_InitStruct.Pin = GPIO_PIN_1;
 8002208:	2302      	movs	r3, #2
 800220a:	9304      	str	r3, [sp, #16]
    GPIO_InitStruct.Mode = GPIO_MODE_ANALOG;
 800220c:	2303      	movs	r3, #3
 800220e:	9305      	str	r3, [sp, #20]
    HAL_GPIO_Init(GPIOA, &GPIO_InitStruct);
 8002210:	a904      	add	r1, sp, #16
 8002212:	4805      	ldr	r0, [pc, #20]	; (8002228 <HAL_ADC_MspInit+0xa0>)
 8002214:	f000 fd2c 	bl	8002c70 <HAL_GPIO_Init>
}
 8002218:	e7c4      	b.n	80021a4 <HAL_ADC_MspInit+0x1c>
 800221a:	bf00      	nop
 800221c:	40012400 	.word	0x40012400
 8002220:	40012800 	.word	0x40012800
 8002224:	40021000 	.word	0x40021000
 8002228:	40010800 	.word	0x40010800

0800222c <HAL_I2C_MspInit>:
* This function configures the hardware resources used in this example
* @param hi2c: I2C handle pointer
* @retval None
*/
void HAL_I2C_MspInit(I2C_HandleTypeDef* hi2c)
{
 800222c:	b510      	push	{r4, lr}
 800222e:	b086      	sub	sp, #24
  GPIO_InitTypeDef GPIO_InitStruct = {0};
 8002230:	2300      	movs	r3, #0
 8002232:	9302      	str	r3, [sp, #8]
 8002234:	9303      	str	r3, [sp, #12]
 8002236:	9304      	str	r3, [sp, #16]
 8002238:	9305      	str	r3, [sp, #20]
  if(hi2c->Instance==I2C1)
 800223a:	6802      	ldr	r2, [r0, #0]
 800223c:	4b11      	ldr	r3, [pc, #68]	; (8002284 <HAL_I2C_MspInit+0x58>)
 800223e:	429a      	cmp	r2, r3
 8002240:	d001      	beq.n	8002246 <HAL_I2C_MspInit+0x1a>
  /* USER CODE BEGIN I2C1_MspInit 1 */

  /* USER CODE END I2C1_MspInit 1 */
  }

}
 8002242:	b006      	add	sp, #24
 8002244:	bd10      	pop	{r4, pc}
    __HAL_RCC_GPIOB_CLK_ENABLE();
 8002246:	4c10      	ldr	r4, [pc, #64]	; (8002288 <HAL_I2C_MspInit+0x5c>)
 8002248:	69a3      	ldr	r3, [r4, #24]
 800224a:	f043 0308 	orr.w	r3, r3, #8
 800224e:	61a3      	str	r3, [r4, #24]
 8002250:	69a3      	ldr	r3, [r4, #24]
 8002252:	f003 0308 	and.w	r3, r3, #8
 8002256:	9300      	str	r3, [sp, #0]
 8002258:	9b00      	ldr	r3, [sp, #0]
    GPIO_InitStruct.Pin = GPIO_PIN_6|GPIO_PIN_7;
 800225a:	23c0      	movs	r3, #192	; 0xc0
 800225c:	9302      	str	r3, [sp, #8]
    GPIO_InitStruct.Mode = GPIO_MODE_AF_OD;
 800225e:	2312      	movs	r3, #18
 8002260:	9303      	str	r3, [sp, #12]
    GPIO_InitStruct.Speed = GPIO_SPEED_FREQ_HIGH;
 8002262:	2303      	movs	r3, #3
 8002264:	9305      	str	r3, [sp, #20]
    HAL_GPIO_Init(GPIOB, &GPIO_InitStruct);
 8002266:	a902      	add	r1, sp, #8
 8002268:	4808      	ldr	r0, [pc, #32]	; (800228c <HAL_I2C_MspInit+0x60>)
 800226a:	f000 fd01 	bl	8002c70 <HAL_GPIO_Init>
    __HAL_RCC_I2C1_CLK_ENABLE();
 800226e:	69e3      	ldr	r3, [r4, #28]
 8002270:	f443 1300 	orr.w	r3, r3, #2097152	; 0x200000
 8002274:	61e3      	str	r3, [r4, #28]
 8002276:	69e3      	ldr	r3, [r4, #28]
 8002278:	f403 1300 	and.w	r3, r3, #2097152	; 0x200000
 800227c:	9301      	str	r3, [sp, #4]
 800227e:	9b01      	ldr	r3, [sp, #4]
}
 8002280:	e7df      	b.n	8002242 <HAL_I2C_MspInit+0x16>
 8002282:	bf00      	nop
 8002284:	40005400 	.word	0x40005400
 8002288:	40021000 	.word	0x40021000
 800228c:	40010c00 	.word	0x40010c00

08002290 <HAL_SPI_MspInit>:
* This function configures the hardware resources used in this example
* @param hspi: SPI handle pointer
* @retval None
*/
void HAL_SPI_MspInit(SPI_HandleTypeDef* hspi)
{
 8002290:	b510      	push	{r4, lr}
 8002292:	b086      	sub	sp, #24
  GPIO_InitTypeDef GPIO_InitStruct = {0};
 8002294:	2300      	movs	r3, #0
 8002296:	9302      	str	r3, [sp, #8]
 8002298:	9303      	str	r3, [sp, #12]
 800229a:	9304      	str	r3, [sp, #16]
 800229c:	9305      	str	r3, [sp, #20]
  if(hspi->Instance==SPI1)
 800229e:	6802      	ldr	r2, [r0, #0]
 80022a0:	4b16      	ldr	r3, [pc, #88]	; (80022fc <HAL_SPI_MspInit+0x6c>)
 80022a2:	429a      	cmp	r2, r3
 80022a4:	d001      	beq.n	80022aa <HAL_SPI_MspInit+0x1a>
  /* USER CODE BEGIN SPI1_MspInit 1 */

  /* USER CODE END SPI1_MspInit 1 */
  }

}
 80022a6:	b006      	add	sp, #24
 80022a8:	bd10      	pop	{r4, pc}
    __HAL_RCC_SPI1_CLK_ENABLE();
 80022aa:	f503 4360 	add.w	r3, r3, #57344	; 0xe000
 80022ae:	699a      	ldr	r2, [r3, #24]
 80022b0:	f442 5280 	orr.w	r2, r2, #4096	; 0x1000
 80022b4:	619a      	str	r2, [r3, #24]
 80022b6:	699a      	ldr	r2, [r3, #24]
 80022b8:	f402 5280 	and.w	r2, r2, #4096	; 0x1000
 80022bc:	9200      	str	r2, [sp, #0]
 80022be:	9a00      	ldr	r2, [sp, #0]
    __HAL_RCC_GPIOA_CLK_ENABLE();
 80022c0:	699a      	ldr	r2, [r3, #24]
 80022c2:	f042 0204 	orr.w	r2, r2, #4
 80022c6:	619a      	str	r2, [r3, #24]
 80022c8:	699b      	ldr	r3, [r3, #24]
 80022ca:	f003 0304 	and.w	r3, r3, #4
 80022ce:	9301      	str	r3, [sp, #4]
 80022d0:	9b01      	ldr	r3, [sp, #4]
    GPIO_InitStruct.Pin = GPIO_PIN_5|GPIO_PIN_7;
 80022d2:	23a0      	movs	r3, #160	; 0xa0
 80022d4:	9302      	str	r3, [sp, #8]
    GPIO_InitStruct.Mode = GPIO_MODE_AF_PP;
 80022d6:	2302      	movs	r3, #2
 80022d8:	9303      	str	r3, [sp, #12]
    GPIO_InitStruct.Speed = GPIO_SPEED_FREQ_HIGH;
 80022da:	2303      	movs	r3, #3
 80022dc:	9305      	str	r3, [sp, #20]
    HAL_GPIO_Init(GPIOA, &GPIO_InitStruct);
 80022de:	4c08      	ldr	r4, [pc, #32]	; (8002300 <HAL_SPI_MspInit+0x70>)
 80022e0:	a902      	add	r1, sp, #8
 80022e2:	4620      	mov	r0, r4
 80022e4:	f000 fcc4 	bl	8002c70 <HAL_GPIO_Init>
    GPIO_InitStruct.Pin = GPIO_PIN_6;
 80022e8:	2340      	movs	r3, #64	; 0x40
 80022ea:	9302      	str	r3, [sp, #8]
    GPIO_InitStruct.Mode = GPIO_MODE_INPUT;
 80022ec:	2300      	movs	r3, #0
 80022ee:	9303      	str	r3, [sp, #12]
    GPIO_InitStruct.Pull = GPIO_NOPULL;
 80022f0:	9304      	str	r3, [sp, #16]
    HAL_GPIO_Init(GPIOA, &GPIO_InitStruct);
 80022f2:	a902      	add	r1, sp, #8
 80022f4:	4620      	mov	r0, r4
 80022f6:	f000 fcbb 	bl	8002c70 <HAL_GPIO_Init>
}
 80022fa:	e7d4      	b.n	80022a6 <HAL_SPI_MspInit+0x16>
 80022fc:	40013000 	.word	0x40013000
 8002300:	40010800 	.word	0x40010800

08002304 <HAL_TIM_Base_MspInit>:
* This function configures the hardware resources used in this example
* @param htim_base: TIM_Base handle pointer
* @retval None
*/
void HAL_TIM_Base_MspInit(TIM_HandleTypeDef* htim_base)
{
 8002304:	b500      	push	{lr}
 8002306:	b083      	sub	sp, #12
  if(htim_base->Instance==TIM2)
 8002308:	6803      	ldr	r3, [r0, #0]
 800230a:	f1b3 4f80 	cmp.w	r3, #1073741824	; 0x40000000
 800230e:	d005      	beq.n	800231c <HAL_TIM_Base_MspInit+0x18>
    __HAL_RCC_TIM2_CLK_ENABLE();
  /* USER CODE BEGIN TIM2_MspInit 1 */

  /* USER CODE END TIM2_MspInit 1 */
  }
  else if(htim_base->Instance==TIM3)
 8002310:	4a12      	ldr	r2, [pc, #72]	; (800235c <HAL_TIM_Base_MspInit+0x58>)
 8002312:	4293      	cmp	r3, r2
 8002314:	d00e      	beq.n	8002334 <HAL_TIM_Base_MspInit+0x30>
  /* USER CODE BEGIN TIM3_MspInit 1 */

  /* USER CODE END TIM3_MspInit 1 */
  }

}
 8002316:	b003      	add	sp, #12
 8002318:	f85d fb04 	ldr.w	pc, [sp], #4
    __HAL_RCC_TIM2_CLK_ENABLE();
 800231c:	f503 3304 	add.w	r3, r3, #135168	; 0x21000
 8002320:	69da      	ldr	r2, [r3, #28]
 8002322:	f042 0201 	orr.w	r2, r2, #1
 8002326:	61da      	str	r2, [r3, #28]
 8002328:	69db      	ldr	r3, [r3, #28]
 800232a:	f003 0301 	and.w	r3, r3, #1
 800232e:	9300      	str	r3, [sp, #0]
 8002330:	9b00      	ldr	r3, [sp, #0]
 8002332:	e7f0      	b.n	8002316 <HAL_TIM_Base_MspInit+0x12>
    __HAL_RCC_TIM3_CLK_ENABLE();
 8002334:	4b0a      	ldr	r3, [pc, #40]	; (8002360 <HAL_TIM_Base_MspInit+0x5c>)
 8002336:	69da      	ldr	r2, [r3, #28]
 8002338:	f042 0202 	orr.w	r2, r2, #2
 800233c:	61da      	str	r2, [r3, #28]
 800233e:	69db      	ldr	r3, [r3, #28]
 8002340:	f003 0302 	and.w	r3, r3, #2
 8002344:	9301      	str	r3, [sp, #4]
 8002346:	9b01      	ldr	r3, [sp, #4]
    HAL_NVIC_SetPriority(TIM3_IRQn, 5, 0);
 8002348:	2200      	movs	r2, #0
 800234a:	2105      	movs	r1, #5
 800234c:	201d      	movs	r0, #29
 800234e:	f000 fc4b 	bl	8002be8 <HAL_NVIC_SetPriority>
    HAL_NVIC_EnableIRQ(TIM3_IRQn);
 8002352:	201d      	movs	r0, #29
 8002354:	f000 fc7e 	bl	8002c54 <HAL_NVIC_EnableIRQ>
}
 8002358:	e7dd      	b.n	8002316 <HAL_TIM_Base_MspInit+0x12>
 800235a:	bf00      	nop
 800235c:	40000400 	.word	0x40000400
 8002360:	40021000 	.word	0x40021000

08002364 <HAL_TIM_MspPostInit>:

void HAL_TIM_MspPostInit(TIM_HandleTypeDef* htim)
{
 8002364:	b500      	push	{lr}
 8002366:	b087      	sub	sp, #28
  GPIO_InitTypeDef GPIO_InitStruct = {0};
 8002368:	2300      	movs	r3, #0
 800236a:	9302      	str	r3, [sp, #8]
 800236c:	9303      	str	r3, [sp, #12]
 800236e:	9304      	str	r3, [sp, #16]
 8002370:	9305      	str	r3, [sp, #20]
  if(htim->Instance==TIM2)
 8002372:	6803      	ldr	r3, [r0, #0]
 8002374:	f1b3 4f80 	cmp.w	r3, #1073741824	; 0x40000000
 8002378:	d002      	beq.n	8002380 <HAL_TIM_MspPostInit+0x1c>
  /* USER CODE BEGIN TIM2_MspPostInit 1 */

  /* USER CODE END TIM2_MspPostInit 1 */
  }

}
 800237a:	b007      	add	sp, #28
 800237c:	f85d fb04 	ldr.w	pc, [sp], #4
    __HAL_RCC_GPIOA_CLK_ENABLE();
 8002380:	f503 3304 	add.w	r3, r3, #135168	; 0x21000
 8002384:	699a      	ldr	r2, [r3, #24]
 8002386:	f042 0204 	orr.w	r2, r2, #4
 800238a:	619a      	str	r2, [r3, #24]
 800238c:	699b      	ldr	r3, [r3, #24]
 800238e:	f003 0304 	and.w	r3, r3, #4
 8002392:	9301      	str	r3, [sp, #4]
 8002394:	9b01      	ldr	r3, [sp, #4]
    GPIO_InitStruct.Pin = GPIO_PIN_0;
 8002396:	2301      	movs	r3, #1
 8002398:	9302      	str	r3, [sp, #8]
    GPIO_InitStruct.Mode = GPIO_MODE_AF_PP;
 800239a:	2302      	movs	r3, #2
 800239c:	9303      	str	r3, [sp, #12]
    GPIO_InitStruct.Speed = GPIO_SPEED_FREQ_LOW;
 800239e:	9305      	str	r3, [sp, #20]
    HAL_GPIO_Init(GPIOA, &GPIO_InitStruct);
 80023a0:	a902      	add	r1, sp, #8
 80023a2:	4802      	ldr	r0, [pc, #8]	; (80023ac <HAL_TIM_MspPostInit+0x48>)
 80023a4:	f000 fc64 	bl	8002c70 <HAL_GPIO_Init>
}
 80023a8:	e7e7      	b.n	800237a <HAL_TIM_MspPostInit+0x16>
 80023aa:	bf00      	nop
 80023ac:	40010800 	.word	0x40010800

080023b0 <HAL_InitTick>:
  *         reset by HAL_Init() or at any time when clock is configured, by HAL_RCC_ClockConfig().
  * @param  TickPriority: Tick interrupt priority.
  * @retval HAL status
  */
HAL_StatusTypeDef HAL_InitTick(uint32_t TickPriority)
{
 80023b0:	b530      	push	{r4, r5, lr}
 80023b2:	b089      	sub	sp, #36	; 0x24
 80023b4:	4604      	mov	r4, r0
  uint32_t              uwPrescalerValue = 0U;
  uint32_t              pFLatency;
  HAL_StatusTypeDef     status = HAL_OK;

  /* Enable TIM4 clock */
  __HAL_RCC_TIM4_CLK_ENABLE();
 80023b6:	4b21      	ldr	r3, [pc, #132]	; (800243c <HAL_InitTick+0x8c>)
 80023b8:	69da      	ldr	r2, [r3, #28]
 80023ba:	f042 0204 	orr.w	r2, r2, #4
 80023be:	61da      	str	r2, [r3, #28]
 80023c0:	69db      	ldr	r3, [r3, #28]
 80023c2:	f003 0304 	and.w	r3, r3, #4
 80023c6:	9301      	str	r3, [sp, #4]
 80023c8:	9b01      	ldr	r3, [sp, #4]

  /* Get clock configuration */
  HAL_RCC_GetClockConfig(&clkconfig, &pFLatency);
 80023ca:	a902      	add	r1, sp, #8
 80023cc:	a803      	add	r0, sp, #12
 80023ce:	f001 fc69 	bl	8003ca4 <HAL_RCC_GetClockConfig>

  /* Get APB1 prescaler */
  uwAPB1Prescaler = clkconfig.APB1CLKDivider;
  /* Compute TIM4 clock */
  if (uwAPB1Prescaler == RCC_HCLK_DIV1)
 80023d2:	9b06      	ldr	r3, [sp, #24]
 80023d4:	b9cb      	cbnz	r3, 800240a <HAL_InitTick+0x5a>
  {
    uwTimclock = HAL_RCC_GetPCLK1Freq();
 80023d6:	f001 fc45 	bl	8003c64 <HAL_RCC_GetPCLK1Freq>
 80023da:	4603      	mov	r3, r0

  /* Compute the prescaler value to have TIM4 counter clock equal to 1MHz */
  uwPrescalerValue = (uint32_t) ((uwTimclock / 1000000U) - 1U);

  /* Initialize TIM4 */
  htim4.Instance = TIM4;
 80023dc:	4818      	ldr	r0, [pc, #96]	; (8002440 <HAL_InitTick+0x90>)
 80023de:	4a19      	ldr	r2, [pc, #100]	; (8002444 <HAL_InitTick+0x94>)
 80023e0:	6002      	str	r2, [r0, #0]
  + Period = [(TIM4CLK/1000) - 1]. to have a (1/1000) s time base.
  + Prescaler = (uwTimclock/1000000 - 1) to have a 1MHz counter clock.
  + ClockDivision = 0
  + Counter direction = Up
  */
  htim4.Init.Period = (1000000U / 1000U) - 1U;
 80023e2:	f240 32e7 	movw	r2, #999	; 0x3e7
 80023e6:	60c2      	str	r2, [r0, #12]
  uwPrescalerValue = (uint32_t) ((uwTimclock / 1000000U) - 1U);
 80023e8:	4a17      	ldr	r2, [pc, #92]	; (8002448 <HAL_InitTick+0x98>)
 80023ea:	fba2 2303 	umull	r2, r3, r2, r3
 80023ee:	0c9b      	lsrs	r3, r3, #18
 80023f0:	3b01      	subs	r3, #1
  htim4.Init.Prescaler = uwPrescalerValue;
 80023f2:	6043      	str	r3, [r0, #4]
  htim4.Init.ClockDivision = 0;
 80023f4:	2300      	movs	r3, #0
 80023f6:	6103      	str	r3, [r0, #16]
  htim4.Init.CounterMode = TIM_COUNTERMODE_UP;
 80023f8:	6083      	str	r3, [r0, #8]
  htim4.Init.AutoReloadPreload = TIM_AUTORELOAD_PRELOAD_DISABLE;
 80023fa:	6183      	str	r3, [r0, #24]

  status = HAL_TIM_Base_Init(&htim4);
 80023fc:	f002 fb24 	bl	8004a48 <HAL_TIM_Base_Init>
  if (status == HAL_OK)
 8002400:	4605      	mov	r5, r0
 8002402:	b130      	cbz	r0, 8002412 <HAL_InitTick+0x62>
    }
  }

 /* Return function status */
  return status;
}
 8002404:	4628      	mov	r0, r5
 8002406:	b009      	add	sp, #36	; 0x24
 8002408:	bd30      	pop	{r4, r5, pc}
    uwTimclock = 2UL * HAL_RCC_GetPCLK1Freq();
 800240a:	f001 fc2b 	bl	8003c64 <HAL_RCC_GetPCLK1Freq>
 800240e:	0043      	lsls	r3, r0, #1
 8002410:	e7e4      	b.n	80023dc <HAL_InitTick+0x2c>
    status = HAL_TIM_Base_Start_IT(&htim4);
 8002412:	480b      	ldr	r0, [pc, #44]	; (8002440 <HAL_InitTick+0x90>)
 8002414:	f002 f9ba 	bl	800478c <HAL_TIM_Base_Start_IT>
    if (status == HAL_OK)
 8002418:	4605      	mov	r5, r0
 800241a:	2800      	cmp	r0, #0
 800241c:	d1f2      	bne.n	8002404 <HAL_InitTick+0x54>
        HAL_NVIC_EnableIRQ(TIM4_IRQn);
 800241e:	201e      	movs	r0, #30
 8002420:	f000 fc18 	bl	8002c54 <HAL_NVIC_EnableIRQ>
      if (TickPriority < (1UL << __NVIC_PRIO_BITS))
 8002424:	2c0f      	cmp	r4, #15
 8002426:	d901      	bls.n	800242c <HAL_InitTick+0x7c>
        status = HAL_ERROR;
 8002428:	2501      	movs	r5, #1
 800242a:	e7eb      	b.n	8002404 <HAL_InitTick+0x54>
        HAL_NVIC_SetPriority(TIM4_IRQn, TickPriority, 0U);
 800242c:	2200      	movs	r2, #0
 800242e:	4621      	mov	r1, r4
 8002430:	201e      	movs	r0, #30
 8002432:	f000 fbd9 	bl	8002be8 <HAL_NVIC_SetPriority>
        uwTickPrio = TickPriority;
 8002436:	4b05      	ldr	r3, [pc, #20]	; (800244c <HAL_InitTick+0x9c>)
 8002438:	601c      	str	r4, [r3, #0]
 800243a:	e7e3      	b.n	8002404 <HAL_InitTick+0x54>
 800243c:	40021000 	.word	0x40021000
 8002440:	20000d60 	.word	0x20000d60
 8002444:	40000800 	.word	0x40000800
 8002448:	431bde83 	.word	0x431bde83
 800244c:	20000630 	.word	0x20000630

08002450 <NMI_Handler>:
{
  /* USER CODE BEGIN NonMaskableInt_IRQn 0 */

  /* USER CODE END NonMaskableInt_IRQn 0 */
  /* USER CODE BEGIN NonMaskableInt_IRQn 1 */
  while (1)
 8002450:	e7fe      	b.n	8002450 <NMI_Handler>
	...

08002454 <HardFault_Handler>:
  */
void HardFault_Handler(void)
{
  /* USER CODE BEGIN HardFault_IRQn 0 */
    // Leer el registro CFSR para obtener información sobre el fallo
    uint32_t cfsr = SCB->CFSR;
 8002454:	4b01      	ldr	r3, [pc, #4]	; (800245c <HardFault_Handler+0x8>)
 8002456:	6a9b      	ldr	r3, [r3, #40]	; 0x28
  /* USER CODE END HardFault_IRQn 0 */
  while (1)
 8002458:	e7fe      	b.n	8002458 <HardFault_Handler+0x4>
 800245a:	bf00      	nop
 800245c:	e000ed00 	.word	0xe000ed00

08002460 <MemManage_Handler>:
void MemManage_Handler(void)
{
  /* USER CODE BEGIN MemoryManagement_IRQn 0 */

  /* USER CODE END MemoryManagement_IRQn 0 */
  while (1)
 8002460:	e7fe      	b.n	8002460 <MemManage_Handler>

08002462 <BusFault_Handler>:
void BusFault_Handler(void)
{
  /* USER CODE BEGIN BusFault_IRQn 0 */

  /* USER CODE END BusFault_IRQn 0 */
  while (1)
 8002462:	e7fe      	b.n	8002462 <BusFault_Handler>

08002464 <UsageFault_Handler>:
void UsageFault_Handler(void)
{
  /* USER CODE BEGIN UsageFault_IRQn 0 */

  /* USER CODE END UsageFault_IRQn 0 */
  while (1)
 8002464:	e7fe      	b.n	8002464 <UsageFault_Handler>

08002466 <DebugMon_Handler>:

  /* USER CODE END DebugMonitor_IRQn 0 */
  /* USER CODE BEGIN DebugMonitor_IRQn 1 */

  /* USER CODE END DebugMonitor_IRQn 1 */
}
 8002466:	4770      	bx	lr

08002468 <TIM3_IRQHandler>:

/**
  * @brief This function handles TIM3 global interrupt.
  */
void TIM3_IRQHandler(void)
{
 8002468:	b508      	push	{r3, lr}
  /* USER CODE BEGIN TIM3_IRQn 0 */

  /* USER CODE END TIM3_IRQn 0 */
  HAL_TIM_IRQHandler(&htim3);
 800246a:	4802      	ldr	r0, [pc, #8]	; (8002474 <TIM3_IRQHandler+0xc>)
 800246c:	f002 f9e0 	bl	8004830 <HAL_TIM_IRQHandler>
  /* USER CODE BEGIN TIM3_IRQn 1 */

  /* USER CODE END TIM3_IRQn 1 */
}
 8002470:	bd08      	pop	{r3, pc}
 8002472:	bf00      	nop
 8002474:	2000089c 	.word	0x2000089c

08002478 <TIM4_IRQHandler>:

/**
  * @brief This function handles TIM4 global interrupt.
  */
void TIM4_IRQHandler(void)
{
 8002478:	b508      	push	{r3, lr}
  /* USER CODE BEGIN TIM4_IRQn 0 */

  /* USER CODE END TIM4_IRQn 0 */
  HAL_TIM_IRQHandler(&htim4);
 800247a:	4802      	ldr	r0, [pc, #8]	; (8002484 <TIM4_IRQHandler+0xc>)
 800247c:	f002 f9d8 	bl	8004830 <HAL_TIM_IRQHandler>
  /* USER CODE BEGIN TIM4_IRQn 1 */

  /* USER CODE END TIM4_IRQn 1 */
}
 8002480:	bd08      	pop	{r3, pc}
 8002482:	bf00      	nop
 8002484:	20000d60 	.word	0x20000d60

08002488 <_getpid>:
}

int _getpid(void)
{
  return 1;
}
 8002488:	2001      	movs	r0, #1
 800248a:	4770      	bx	lr

0800248c <_kill>:

int _kill(int pid, int sig)
{
 800248c:	b508      	push	{r3, lr}
  (void)pid;
  (void)sig;
  errno = EINVAL;
 800248e:	f005 fca5 	bl	8007ddc <__errno>
 8002492:	2316      	movs	r3, #22
 8002494:	6003      	str	r3, [r0, #0]
  return -1;
}
 8002496:	f04f 30ff 	mov.w	r0, #4294967295
 800249a:	bd08      	pop	{r3, pc}

0800249c <_exit>:

void _exit (int status)
{
 800249c:	b508      	push	{r3, lr}
  errno = EINVAL;
 800249e:	f005 fc9d 	bl	8007ddc <__errno>
 80024a2:	2316      	movs	r3, #22
 80024a4:	6003      	str	r3, [r0, #0]
  _kill(status, -1);
  while (1) {}    /* Make sure we hang here */
 80024a6:	e7fe      	b.n	80024a6 <_exit+0xa>

080024a8 <_read>:
}

__attribute__((weak)) int _read(int file, char *ptr, int len)
{
 80024a8:	b570      	push	{r4, r5, r6, lr}
  (void)file;
  int DataIdx;

  for (DataIdx = 0; DataIdx < len; DataIdx++)
 80024aa:	1e16      	subs	r6, r2, #0
 80024ac:	dd07      	ble.n	80024be <_read+0x16>
 80024ae:	460c      	mov	r4, r1
 80024b0:	198d      	adds	r5, r1, r6
  {
    *ptr++ = __io_getchar();
 80024b2:	f3af 8000 	nop.w
 80024b6:	f804 0b01 	strb.w	r0, [r4], #1
  for (DataIdx = 0; DataIdx < len; DataIdx++)
 80024ba:	42a5      	cmp	r5, r4
 80024bc:	d1f9      	bne.n	80024b2 <_read+0xa>
  }

  return len;
}
 80024be:	4630      	mov	r0, r6
 80024c0:	bd70      	pop	{r4, r5, r6, pc}

080024c2 <_write>:

__attribute__((weak)) int _write(int file, char *ptr, int len)
{
 80024c2:	b570      	push	{r4, r5, r6, lr}
  (void)file;
  int DataIdx;

  for (DataIdx = 0; DataIdx < len; DataIdx++)
 80024c4:	1e16      	subs	r6, r2, #0
 80024c6:	dd07      	ble.n	80024d8 <_write+0x16>
 80024c8:	460c      	mov	r4, r1
 80024ca:	198d      	adds	r5, r1, r6
  {
    __io_putchar(*ptr++);
 80024cc:	f814 0b01 	ldrb.w	r0, [r4], #1
 80024d0:	f3af 8000 	nop.w
  for (DataIdx = 0; DataIdx < len; DataIdx++)
 80024d4:	42a5      	cmp	r5, r4
 80024d6:	d1f9      	bne.n	80024cc <_write+0xa>
  }
  return len;
}
 80024d8:	4630      	mov	r0, r6
 80024da:	bd70      	pop	{r4, r5, r6, pc}

080024dc <_close>:

int _close(int file)
{
  (void)file;
  return -1;
}
 80024dc:	f04f 30ff 	mov.w	r0, #4294967295
 80024e0:	4770      	bx	lr

080024e2 <_fstat>:


int _fstat(int file, struct stat *st)
{
  (void)file;
  st->st_mode = S_IFCHR;
 80024e2:	f44f 5300 	mov.w	r3, #8192	; 0x2000
 80024e6:	604b      	str	r3, [r1, #4]
  return 0;
}
 80024e8:	2000      	movs	r0, #0
 80024ea:	4770      	bx	lr

080024ec <_isatty>:

int _isatty(int file)
{
  (void)file;
  return 1;
}
 80024ec:	2001      	movs	r0, #1
 80024ee:	4770      	bx	lr

080024f0 <_lseek>:
{
  (void)file;
  (void)ptr;
  (void)dir;
  return 0;
}
 80024f0:	2000      	movs	r0, #0
 80024f2:	4770      	bx	lr

080024f4 <_sbrk>:
 *
 * @param incr Memory size
 * @return Pointer to allocated memory
 */
void *_sbrk(ptrdiff_t incr)
{
 80024f4:	b508      	push	{r3, lr}
 80024f6:	4603      	mov	r3, r0
  const uint32_t stack_limit = (uint32_t)&_estack - (uint32_t)&_Min_Stack_Size;
  const uint8_t *max_heap = (uint8_t *)stack_limit;
  uint8_t *prev_heap_end;

  /* Initialize heap end at first call */
  if (NULL == __sbrk_heap_end)
 80024f8:	4a0c      	ldr	r2, [pc, #48]	; (800252c <_sbrk+0x38>)
 80024fa:	6812      	ldr	r2, [r2, #0]
 80024fc:	b152      	cbz	r2, 8002514 <_sbrk+0x20>
  {
    __sbrk_heap_end = &_end;
  }

  /* Protect heap from growing into the reserved MSP stack */
  if (__sbrk_heap_end + incr > max_heap)
 80024fe:	4a0b      	ldr	r2, [pc, #44]	; (800252c <_sbrk+0x38>)
 8002500:	6810      	ldr	r0, [r2, #0]
 8002502:	4403      	add	r3, r0
 8002504:	4a0a      	ldr	r2, [pc, #40]	; (8002530 <_sbrk+0x3c>)
 8002506:	490b      	ldr	r1, [pc, #44]	; (8002534 <_sbrk+0x40>)
 8002508:	1a52      	subs	r2, r2, r1
 800250a:	4293      	cmp	r3, r2
 800250c:	d806      	bhi.n	800251c <_sbrk+0x28>
    errno = ENOMEM;
    return (void *)-1;
  }

  prev_heap_end = __sbrk_heap_end;
  __sbrk_heap_end += incr;
 800250e:	4a07      	ldr	r2, [pc, #28]	; (800252c <_sbrk+0x38>)
 8002510:	6013      	str	r3, [r2, #0]

  return (void *)prev_heap_end;
}
 8002512:	bd08      	pop	{r3, pc}
    __sbrk_heap_end = &_end;
 8002514:	4a05      	ldr	r2, [pc, #20]	; (800252c <_sbrk+0x38>)
 8002516:	4908      	ldr	r1, [pc, #32]	; (8002538 <_sbrk+0x44>)
 8002518:	6011      	str	r1, [r2, #0]
 800251a:	e7f0      	b.n	80024fe <_sbrk+0xa>
    errno = ENOMEM;
 800251c:	f005 fc5e 	bl	8007ddc <__errno>
 8002520:	230c      	movs	r3, #12
 8002522:	6003      	str	r3, [r0, #0]
    return (void *)-1;
 8002524:	f04f 30ff 	mov.w	r0, #4294967295
 8002528:	e7f3      	b.n	8002512 <_sbrk+0x1e>
 800252a:	bf00      	nop
 800252c:	20000da8 	.word	0x20000da8
 8002530:	20005000 	.word	0x20005000
 8002534:	00000400 	.word	0x00000400
 8002538:	20002be8 	.word	0x20002be8

0800253c <SystemInit>:

  /* Configure the Vector Table location -------------------------------------*/
#if defined(USER_VECT_TAB_ADDRESS)
  SCB->VTOR = VECT_TAB_BASE_ADDRESS | VECT_TAB_OFFSET; /* Vector Table Relocation in Internal SRAM. */
#endif /* USER_VECT_TAB_ADDRESS */
}
 800253c:	4770      	bx	lr
	...

08002540 <Reset_Handler>:
  .section .text.Reset_Handler
  .weak Reset_Handler
  .type Reset_Handler, %function
Reset_Handler:

/* Call the clock system initialization function.*/    bl  SystemInit
 8002540:	f7ff fffc 	bl	800253c <SystemInit>

/* Copy the data segment initializers from flash to SRAM */
  ldr r0, =_sdata
 8002544:	480b      	ldr	r0, [pc, #44]	; (8002574 <LoopFillZerobss+0xe>)
  ldr r1, =_edata
 8002546:	490c      	ldr	r1, [pc, #48]	; (8002578 <LoopFillZerobss+0x12>)
  ldr r2, =_sidata
 8002548:	4a0c      	ldr	r2, [pc, #48]	; (800257c <LoopFillZerobss+0x16>)
  movs r3, #0
 800254a:	2300      	movs	r3, #0
  b LoopCopyDataInit
 800254c:	e002      	b.n	8002554 <LoopCopyDataInit>

0800254e <CopyDataInit>:

CopyDataInit:
  ldr r4, [r2, r3]
 800254e:	58d4      	ldr	r4, [r2, r3]
  str r4, [r0, r3]
 8002550:	50c4      	str	r4, [r0, r3]
  adds r3, r3, #4
 8002552:	3304      	adds	r3, #4

08002554 <LoopCopyDataInit>:

LoopCopyDataInit:
  adds r4, r0, r3
 8002554:	18c4      	adds	r4, r0, r3
  cmp r4, r1
 8002556:	428c      	cmp	r4, r1
  bcc CopyDataInit
 8002558:	d3f9      	bcc.n	800254e <CopyDataInit>
  
/* Zero fill the bss segment. */
  ldr r2, =_sbss
 800255a:	4a09      	ldr	r2, [pc, #36]	; (8002580 <LoopFillZerobss+0x1a>)
  ldr r4, =_ebss
 800255c:	4c09      	ldr	r4, [pc, #36]	; (8002584 <LoopFillZerobss+0x1e>)
  movs r3, #0
 800255e:	2300      	movs	r3, #0
  b LoopFillZerobss
 8002560:	e001      	b.n	8002566 <LoopFillZerobss>

08002562 <FillZerobss>:

FillZerobss:
  str  r3, [r2]
 8002562:	6013      	str	r3, [r2, #0]
  adds r2, r2, #4
 8002564:	3204      	adds	r2, #4

08002566 <LoopFillZerobss>:

LoopFillZerobss:
  cmp r2, r4
 8002566:	42a2      	cmp	r2, r4
  bcc FillZerobss
 8002568:	d3fb      	bcc.n	8002562 <FillZerobss>

/* Call static constructors */
    bl __libc_init_array
 800256a:	f005 fc3d 	bl	8007de8 <__libc_init_array>
/* Call the application's entry point.*/
  bl main
 800256e:	f7fe f9c5 	bl	80008fc <main>
  bx lr
 8002572:	4770      	bx	lr
  ldr r0, =_sdata
 8002574:	20000000 	.word	0x20000000
  ldr r1, =_edata
 8002578:	20000694 	.word	0x20000694
  ldr r2, =_sidata
 800257c:	080098c8 	.word	0x080098c8
  ldr r2, =_sbss
 8002580:	20000694 	.word	0x20000694
  ldr r4, =_ebss
 8002584:	20002be8 	.word	0x20002be8

08002588 <ADC1_2_IRQHandler>:
 * @retval : None
*/
    .section .text.Default_Handler,"ax",%progbits
Default_Handler:
Infinite_Loop:
  b Infinite_Loop
 8002588:	e7fe      	b.n	8002588 <ADC1_2_IRQHandler>
	...

0800258c <HAL_Init>:
  *         need to ensure that the SysTick time base is always set to 1 millisecond
  *         to have correct HAL operation.
  * @retval HAL status
  */
HAL_StatusTypeDef HAL_Init(void)
{
 800258c:	b508      	push	{r3, lr}
    defined(STM32F102x6) || defined(STM32F102xB) || \
    defined(STM32F103x6) || defined(STM32F103xB) || defined(STM32F103xE) || defined(STM32F103xG) || \
    defined(STM32F105xC) || defined(STM32F107xC)

  /* Prefetch buffer is not available on value line devices */
  __HAL_FLASH_PREFETCH_BUFFER_ENABLE();
 800258e:	4a07      	ldr	r2, [pc, #28]	; (80025ac <HAL_Init+0x20>)
 8002590:	6813      	ldr	r3, [r2, #0]
 8002592:	f043 0310 	orr.w	r3, r3, #16
 8002596:	6013      	str	r3, [r2, #0]
#endif
#endif /* PREFETCH_ENABLE */

  /* Set Interrupt Group Priority */
  HAL_NVIC_SetPriorityGrouping(NVIC_PRIORITYGROUP_4);
 8002598:	2003      	movs	r0, #3
 800259a:	f000 fb13 	bl	8002bc4 <HAL_NVIC_SetPriorityGrouping>

  /* Use systick as time base source and configure 1ms tick (default clock after Reset is HSI) */
  HAL_InitTick(TICK_INT_PRIORITY);
 800259e:	200f      	movs	r0, #15
 80025a0:	f7ff ff06 	bl	80023b0 <HAL_InitTick>

  /* Init the low level hardware */
  HAL_MspInit();
 80025a4:	f7ff fdc6 	bl	8002134 <HAL_MspInit>

  /* Return function status */
  return HAL_OK;
}
 80025a8:	2000      	movs	r0, #0
 80025aa:	bd08      	pop	{r3, pc}
 80025ac:	40022000 	.word	0x40022000

080025b0 <HAL_IncTick>:
  *      implementations in user file.
  * @retval None
  */
__weak void HAL_IncTick(void)
{
  uwTick += uwTickFreq;
 80025b0:	4a03      	ldr	r2, [pc, #12]	; (80025c0 <HAL_IncTick+0x10>)
 80025b2:	6811      	ldr	r1, [r2, #0]
 80025b4:	4b03      	ldr	r3, [pc, #12]	; (80025c4 <HAL_IncTick+0x14>)
 80025b6:	781b      	ldrb	r3, [r3, #0]
 80025b8:	440b      	add	r3, r1
 80025ba:	6013      	str	r3, [r2, #0]
}
 80025bc:	4770      	bx	lr
 80025be:	bf00      	nop
 80025c0:	20000dac 	.word	0x20000dac
 80025c4:	2000062c 	.word	0x2000062c

080025c8 <HAL_GetTick>:
  *       implementations in user file.
  * @retval tick value
  */
__weak uint32_t HAL_GetTick(void)
{
  return uwTick;
 80025c8:	4b01      	ldr	r3, [pc, #4]	; (80025d0 <HAL_GetTick+0x8>)
 80025ca:	6818      	ldr	r0, [r3, #0]
}
 80025cc:	4770      	bx	lr
 80025ce:	bf00      	nop
 80025d0:	20000dac 	.word	0x20000dac

080025d4 <HAL_ADC_PollForConversion>:
  * @param  hadc: ADC handle
  * @param  Timeout: Timeout value in millisecond.
  * @retval HAL status
  */
HAL_StatusTypeDef HAL_ADC_PollForConversion(ADC_HandleTypeDef* hadc, uint32_t Timeout)
{
 80025d4:	b5f0      	push	{r4, r5, r6, r7, lr}
 80025d6:	b083      	sub	sp, #12
 80025d8:	4606      	mov	r6, r0
 80025da:	460c      	mov	r4, r1
  uint32_t tickstart = 0U;
  
  /* Variables for polling in case of scan mode enabled and polling for each  */
  /* conversion.                                                              */
  __IO uint32_t Conversion_Timeout_CPU_cycles = 0U;
 80025dc:	2300      	movs	r3, #0
 80025de:	9301      	str	r3, [sp, #4]
 
  /* Check the parameters */
  assert_param(IS_ADC_ALL_INSTANCE(hadc->Instance));
  
  /* Get tick count */
  tickstart = HAL_GetTick();
 80025e0:	f7ff fff2 	bl	80025c8 <HAL_GetTick>
  
  /* Verification that ADC configuration is compliant with polling for        */
  /* each conversion:                                                         */
  /* Particular case is ADC configured in DMA mode                            */
  if (HAL_IS_BIT_SET(hadc->Instance->CR2, ADC_CR2_DMA))
 80025e4:	6833      	ldr	r3, [r6, #0]
 80025e6:	689a      	ldr	r2, [r3, #8]
 80025e8:	f412 7f80 	tst.w	r2, #256	; 0x100
 80025ec:	d124      	bne.n	8002638 <HAL_ADC_PollForConversion+0x64>
 80025ee:	4607      	mov	r7, r0
  /*    from ADC conversion time (selected sampling time + conversion time of */
  /*    12.5 ADC clock cycles) and APB2/ADC clock prescalers (depending on    */
  /*    settings, conversion time range can be from 28 to 32256 CPU cycles).  */
  /*    As flag EOC is not set after each conversion, no timeout status can   */
  /*    be set.                                                               */
  if (HAL_IS_BIT_CLR(hadc->Instance->CR1, ADC_CR1_SCAN) &&
 80025f0:	685a      	ldr	r2, [r3, #4]
 80025f2:	f412 7f80 	tst.w	r2, #256	; 0x100
 80025f6:	d103      	bne.n	8002600 <HAL_ADC_PollForConversion+0x2c>
      HAL_IS_BIT_CLR(hadc->Instance->SQR1, ADC_SQR1_L)    )
 80025f8:	6adb      	ldr	r3, [r3, #44]	; 0x2c
  if (HAL_IS_BIT_CLR(hadc->Instance->CR1, ADC_CR1_SCAN) &&
 80025fa:	f413 0f70 	tst.w	r3, #15728640	; 0xf00000
 80025fe:	d02a      	beq.n	8002656 <HAL_ADC_PollForConversion+0x82>
    /* Replace polling by wait for maximum conversion time */
    /*  - Computation of CPU clock cycles corresponding to ADC clock cycles   */
    /*    and ADC maximum conversion cycles on all channels.                  */
    /*  - Wait for the expected ADC clock cycles delay                        */
    Conversion_Timeout_CPU_cycles_max = ((SystemCoreClock
                                          / HAL_RCCEx_GetPeriphCLKFreq(RCC_PERIPHCLK_ADC))
 8002600:	4b50      	ldr	r3, [pc, #320]	; (8002744 <HAL_ADC_PollForConversion+0x170>)
 8002602:	681d      	ldr	r5, [r3, #0]
 8002604:	2002      	movs	r0, #2
 8002606:	f001 fbf9 	bl	8003dfc <HAL_RCCEx_GetPeriphCLKFreq>
 800260a:	fbb5 f5f0 	udiv	r5, r5, r0
                                         * ADC_CONVCYCLES_MAX_RANGE(hadc)                 );
 800260e:	6833      	ldr	r3, [r6, #0]
 8002610:	6919      	ldr	r1, [r3, #16]
 8002612:	4a4d      	ldr	r2, [pc, #308]	; (8002748 <HAL_ADC_PollForConversion+0x174>)
 8002614:	4211      	tst	r1, r2
 8002616:	d137      	bne.n	8002688 <HAL_ADC_PollForConversion+0xb4>
 8002618:	68d9      	ldr	r1, [r3, #12]
 800261a:	f102 425c 	add.w	r2, r2, #3690987520	; 0xdc000000
 800261e:	4211      	tst	r1, r2
 8002620:	d132      	bne.n	8002688 <HAL_ADC_PollForConversion+0xb4>
 8002622:	6919      	ldr	r1, [r3, #16]
 8002624:	4a49      	ldr	r2, [pc, #292]	; (800274c <HAL_ADC_PollForConversion+0x178>)
 8002626:	4211      	tst	r1, r2
 8002628:	d158      	bne.n	80026dc <HAL_ADC_PollForConversion+0x108>
 800262a:	68da      	ldr	r2, [r3, #12]
 800262c:	4b48      	ldr	r3, [pc, #288]	; (8002750 <HAL_ADC_PollForConversion+0x17c>)
 800262e:	421a      	tst	r2, r3
 8002630:	bf14      	ite	ne
 8002632:	2329      	movne	r3, #41	; 0x29
 8002634:	2314      	moveq	r3, #20
 8002636:	e03b      	b.n	80026b0 <HAL_ADC_PollForConversion+0xdc>
    SET_BIT(hadc->State, HAL_ADC_STATE_ERROR_CONFIG);
 8002638:	6ab3      	ldr	r3, [r6, #40]	; 0x28
 800263a:	f043 0320 	orr.w	r3, r3, #32
 800263e:	62b3      	str	r3, [r6, #40]	; 0x28
    __HAL_UNLOCK(hadc);
 8002640:	2300      	movs	r3, #0
 8002642:	f886 3024 	strb.w	r3, [r6, #36]	; 0x24
    return HAL_ERROR;
 8002646:	2001      	movs	r0, #1
    }
  }
  
  /* Return ADC state */
  return HAL_OK;
}
 8002648:	b003      	add	sp, #12
 800264a:	bdf0      	pop	{r4, r5, r6, r7, pc}
          if(HAL_IS_BIT_CLR(hadc->Instance->SR, ADC_FLAG_EOC))
 800264c:	6833      	ldr	r3, [r6, #0]
 800264e:	681b      	ldr	r3, [r3, #0]
 8002650:	f013 0f02 	tst.w	r3, #2
 8002654:	d00f      	beq.n	8002676 <HAL_ADC_PollForConversion+0xa2>
    while(HAL_IS_BIT_CLR(hadc->Instance->SR, ADC_FLAG_EOC))
 8002656:	6832      	ldr	r2, [r6, #0]
 8002658:	6813      	ldr	r3, [r2, #0]
 800265a:	f013 0f02 	tst.w	r3, #2
 800265e:	d12c      	bne.n	80026ba <HAL_ADC_PollForConversion+0xe6>
      if(Timeout != HAL_MAX_DELAY)
 8002660:	f1b4 3fff 	cmp.w	r4, #4294967295
 8002664:	d0f8      	beq.n	8002658 <HAL_ADC_PollForConversion+0x84>
        if((Timeout == 0U) || ((HAL_GetTick() - tickstart ) > Timeout))
 8002666:	2c00      	cmp	r4, #0
 8002668:	d0f0      	beq.n	800264c <HAL_ADC_PollForConversion+0x78>
 800266a:	f7ff ffad 	bl	80025c8 <HAL_GetTick>
 800266e:	1bc3      	subs	r3, r0, r7
 8002670:	42a3      	cmp	r3, r4
 8002672:	d9f0      	bls.n	8002656 <HAL_ADC_PollForConversion+0x82>
 8002674:	e7ea      	b.n	800264c <HAL_ADC_PollForConversion+0x78>
            SET_BIT(hadc->State, HAL_ADC_STATE_TIMEOUT);
 8002676:	6ab3      	ldr	r3, [r6, #40]	; 0x28
 8002678:	f043 0304 	orr.w	r3, r3, #4
 800267c:	62b3      	str	r3, [r6, #40]	; 0x28
            __HAL_UNLOCK(hadc);
 800267e:	2300      	movs	r3, #0
 8002680:	f886 3024 	strb.w	r3, [r6, #36]	; 0x24
            return HAL_TIMEOUT;
 8002684:	2003      	movs	r0, #3
 8002686:	e7df      	b.n	8002648 <HAL_ADC_PollForConversion+0x74>
                                         * ADC_CONVCYCLES_MAX_RANGE(hadc)                 );
 8002688:	6919      	ldr	r1, [r3, #16]
 800268a:	4a30      	ldr	r2, [pc, #192]	; (800274c <HAL_ADC_PollForConversion+0x178>)
 800268c:	4211      	tst	r1, r2
 800268e:	d104      	bne.n	800269a <HAL_ADC_PollForConversion+0xc6>
 8002690:	68d9      	ldr	r1, [r3, #12]
 8002692:	f102 426e 	add.w	r2, r2, #3992977408	; 0xee000000
 8002696:	4211      	tst	r1, r2
 8002698:	d022      	beq.n	80026e0 <HAL_ADC_PollForConversion+0x10c>
 800269a:	6919      	ldr	r1, [r3, #16]
 800269c:	4a2d      	ldr	r2, [pc, #180]	; (8002754 <HAL_ADC_PollForConversion+0x180>)
 800269e:	400a      	ands	r2, r1
 80026a0:	bb02      	cbnz	r2, 80026e4 <HAL_ADC_PollForConversion+0x110>
 80026a2:	68da      	ldr	r2, [r3, #12]
 80026a4:	4b2b      	ldr	r3, [pc, #172]	; (8002754 <HAL_ADC_PollForConversion+0x180>)
 80026a6:	4013      	ands	r3, r2
 80026a8:	2b00      	cmp	r3, #0
 80026aa:	bf14      	ite	ne
 80026ac:	23fc      	movne	r3, #252	; 0xfc
 80026ae:	2354      	moveq	r3, #84	; 0x54
    Conversion_Timeout_CPU_cycles_max = ((SystemCoreClock
 80026b0:	fb03 f505 	mul.w	r5, r3, r5
    while(Conversion_Timeout_CPU_cycles < Conversion_Timeout_CPU_cycles_max)
 80026b4:	9b01      	ldr	r3, [sp, #4]
 80026b6:	429d      	cmp	r5, r3
 80026b8:	d81f      	bhi.n	80026fa <HAL_ADC_PollForConversion+0x126>
  __HAL_ADC_CLEAR_FLAG(hadc, ADC_FLAG_STRT | ADC_FLAG_EOC);
 80026ba:	6833      	ldr	r3, [r6, #0]
 80026bc:	f06f 0212 	mvn.w	r2, #18
 80026c0:	601a      	str	r2, [r3, #0]
  SET_BIT(hadc->State, HAL_ADC_STATE_REG_EOC);
 80026c2:	6ab3      	ldr	r3, [r6, #40]	; 0x28
 80026c4:	f443 7300 	orr.w	r3, r3, #512	; 0x200
 80026c8:	62b3      	str	r3, [r6, #40]	; 0x28
  if(ADC_IS_SOFTWARE_START_REGULAR(hadc)        && 
 80026ca:	6833      	ldr	r3, [r6, #0]
 80026cc:	689b      	ldr	r3, [r3, #8]
 80026ce:	f403 2360 	and.w	r3, r3, #917504	; 0xe0000
 80026d2:	f5b3 2f60 	cmp.w	r3, #917504	; 0xe0000
 80026d6:	d024      	beq.n	8002722 <HAL_ADC_PollForConversion+0x14e>
  return HAL_OK;
 80026d8:	2000      	movs	r0, #0
 80026da:	e7b5      	b.n	8002648 <HAL_ADC_PollForConversion+0x74>
                                         * ADC_CONVCYCLES_MAX_RANGE(hadc)                 );
 80026dc:	2329      	movs	r3, #41	; 0x29
 80026de:	e7e7      	b.n	80026b0 <HAL_ADC_PollForConversion+0xdc>
 80026e0:	2354      	movs	r3, #84	; 0x54
 80026e2:	e7e5      	b.n	80026b0 <HAL_ADC_PollForConversion+0xdc>
 80026e4:	23fc      	movs	r3, #252	; 0xfc
 80026e6:	e7e3      	b.n	80026b0 <HAL_ADC_PollForConversion+0xdc>
          if(Conversion_Timeout_CPU_cycles < Conversion_Timeout_CPU_cycles_max)
 80026e8:	9b01      	ldr	r3, [sp, #4]
 80026ea:	42ab      	cmp	r3, r5
 80026ec:	d310      	bcc.n	8002710 <HAL_ADC_PollForConversion+0x13c>
      Conversion_Timeout_CPU_cycles ++;
 80026ee:	9b01      	ldr	r3, [sp, #4]
 80026f0:	3301      	adds	r3, #1
 80026f2:	9301      	str	r3, [sp, #4]
    while(Conversion_Timeout_CPU_cycles < Conversion_Timeout_CPU_cycles_max)
 80026f4:	9b01      	ldr	r3, [sp, #4]
 80026f6:	42ab      	cmp	r3, r5
 80026f8:	d2df      	bcs.n	80026ba <HAL_ADC_PollForConversion+0xe6>
      if(Timeout != HAL_MAX_DELAY)
 80026fa:	f1b4 3fff 	cmp.w	r4, #4294967295
 80026fe:	d0f6      	beq.n	80026ee <HAL_ADC_PollForConversion+0x11a>
        if((Timeout == 0U) || ((HAL_GetTick() - tickstart) > Timeout))
 8002700:	2c00      	cmp	r4, #0
 8002702:	d0f1      	beq.n	80026e8 <HAL_ADC_PollForConversion+0x114>
 8002704:	f7ff ff60 	bl	80025c8 <HAL_GetTick>
 8002708:	1bc0      	subs	r0, r0, r7
 800270a:	42a0      	cmp	r0, r4
 800270c:	d9ef      	bls.n	80026ee <HAL_ADC_PollForConversion+0x11a>
 800270e:	e7eb      	b.n	80026e8 <HAL_ADC_PollForConversion+0x114>
            SET_BIT(hadc->State, HAL_ADC_STATE_TIMEOUT);
 8002710:	6ab3      	ldr	r3, [r6, #40]	; 0x28
 8002712:	f043 0304 	orr.w	r3, r3, #4
 8002716:	62b3      	str	r3, [r6, #40]	; 0x28
            __HAL_UNLOCK(hadc);
 8002718:	2300      	movs	r3, #0
 800271a:	f886 3024 	strb.w	r3, [r6, #36]	; 0x24
            return HAL_TIMEOUT;
 800271e:	2003      	movs	r0, #3
 8002720:	e792      	b.n	8002648 <HAL_ADC_PollForConversion+0x74>
     (hadc->Init.ContinuousConvMode == DISABLE)   )
 8002722:	7b30      	ldrb	r0, [r6, #12]
  if(ADC_IS_SOFTWARE_START_REGULAR(hadc)        && 
 8002724:	b960      	cbnz	r0, 8002740 <HAL_ADC_PollForConversion+0x16c>
    CLEAR_BIT(hadc->State, HAL_ADC_STATE_REG_BUSY);   
 8002726:	6ab3      	ldr	r3, [r6, #40]	; 0x28
 8002728:	f423 7380 	bic.w	r3, r3, #256	; 0x100
 800272c:	62b3      	str	r3, [r6, #40]	; 0x28
    if (HAL_IS_BIT_CLR(hadc->State, HAL_ADC_STATE_INJ_BUSY))
 800272e:	6ab3      	ldr	r3, [r6, #40]	; 0x28
 8002730:	f413 5f80 	tst.w	r3, #4096	; 0x1000
 8002734:	d188      	bne.n	8002648 <HAL_ADC_PollForConversion+0x74>
      SET_BIT(hadc->State, HAL_ADC_STATE_READY);
 8002736:	6ab3      	ldr	r3, [r6, #40]	; 0x28
 8002738:	f043 0301 	orr.w	r3, r3, #1
 800273c:	62b3      	str	r3, [r6, #40]	; 0x28
 800273e:	e783      	b.n	8002648 <HAL_ADC_PollForConversion+0x74>
  return HAL_OK;
 8002740:	2000      	movs	r0, #0
 8002742:	e781      	b.n	8002648 <HAL_ADC_PollForConversion+0x74>
 8002744:	20000628 	.word	0x20000628
 8002748:	24924924 	.word	0x24924924
 800274c:	12492492 	.word	0x12492492
 8002750:	00492492 	.word	0x00492492
 8002754:	00249249 	.word	0x00249249

08002758 <HAL_ADC_GetValue>:

  /* Note: EOC flag is not cleared here by software because automatically     */
  /*       cleared by hardware when reading register DR.                      */
  
  /* Return ADC converted value */ 
  return hadc->Instance->DR;
 8002758:	6803      	ldr	r3, [r0, #0]
 800275a:	6cd8      	ldr	r0, [r3, #76]	; 0x4c
}
 800275c:	4770      	bx	lr
	...

08002760 <HAL_ADC_ConfigChannel>:
  * @param  hadc: ADC handle
  * @param  sConfig: Structure of ADC channel for regular group.
  * @retval HAL status
  */
HAL_StatusTypeDef HAL_ADC_ConfigChannel(ADC_HandleTypeDef* hadc, ADC_ChannelConfTypeDef* sConfig)
{ 
 8002760:	b430      	push	{r4, r5}
 8002762:	b082      	sub	sp, #8
  HAL_StatusTypeDef tmp_hal_status = HAL_OK;
  __IO uint32_t wait_loop_index = 0U;
 8002764:	2200      	movs	r2, #0
 8002766:	9201      	str	r2, [sp, #4]
  assert_param(IS_ADC_CHANNEL(sConfig->Channel));
  assert_param(IS_ADC_REGULAR_RANK(sConfig->Rank));
  assert_param(IS_ADC_SAMPLE_TIME(sConfig->SamplingTime));
  
  /* Process locked */
  __HAL_LOCK(hadc);
 8002768:	f890 2024 	ldrb.w	r2, [r0, #36]	; 0x24
 800276c:	2a01      	cmp	r2, #1
 800276e:	f000 8093 	beq.w	8002898 <HAL_ADC_ConfigChannel+0x138>
 8002772:	4603      	mov	r3, r0
 8002774:	2201      	movs	r2, #1
 8002776:	f880 2024 	strb.w	r2, [r0, #36]	; 0x24
  
  
  /* Regular sequence configuration */
  /* For Rank 1 to 6 */
  if (sConfig->Rank < 7U)
 800277a:	684a      	ldr	r2, [r1, #4]
 800277c:	2a06      	cmp	r2, #6
 800277e:	d82d      	bhi.n	80027dc <HAL_ADC_ConfigChannel+0x7c>
  {
    MODIFY_REG(hadc->Instance->SQR3                        ,
 8002780:	6804      	ldr	r4, [r0, #0]
 8002782:	6b60      	ldr	r0, [r4, #52]	; 0x34
 8002784:	eb02 0282 	add.w	r2, r2, r2, lsl #2
 8002788:	3a05      	subs	r2, #5
 800278a:	f04f 0c1f 	mov.w	ip, #31
 800278e:	fa0c fc02 	lsl.w	ip, ip, r2
 8002792:	ea20 000c 	bic.w	r0, r0, ip
 8002796:	680d      	ldr	r5, [r1, #0]
 8002798:	fa05 f202 	lsl.w	r2, r5, r2
 800279c:	4302      	orrs	r2, r0
 800279e:	6362      	str	r2, [r4, #52]	; 0x34
  }
  
  
  /* Channel sampling time configuration */
  /* For channels 10 to 17 */
  if (sConfig->Channel >= ADC_CHANNEL_10)
 80027a0:	680a      	ldr	r2, [r1, #0]
 80027a2:	2a09      	cmp	r2, #9
 80027a4:	d938      	bls.n	8002818 <HAL_ADC_ConfigChannel+0xb8>
  {
    MODIFY_REG(hadc->Instance->SMPR1                             ,
 80027a6:	681c      	ldr	r4, [r3, #0]
 80027a8:	68e0      	ldr	r0, [r4, #12]
 80027aa:	eb02 0242 	add.w	r2, r2, r2, lsl #1
 80027ae:	3a1e      	subs	r2, #30
 80027b0:	f04f 0c07 	mov.w	ip, #7
 80027b4:	fa0c fc02 	lsl.w	ip, ip, r2
 80027b8:	ea20 000c 	bic.w	r0, r0, ip
 80027bc:	688d      	ldr	r5, [r1, #8]
 80027be:	fa05 f202 	lsl.w	r2, r5, r2
 80027c2:	4302      	orrs	r2, r0
 80027c4:	60e2      	str	r2, [r4, #12]
               ADC_SMPR2(sConfig->SamplingTime, sConfig->Channel) );
  }
  
  /* If ADC1 Channel_16 or Channel_17 is selected, enable Temperature sensor  */
  /* and VREFINT measurement path.                                            */
  if ((sConfig->Channel == ADC_CHANNEL_TEMPSENSOR) ||
 80027c6:	680a      	ldr	r2, [r1, #0]
 80027c8:	3a10      	subs	r2, #16
 80027ca:	2a01      	cmp	r2, #1
 80027cc:	d934      	bls.n	8002838 <HAL_ADC_ConfigChannel+0xd8>
  HAL_StatusTypeDef tmp_hal_status = HAL_OK;
 80027ce:	2000      	movs	r0, #0
      tmp_hal_status = HAL_ERROR;
    }
  }
  
  /* Process unlocked */
  __HAL_UNLOCK(hadc);
 80027d0:	2200      	movs	r2, #0
 80027d2:	f883 2024 	strb.w	r2, [r3, #36]	; 0x24
  
  /* Return function status */
  return tmp_hal_status;
}
 80027d6:	b002      	add	sp, #8
 80027d8:	bc30      	pop	{r4, r5}
 80027da:	4770      	bx	lr
  else if (sConfig->Rank < 13U)
 80027dc:	2a0c      	cmp	r2, #12
 80027de:	d80d      	bhi.n	80027fc <HAL_ADC_ConfigChannel+0x9c>
    MODIFY_REG(hadc->Instance->SQR2                        ,
 80027e0:	6805      	ldr	r5, [r0, #0]
 80027e2:	6b28      	ldr	r0, [r5, #48]	; 0x30
 80027e4:	eb02 0282 	add.w	r2, r2, r2, lsl #2
 80027e8:	3a23      	subs	r2, #35	; 0x23
 80027ea:	241f      	movs	r4, #31
 80027ec:	4094      	lsls	r4, r2
 80027ee:	ea20 0004 	bic.w	r0, r0, r4
 80027f2:	680c      	ldr	r4, [r1, #0]
 80027f4:	4094      	lsls	r4, r2
 80027f6:	4320      	orrs	r0, r4
 80027f8:	6328      	str	r0, [r5, #48]	; 0x30
 80027fa:	e7d1      	b.n	80027a0 <HAL_ADC_ConfigChannel+0x40>
    MODIFY_REG(hadc->Instance->SQR1                        ,
 80027fc:	6805      	ldr	r5, [r0, #0]
 80027fe:	6ae8      	ldr	r0, [r5, #44]	; 0x2c
 8002800:	eb02 0282 	add.w	r2, r2, r2, lsl #2
 8002804:	3a41      	subs	r2, #65	; 0x41
 8002806:	241f      	movs	r4, #31
 8002808:	4094      	lsls	r4, r2
 800280a:	ea20 0004 	bic.w	r0, r0, r4
 800280e:	680c      	ldr	r4, [r1, #0]
 8002810:	4094      	lsls	r4, r2
 8002812:	4320      	orrs	r0, r4
 8002814:	62e8      	str	r0, [r5, #44]	; 0x2c
 8002816:	e7c3      	b.n	80027a0 <HAL_ADC_ConfigChannel+0x40>
    MODIFY_REG(hadc->Instance->SMPR2                             ,
 8002818:	681c      	ldr	r4, [r3, #0]
 800281a:	6920      	ldr	r0, [r4, #16]
 800281c:	eb02 0242 	add.w	r2, r2, r2, lsl #1
 8002820:	f04f 0c07 	mov.w	ip, #7
 8002824:	fa0c fc02 	lsl.w	ip, ip, r2
 8002828:	ea20 000c 	bic.w	r0, r0, ip
 800282c:	688d      	ldr	r5, [r1, #8]
 800282e:	fa05 f202 	lsl.w	r2, r5, r2
 8002832:	4302      	orrs	r2, r0
 8002834:	6122      	str	r2, [r4, #16]
 8002836:	e7c6      	b.n	80027c6 <HAL_ADC_ConfigChannel+0x66>
    if (hadc->Instance == ADC1)
 8002838:	6818      	ldr	r0, [r3, #0]
 800283a:	4a18      	ldr	r2, [pc, #96]	; (800289c <HAL_ADC_ConfigChannel+0x13c>)
 800283c:	4290      	cmp	r0, r2
 800283e:	d005      	beq.n	800284c <HAL_ADC_ConfigChannel+0xec>
      SET_BIT(hadc->State, HAL_ADC_STATE_ERROR_CONFIG);
 8002840:	6a9a      	ldr	r2, [r3, #40]	; 0x28
 8002842:	f042 0220 	orr.w	r2, r2, #32
 8002846:	629a      	str	r2, [r3, #40]	; 0x28
      tmp_hal_status = HAL_ERROR;
 8002848:	2001      	movs	r0, #1
 800284a:	e7c1      	b.n	80027d0 <HAL_ADC_ConfigChannel+0x70>
      if (READ_BIT(hadc->Instance->CR2, ADC_CR2_TSVREFE) == RESET)
 800284c:	6892      	ldr	r2, [r2, #8]
 800284e:	f412 0f00 	tst.w	r2, #8388608	; 0x800000
 8002852:	d11d      	bne.n	8002890 <HAL_ADC_ConfigChannel+0x130>
        SET_BIT(hadc->Instance->CR2, ADC_CR2_TSVREFE);
 8002854:	4811      	ldr	r0, [pc, #68]	; (800289c <HAL_ADC_ConfigChannel+0x13c>)
 8002856:	6882      	ldr	r2, [r0, #8]
 8002858:	f442 0200 	orr.w	r2, r2, #8388608	; 0x800000
 800285c:	6082      	str	r2, [r0, #8]
        if (sConfig->Channel == ADC_CHANNEL_TEMPSENSOR)
 800285e:	680a      	ldr	r2, [r1, #0]
 8002860:	2a10      	cmp	r2, #16
 8002862:	d001      	beq.n	8002868 <HAL_ADC_ConfigChannel+0x108>
  HAL_StatusTypeDef tmp_hal_status = HAL_OK;
 8002864:	2000      	movs	r0, #0
 8002866:	e7b3      	b.n	80027d0 <HAL_ADC_ConfigChannel+0x70>
          wait_loop_index = (ADC_TEMPSENSOR_DELAY_US * (SystemCoreClock / 1000000U));
 8002868:	4a0d      	ldr	r2, [pc, #52]	; (80028a0 <HAL_ADC_ConfigChannel+0x140>)
 800286a:	6812      	ldr	r2, [r2, #0]
 800286c:	490d      	ldr	r1, [pc, #52]	; (80028a4 <HAL_ADC_ConfigChannel+0x144>)
 800286e:	fba1 1202 	umull	r1, r2, r1, r2
 8002872:	0c92      	lsrs	r2, r2, #18
 8002874:	eb02 0282 	add.w	r2, r2, r2, lsl #2
 8002878:	0052      	lsls	r2, r2, #1
 800287a:	9201      	str	r2, [sp, #4]
          while(wait_loop_index != 0U)
 800287c:	9a01      	ldr	r2, [sp, #4]
 800287e:	b14a      	cbz	r2, 8002894 <HAL_ADC_ConfigChannel+0x134>
            wait_loop_index--;
 8002880:	9a01      	ldr	r2, [sp, #4]
 8002882:	3a01      	subs	r2, #1
 8002884:	9201      	str	r2, [sp, #4]
          while(wait_loop_index != 0U)
 8002886:	9a01      	ldr	r2, [sp, #4]
 8002888:	2a00      	cmp	r2, #0
 800288a:	d1f9      	bne.n	8002880 <HAL_ADC_ConfigChannel+0x120>
  HAL_StatusTypeDef tmp_hal_status = HAL_OK;
 800288c:	2000      	movs	r0, #0
 800288e:	e79f      	b.n	80027d0 <HAL_ADC_ConfigChannel+0x70>
 8002890:	2000      	movs	r0, #0
 8002892:	e79d      	b.n	80027d0 <HAL_ADC_ConfigChannel+0x70>
 8002894:	2000      	movs	r0, #0
 8002896:	e79b      	b.n	80027d0 <HAL_ADC_ConfigChannel+0x70>
  __HAL_LOCK(hadc);
 8002898:	2002      	movs	r0, #2
 800289a:	e79c      	b.n	80027d6 <HAL_ADC_ConfigChannel+0x76>
 800289c:	40012400 	.word	0x40012400
 80028a0:	20000628 	.word	0x20000628
 80028a4:	431bde83 	.word	0x431bde83

080028a8 <ADC_Enable>:
  *         and voltage regulator must be enabled (done into HAL_ADC_Init()).
  * @param  hadc: ADC handle
  * @retval HAL status.
  */
HAL_StatusTypeDef ADC_Enable(ADC_HandleTypeDef* hadc)
{
 80028a8:	b530      	push	{r4, r5, lr}
 80028aa:	b083      	sub	sp, #12
  uint32_t tickstart = 0U;
  __IO uint32_t wait_loop_index = 0U;
 80028ac:	2300      	movs	r3, #0
 80028ae:	9301      	str	r3, [sp, #4]
  
  /* ADC enable and wait for ADC ready (in case of ADC is disabled or         */
  /* enabling phase not yet completed: flag ADC ready not yet set).           */
  /* Timeout implemented to not be stuck if ADC cannot be enabled (possible   */
  /* causes: ADC clock not running, ...).                                     */
  if (ADC_IS_ENABLE(hadc) == RESET)
 80028b0:	6803      	ldr	r3, [r0, #0]
 80028b2:	689a      	ldr	r2, [r3, #8]
 80028b4:	f012 0f01 	tst.w	r2, #1
 80028b8:	d13b      	bne.n	8002932 <ADC_Enable+0x8a>
 80028ba:	4604      	mov	r4, r0
  {
    /* Enable the Peripheral */
    __HAL_ADC_ENABLE(hadc);
 80028bc:	689a      	ldr	r2, [r3, #8]
 80028be:	f042 0201 	orr.w	r2, r2, #1
 80028c2:	609a      	str	r2, [r3, #8]
    
    /* Delay for ADC stabilization time */
    /* Compute number of CPU cycles to wait for */
    wait_loop_index = (ADC_STAB_DELAY_US * (SystemCoreClock / 1000000U));
 80028c4:	4b1c      	ldr	r3, [pc, #112]	; (8002938 <ADC_Enable+0x90>)
 80028c6:	681b      	ldr	r3, [r3, #0]
 80028c8:	4a1c      	ldr	r2, [pc, #112]	; (800293c <ADC_Enable+0x94>)
 80028ca:	fba2 2303 	umull	r2, r3, r2, r3
 80028ce:	0c9b      	lsrs	r3, r3, #18
 80028d0:	9301      	str	r3, [sp, #4]
    while(wait_loop_index != 0U)
 80028d2:	9b01      	ldr	r3, [sp, #4]
 80028d4:	b12b      	cbz	r3, 80028e2 <ADC_Enable+0x3a>
    {
      wait_loop_index--;
 80028d6:	9b01      	ldr	r3, [sp, #4]
 80028d8:	3b01      	subs	r3, #1
 80028da:	9301      	str	r3, [sp, #4]
    while(wait_loop_index != 0U)
 80028dc:	9b01      	ldr	r3, [sp, #4]
 80028de:	2b00      	cmp	r3, #0
 80028e0:	d1f9      	bne.n	80028d6 <ADC_Enable+0x2e>
    }
    
    /* Get tick count */
    tickstart = HAL_GetTick();
 80028e2:	f7ff fe71 	bl	80025c8 <HAL_GetTick>
 80028e6:	4605      	mov	r5, r0

    /* Wait for ADC effectively enabled */
    while(ADC_IS_ENABLE(hadc) == RESET)
 80028e8:	6823      	ldr	r3, [r4, #0]
 80028ea:	689b      	ldr	r3, [r3, #8]
 80028ec:	f013 0f01 	tst.w	r3, #1
 80028f0:	d006      	beq.n	8002900 <ADC_Enable+0x58>
      }
    }
  }
   
  /* Return HAL status */
  return HAL_OK;
 80028f2:	2000      	movs	r0, #0
 80028f4:	e01e      	b.n	8002934 <ADC_Enable+0x8c>
    while(ADC_IS_ENABLE(hadc) == RESET)
 80028f6:	6823      	ldr	r3, [r4, #0]
 80028f8:	689b      	ldr	r3, [r3, #8]
 80028fa:	f013 0f01 	tst.w	r3, #1
 80028fe:	d116      	bne.n	800292e <ADC_Enable+0x86>
      if((HAL_GetTick() - tickstart) > ADC_ENABLE_TIMEOUT)
 8002900:	f7ff fe62 	bl	80025c8 <HAL_GetTick>
 8002904:	1b43      	subs	r3, r0, r5
 8002906:	2b02      	cmp	r3, #2
 8002908:	d9f5      	bls.n	80028f6 <ADC_Enable+0x4e>
        if(ADC_IS_ENABLE(hadc) == RESET)
 800290a:	6823      	ldr	r3, [r4, #0]
 800290c:	689b      	ldr	r3, [r3, #8]
 800290e:	f013 0f01 	tst.w	r3, #1
 8002912:	d1f0      	bne.n	80028f6 <ADC_Enable+0x4e>
          SET_BIT(hadc->State, HAL_ADC_STATE_ERROR_INTERNAL);
 8002914:	6aa3      	ldr	r3, [r4, #40]	; 0x28
 8002916:	f043 0310 	orr.w	r3, r3, #16
 800291a:	62a3      	str	r3, [r4, #40]	; 0x28
          SET_BIT(hadc->ErrorCode, HAL_ADC_ERROR_INTERNAL);
 800291c:	6ae3      	ldr	r3, [r4, #44]	; 0x2c
 800291e:	f043 0301 	orr.w	r3, r3, #1
 8002922:	62e3      	str	r3, [r4, #44]	; 0x2c
          __HAL_UNLOCK(hadc);
 8002924:	2300      	movs	r3, #0
 8002926:	f884 3024 	strb.w	r3, [r4, #36]	; 0x24
          return HAL_ERROR;
 800292a:	2001      	movs	r0, #1
 800292c:	e002      	b.n	8002934 <ADC_Enable+0x8c>
  return HAL_OK;
 800292e:	2000      	movs	r0, #0
 8002930:	e000      	b.n	8002934 <ADC_Enable+0x8c>
 8002932:	2000      	movs	r0, #0
}
 8002934:	b003      	add	sp, #12
 8002936:	bd30      	pop	{r4, r5, pc}
 8002938:	20000628 	.word	0x20000628
 800293c:	431bde83 	.word	0x431bde83

08002940 <HAL_ADC_Start>:
  __HAL_LOCK(hadc);
 8002940:	f890 3024 	ldrb.w	r3, [r0, #36]	; 0x24
 8002944:	2b01      	cmp	r3, #1
 8002946:	d066      	beq.n	8002a16 <HAL_ADC_Start+0xd6>
{
 8002948:	b510      	push	{r4, lr}
 800294a:	4604      	mov	r4, r0
  __HAL_LOCK(hadc);
 800294c:	2301      	movs	r3, #1
 800294e:	f880 3024 	strb.w	r3, [r0, #36]	; 0x24
  tmp_hal_status = ADC_Enable(hadc);
 8002952:	f7ff ffa9 	bl	80028a8 <ADC_Enable>
  if (tmp_hal_status == HAL_OK)
 8002956:	2800      	cmp	r0, #0
 8002958:	d159      	bne.n	8002a0e <HAL_ADC_Start+0xce>
    ADC_STATE_CLR_SET(hadc->State,
 800295a:	6aa3      	ldr	r3, [r4, #40]	; 0x28
 800295c:	f423 7340 	bic.w	r3, r3, #768	; 0x300
 8002960:	f023 0301 	bic.w	r3, r3, #1
 8002964:	f443 7380 	orr.w	r3, r3, #256	; 0x100
 8002968:	62a3      	str	r3, [r4, #40]	; 0x28
    if (ADC_NONMULTIMODE_OR_MULTIMODEMASTER(hadc))
 800296a:	6823      	ldr	r3, [r4, #0]
 800296c:	4a2b      	ldr	r2, [pc, #172]	; (8002a1c <HAL_ADC_Start+0xdc>)
 800296e:	4293      	cmp	r3, r2
 8002970:	d028      	beq.n	80029c4 <HAL_ADC_Start+0x84>
      CLEAR_BIT(hadc->State, HAL_ADC_STATE_MULTIMODE_SLAVE);
 8002972:	6aa2      	ldr	r2, [r4, #40]	; 0x28
 8002974:	f422 1280 	bic.w	r2, r2, #1048576	; 0x100000
 8002978:	62a2      	str	r2, [r4, #40]	; 0x28
      if (READ_BIT(hadc->Instance->CR1, ADC_CR1_JAUTO) != RESET)
 800297a:	685a      	ldr	r2, [r3, #4]
 800297c:	f412 6f80 	tst.w	r2, #1024	; 0x400
 8002980:	d005      	beq.n	800298e <HAL_ADC_Start+0x4e>
        ADC_STATE_CLR_SET(hadc->State, HAL_ADC_STATE_INJ_EOC, HAL_ADC_STATE_INJ_BUSY);  
 8002982:	6aa2      	ldr	r2, [r4, #40]	; 0x28
 8002984:	f422 5240 	bic.w	r2, r2, #12288	; 0x3000
 8002988:	f442 5280 	orr.w	r2, r2, #4096	; 0x1000
 800298c:	62a2      	str	r2, [r4, #40]	; 0x28
    if (HAL_IS_BIT_SET(hadc->State, HAL_ADC_STATE_INJ_BUSY))
 800298e:	6aa2      	ldr	r2, [r4, #40]	; 0x28
 8002990:	f412 5f80 	tst.w	r2, #4096	; 0x1000
      CLEAR_BIT(hadc->ErrorCode, (HAL_ADC_ERROR_OVR | HAL_ADC_ERROR_DMA));         
 8002994:	bf1a      	itte	ne
 8002996:	6ae2      	ldrne	r2, [r4, #44]	; 0x2c
 8002998:	f022 0206 	bicne.w	r2, r2, #6
      ADC_CLEAR_ERRORCODE(hadc);
 800299c:	2200      	moveq	r2, #0
 800299e:	62e2      	str	r2, [r4, #44]	; 0x2c
    __HAL_UNLOCK(hadc);
 80029a0:	2200      	movs	r2, #0
 80029a2:	f884 2024 	strb.w	r2, [r4, #36]	; 0x24
    __HAL_ADC_CLEAR_FLAG(hadc, ADC_FLAG_EOC);
 80029a6:	f06f 0202 	mvn.w	r2, #2
 80029aa:	601a      	str	r2, [r3, #0]
    if (ADC_IS_SOFTWARE_START_REGULAR(hadc)      &&
 80029ac:	6823      	ldr	r3, [r4, #0]
 80029ae:	689a      	ldr	r2, [r3, #8]
 80029b0:	f402 2260 	and.w	r2, r2, #917504	; 0xe0000
 80029b4:	f5b2 2f60 	cmp.w	r2, #917504	; 0xe0000
 80029b8:	d01a      	beq.n	80029f0 <HAL_ADC_Start+0xb0>
      SET_BIT(hadc->Instance->CR2, ADC_CR2_EXTTRIG);
 80029ba:	689a      	ldr	r2, [r3, #8]
 80029bc:	f442 1280 	orr.w	r2, r2, #1048576	; 0x100000
 80029c0:	609a      	str	r2, [r3, #8]
 80029c2:	e027      	b.n	8002a14 <HAL_ADC_Start+0xd4>
    if (ADC_NONMULTIMODE_OR_MULTIMODEMASTER(hadc))
 80029c4:	f5a2 6280 	sub.w	r2, r2, #1024	; 0x400
 80029c8:	6852      	ldr	r2, [r2, #4]
 80029ca:	f412 2f70 	tst.w	r2, #983040	; 0xf0000
 80029ce:	d0d0      	beq.n	8002972 <HAL_ADC_Start+0x32>
      SET_BIT(hadc->State, HAL_ADC_STATE_MULTIMODE_SLAVE);
 80029d0:	6aa2      	ldr	r2, [r4, #40]	; 0x28
 80029d2:	f442 1280 	orr.w	r2, r2, #1048576	; 0x100000
 80029d6:	62a2      	str	r2, [r4, #40]	; 0x28
      if (ADC_MULTIMODE_AUTO_INJECTED(hadc))
 80029d8:	4a11      	ldr	r2, [pc, #68]	; (8002a20 <HAL_ADC_Start+0xe0>)
 80029da:	6852      	ldr	r2, [r2, #4]
 80029dc:	f412 6f80 	tst.w	r2, #1024	; 0x400
 80029e0:	d0d5      	beq.n	800298e <HAL_ADC_Start+0x4e>
        ADC_STATE_CLR_SET(hadc->State, HAL_ADC_STATE_INJ_EOC, HAL_ADC_STATE_INJ_BUSY);
 80029e2:	6aa2      	ldr	r2, [r4, #40]	; 0x28
 80029e4:	f422 5240 	bic.w	r2, r2, #12288	; 0x3000
 80029e8:	f442 5280 	orr.w	r2, r2, #4096	; 0x1000
 80029ec:	62a2      	str	r2, [r4, #40]	; 0x28
 80029ee:	e7ce      	b.n	800298e <HAL_ADC_Start+0x4e>
    if (ADC_IS_SOFTWARE_START_REGULAR(hadc)      &&
 80029f0:	4a0a      	ldr	r2, [pc, #40]	; (8002a1c <HAL_ADC_Start+0xdc>)
 80029f2:	4293      	cmp	r3, r2
 80029f4:	d004      	beq.n	8002a00 <HAL_ADC_Start+0xc0>
      SET_BIT(hadc->Instance->CR2, (ADC_CR2_SWSTART | ADC_CR2_EXTTRIG));
 80029f6:	689a      	ldr	r2, [r3, #8]
 80029f8:	f442 02a0 	orr.w	r2, r2, #5242880	; 0x500000
 80029fc:	609a      	str	r2, [r3, #8]
 80029fe:	e009      	b.n	8002a14 <HAL_ADC_Start+0xd4>
        ADC_NONMULTIMODE_OR_MULTIMODEMASTER(hadc)  )
 8002a00:	f5a2 6280 	sub.w	r2, r2, #1024	; 0x400
 8002a04:	6852      	ldr	r2, [r2, #4]
    if (ADC_IS_SOFTWARE_START_REGULAR(hadc)      &&
 8002a06:	f412 2f70 	tst.w	r2, #983040	; 0xf0000
 8002a0a:	d1d6      	bne.n	80029ba <HAL_ADC_Start+0x7a>
 8002a0c:	e7f3      	b.n	80029f6 <HAL_ADC_Start+0xb6>
    __HAL_UNLOCK(hadc);
 8002a0e:	2300      	movs	r3, #0
 8002a10:	f884 3024 	strb.w	r3, [r4, #36]	; 0x24
}
 8002a14:	bd10      	pop	{r4, pc}
  __HAL_LOCK(hadc);
 8002a16:	2002      	movs	r0, #2
}
 8002a18:	4770      	bx	lr
 8002a1a:	bf00      	nop
 8002a1c:	40012800 	.word	0x40012800
 8002a20:	40012400 	.word	0x40012400

08002a24 <ADC_ConversionStop_Disable>:
  *         stopped to disable the ADC.
  * @param  hadc: ADC handle
  * @retval HAL status.
  */
HAL_StatusTypeDef ADC_ConversionStop_Disable(ADC_HandleTypeDef* hadc)
{
 8002a24:	b538      	push	{r3, r4, r5, lr}
  uint32_t tickstart = 0U;
  
  /* Verification if ADC is not already disabled */
  if (ADC_IS_ENABLE(hadc) != RESET)
 8002a26:	6803      	ldr	r3, [r0, #0]
 8002a28:	689a      	ldr	r2, [r3, #8]
 8002a2a:	f012 0f01 	tst.w	r2, #1
 8002a2e:	d101      	bne.n	8002a34 <ADC_ConversionStop_Disable+0x10>
      }
    }
  }
  
  /* Return HAL status */
  return HAL_OK;
 8002a30:	2000      	movs	r0, #0
}
 8002a32:	bd38      	pop	{r3, r4, r5, pc}
 8002a34:	4604      	mov	r4, r0
    __HAL_ADC_DISABLE(hadc);
 8002a36:	689a      	ldr	r2, [r3, #8]
 8002a38:	f022 0201 	bic.w	r2, r2, #1
 8002a3c:	609a      	str	r2, [r3, #8]
    tickstart = HAL_GetTick();
 8002a3e:	f7ff fdc3 	bl	80025c8 <HAL_GetTick>
 8002a42:	4605      	mov	r5, r0
    while(ADC_IS_ENABLE(hadc) != RESET)
 8002a44:	6823      	ldr	r3, [r4, #0]
 8002a46:	689b      	ldr	r3, [r3, #8]
 8002a48:	f013 0f01 	tst.w	r3, #1
 8002a4c:	d106      	bne.n	8002a5c <ADC_ConversionStop_Disable+0x38>
  return HAL_OK;
 8002a4e:	2000      	movs	r0, #0
 8002a50:	e7ef      	b.n	8002a32 <ADC_ConversionStop_Disable+0xe>
    while(ADC_IS_ENABLE(hadc) != RESET)
 8002a52:	6823      	ldr	r3, [r4, #0]
 8002a54:	689b      	ldr	r3, [r3, #8]
 8002a56:	f013 0f01 	tst.w	r3, #1
 8002a5a:	d013      	beq.n	8002a84 <ADC_ConversionStop_Disable+0x60>
      if((HAL_GetTick() - tickstart) > ADC_DISABLE_TIMEOUT)
 8002a5c:	f7ff fdb4 	bl	80025c8 <HAL_GetTick>
 8002a60:	1b43      	subs	r3, r0, r5
 8002a62:	2b02      	cmp	r3, #2
 8002a64:	d9f5      	bls.n	8002a52 <ADC_ConversionStop_Disable+0x2e>
        if(ADC_IS_ENABLE(hadc) != RESET)
 8002a66:	6823      	ldr	r3, [r4, #0]
 8002a68:	689b      	ldr	r3, [r3, #8]
 8002a6a:	f013 0f01 	tst.w	r3, #1
 8002a6e:	d0f0      	beq.n	8002a52 <ADC_ConversionStop_Disable+0x2e>
          SET_BIT(hadc->State, HAL_ADC_STATE_ERROR_INTERNAL);
 8002a70:	6aa3      	ldr	r3, [r4, #40]	; 0x28
 8002a72:	f043 0310 	orr.w	r3, r3, #16
 8002a76:	62a3      	str	r3, [r4, #40]	; 0x28
          SET_BIT(hadc->ErrorCode, HAL_ADC_ERROR_INTERNAL);
 8002a78:	6ae3      	ldr	r3, [r4, #44]	; 0x2c
 8002a7a:	f043 0301 	orr.w	r3, r3, #1
 8002a7e:	62e3      	str	r3, [r4, #44]	; 0x2c
          return HAL_ERROR;
 8002a80:	2001      	movs	r0, #1
 8002a82:	e7d6      	b.n	8002a32 <ADC_ConversionStop_Disable+0xe>
  return HAL_OK;
 8002a84:	2000      	movs	r0, #0
 8002a86:	e7d4      	b.n	8002a32 <ADC_ConversionStop_Disable+0xe>

08002a88 <HAL_ADC_Init>:
  if(hadc == NULL)
 8002a88:	2800      	cmp	r0, #0
 8002a8a:	d07a      	beq.n	8002b82 <HAL_ADC_Init+0xfa>
{
 8002a8c:	b570      	push	{r4, r5, r6, lr}
 8002a8e:	4604      	mov	r4, r0
  if (hadc->State == HAL_ADC_STATE_RESET)
 8002a90:	6a83      	ldr	r3, [r0, #40]	; 0x28
 8002a92:	2b00      	cmp	r3, #0
 8002a94:	d04f      	beq.n	8002b36 <HAL_ADC_Init+0xae>
  tmp_hal_status = ADC_ConversionStop_Disable(hadc);
 8002a96:	4620      	mov	r0, r4
 8002a98:	f7ff ffc4 	bl	8002a24 <ADC_ConversionStop_Disable>
  if (HAL_IS_BIT_CLR(hadc->State, HAL_ADC_STATE_ERROR_INTERNAL) &&
 8002a9c:	6aa3      	ldr	r3, [r4, #40]	; 0x28
 8002a9e:	f013 0310 	ands.w	r3, r3, #16
 8002aa2:	d168      	bne.n	8002b76 <HAL_ADC_Init+0xee>
 8002aa4:	2800      	cmp	r0, #0
 8002aa6:	d166      	bne.n	8002b76 <HAL_ADC_Init+0xee>
    ADC_STATE_CLR_SET(hadc->State,
 8002aa8:	6aa2      	ldr	r2, [r4, #40]	; 0x28
 8002aaa:	f422 5288 	bic.w	r2, r2, #4352	; 0x1100
 8002aae:	f022 0202 	bic.w	r2, r2, #2
 8002ab2:	f042 0202 	orr.w	r2, r2, #2
 8002ab6:	62a2      	str	r2, [r4, #40]	; 0x28
                ADC_CR2_CONTINUOUS((uint32_t)hadc->Init.ContinuousConvMode)   );
 8002ab8:	7b21      	ldrb	r1, [r4, #12]
    tmp_cr2 |= (hadc->Init.DataAlign                                          |
 8002aba:	6862      	ldr	r2, [r4, #4]
 8002abc:	69e5      	ldr	r5, [r4, #28]
 8002abe:	432a      	orrs	r2, r5
                ADC_CFGR_EXTSEL(hadc, hadc->Init.ExternalTrigConv)            |
 8002ac0:	ea42 0241 	orr.w	r2, r2, r1, lsl #1
    tmp_cr1 |= (ADC_CR1_SCAN_SET(hadc->Init.ScanConvMode));
 8002ac4:	68a5      	ldr	r5, [r4, #8]
 8002ac6:	f5b5 7f80 	cmp.w	r5, #256	; 0x100
 8002aca:	d004      	beq.n	8002ad6 <HAL_ADC_Init+0x4e>
 8002acc:	2d01      	cmp	r5, #1
 8002ace:	bf14      	ite	ne
 8002ad0:	2500      	movne	r5, #0
 8002ad2:	2501      	moveq	r5, #1
 8002ad4:	022d      	lsls	r5, r5, #8
    if (hadc->Init.DiscontinuousConvMode == ENABLE)
 8002ad6:	7d26      	ldrb	r6, [r4, #20]
 8002ad8:	2e01      	cmp	r6, #1
 8002ada:	d032      	beq.n	8002b42 <HAL_ADC_Init+0xba>
      MODIFY_REG(hadc->Instance->CR1,
 8002adc:	6826      	ldr	r6, [r4, #0]
 8002ade:	6871      	ldr	r1, [r6, #4]
 8002ae0:	f421 4169 	bic.w	r1, r1, #59648	; 0xe900
 8002ae4:	4329      	orrs	r1, r5
 8002ae6:	6071      	str	r1, [r6, #4]
      MODIFY_REG(hadc->Instance->CR2,
 8002ae8:	6825      	ldr	r5, [r4, #0]
 8002aea:	68ae      	ldr	r6, [r5, #8]
 8002aec:	4926      	ldr	r1, [pc, #152]	; (8002b88 <HAL_ADC_Init+0x100>)
 8002aee:	4031      	ands	r1, r6
 8002af0:	4311      	orrs	r1, r2
 8002af2:	60a9      	str	r1, [r5, #8]
    if (ADC_CR1_SCAN_SET(hadc->Init.ScanConvMode) == ADC_SCAN_ENABLE)
 8002af4:	68a1      	ldr	r1, [r4, #8]
 8002af6:	f5b1 7f80 	cmp.w	r1, #256	; 0x100
 8002afa:	d001      	beq.n	8002b00 <HAL_ADC_Init+0x78>
 8002afc:	2901      	cmp	r1, #1
 8002afe:	d102      	bne.n	8002b06 <HAL_ADC_Init+0x7e>
      tmp_sqr1 = ADC_SQR1_L_SHIFT(hadc->Init.NbrOfConversion);
 8002b00:	6923      	ldr	r3, [r4, #16]
 8002b02:	3b01      	subs	r3, #1
 8002b04:	051b      	lsls	r3, r3, #20
    MODIFY_REG(hadc->Instance->SQR1,
 8002b06:	6825      	ldr	r5, [r4, #0]
 8002b08:	6ae9      	ldr	r1, [r5, #44]	; 0x2c
 8002b0a:	f421 0170 	bic.w	r1, r1, #15728640	; 0xf00000
 8002b0e:	430b      	orrs	r3, r1
 8002b10:	62eb      	str	r3, [r5, #44]	; 0x2c
    if (READ_BIT(hadc->Instance->CR2, ~(ADC_CR2_ADON | ADC_CR2_DMA |
 8002b12:	6823      	ldr	r3, [r4, #0]
 8002b14:	6899      	ldr	r1, [r3, #8]
 8002b16:	4b1d      	ldr	r3, [pc, #116]	; (8002b8c <HAL_ADC_Init+0x104>)
 8002b18:	400b      	ands	r3, r1
 8002b1a:	429a      	cmp	r2, r3
 8002b1c:	d022      	beq.n	8002b64 <HAL_ADC_Init+0xdc>
      ADC_STATE_CLR_SET(hadc->State,
 8002b1e:	6aa3      	ldr	r3, [r4, #40]	; 0x28
 8002b20:	f023 0312 	bic.w	r3, r3, #18
 8002b24:	f043 0310 	orr.w	r3, r3, #16
 8002b28:	62a3      	str	r3, [r4, #40]	; 0x28
      SET_BIT(hadc->ErrorCode, HAL_ADC_ERROR_INTERNAL);
 8002b2a:	6ae3      	ldr	r3, [r4, #44]	; 0x2c
 8002b2c:	f043 0301 	orr.w	r3, r3, #1
 8002b30:	62e3      	str	r3, [r4, #44]	; 0x2c
      tmp_hal_status = HAL_ERROR;
 8002b32:	2001      	movs	r0, #1
 8002b34:	e024      	b.n	8002b80 <HAL_ADC_Init+0xf8>
    ADC_CLEAR_ERRORCODE(hadc);
 8002b36:	62c3      	str	r3, [r0, #44]	; 0x2c
    hadc->Lock = HAL_UNLOCKED;
 8002b38:	f880 3024 	strb.w	r3, [r0, #36]	; 0x24
    HAL_ADC_MspInit(hadc);
 8002b3c:	f7ff fb24 	bl	8002188 <HAL_ADC_MspInit>
 8002b40:	e7a9      	b.n	8002a96 <HAL_ADC_Init+0xe>
      if (hadc->Init.ContinuousConvMode == DISABLE)
 8002b42:	b931      	cbnz	r1, 8002b52 <HAL_ADC_Init+0xca>
        SET_BIT(tmp_cr1, ADC_CR1_DISCEN                                            |
 8002b44:	69a1      	ldr	r1, [r4, #24]
 8002b46:	3901      	subs	r1, #1
 8002b48:	ea45 3141 	orr.w	r1, r5, r1, lsl #13
 8002b4c:	f441 6500 	orr.w	r5, r1, #2048	; 0x800
 8002b50:	e7c4      	b.n	8002adc <HAL_ADC_Init+0x54>
        SET_BIT(hadc->State, HAL_ADC_STATE_ERROR_CONFIG);
 8002b52:	6aa1      	ldr	r1, [r4, #40]	; 0x28
 8002b54:	f041 0120 	orr.w	r1, r1, #32
 8002b58:	62a1      	str	r1, [r4, #40]	; 0x28
        SET_BIT(hadc->ErrorCode, HAL_ADC_ERROR_INTERNAL);
 8002b5a:	6ae1      	ldr	r1, [r4, #44]	; 0x2c
 8002b5c:	f041 0101 	orr.w	r1, r1, #1
 8002b60:	62e1      	str	r1, [r4, #44]	; 0x2c
 8002b62:	e7bb      	b.n	8002adc <HAL_ADC_Init+0x54>
      ADC_CLEAR_ERRORCODE(hadc);
 8002b64:	2300      	movs	r3, #0
 8002b66:	62e3      	str	r3, [r4, #44]	; 0x2c
      ADC_STATE_CLR_SET(hadc->State,
 8002b68:	6aa3      	ldr	r3, [r4, #40]	; 0x28
 8002b6a:	f023 0303 	bic.w	r3, r3, #3
 8002b6e:	f043 0301 	orr.w	r3, r3, #1
 8002b72:	62a3      	str	r3, [r4, #40]	; 0x28
 8002b74:	e004      	b.n	8002b80 <HAL_ADC_Init+0xf8>
    SET_BIT(hadc->State, HAL_ADC_STATE_ERROR_INTERNAL);
 8002b76:	6aa3      	ldr	r3, [r4, #40]	; 0x28
 8002b78:	f043 0310 	orr.w	r3, r3, #16
 8002b7c:	62a3      	str	r3, [r4, #40]	; 0x28
    tmp_hal_status = HAL_ERROR;
 8002b7e:	2001      	movs	r0, #1
}
 8002b80:	bd70      	pop	{r4, r5, r6, pc}
    return HAL_ERROR;
 8002b82:	2001      	movs	r0, #1
}
 8002b84:	4770      	bx	lr
 8002b86:	bf00      	nop
 8002b88:	ffe1f7fd 	.word	0xffe1f7fd
 8002b8c:	ff1f0efe 	.word	0xff1f0efe

08002b90 <HAL_ADC_Stop>:
  __HAL_LOCK(hadc);
 8002b90:	f890 3024 	ldrb.w	r3, [r0, #36]	; 0x24
 8002b94:	2b01      	cmp	r3, #1
 8002b96:	d013      	beq.n	8002bc0 <HAL_ADC_Stop+0x30>
{
 8002b98:	b510      	push	{r4, lr}
 8002b9a:	4604      	mov	r4, r0
  __HAL_LOCK(hadc);
 8002b9c:	2301      	movs	r3, #1
 8002b9e:	f880 3024 	strb.w	r3, [r0, #36]	; 0x24
  tmp_hal_status = ADC_ConversionStop_Disable(hadc);
 8002ba2:	f7ff ff3f 	bl	8002a24 <ADC_ConversionStop_Disable>
  if (tmp_hal_status == HAL_OK)
 8002ba6:	b938      	cbnz	r0, 8002bb8 <HAL_ADC_Stop+0x28>
    ADC_STATE_CLR_SET(hadc->State,
 8002ba8:	6aa3      	ldr	r3, [r4, #40]	; 0x28
 8002baa:	f423 5388 	bic.w	r3, r3, #4352	; 0x1100
 8002bae:	f023 0301 	bic.w	r3, r3, #1
 8002bb2:	f043 0301 	orr.w	r3, r3, #1
 8002bb6:	62a3      	str	r3, [r4, #40]	; 0x28
  __HAL_UNLOCK(hadc);
 8002bb8:	2300      	movs	r3, #0
 8002bba:	f884 3024 	strb.w	r3, [r4, #36]	; 0x24
}
 8002bbe:	bd10      	pop	{r4, pc}
  __HAL_LOCK(hadc);
 8002bc0:	2002      	movs	r0, #2
}
 8002bc2:	4770      	bx	lr

08002bc4 <HAL_NVIC_SetPriorityGrouping>:
__STATIC_INLINE void __NVIC_SetPriorityGrouping(uint32_t PriorityGroup)
{
  uint32_t reg_value;
  uint32_t PriorityGroupTmp = (PriorityGroup & (uint32_t)0x07UL);             /* only values 0..7 are used          */

  reg_value  =  SCB->AIRCR;                                                   /* read old register configuration    */
 8002bc4:	4907      	ldr	r1, [pc, #28]	; (8002be4 <HAL_NVIC_SetPriorityGrouping+0x20>)
 8002bc6:	68ca      	ldr	r2, [r1, #12]
  reg_value &= ~((uint32_t)(SCB_AIRCR_VECTKEY_Msk | SCB_AIRCR_PRIGROUP_Msk)); /* clear bits to change               */
  reg_value  =  (reg_value                                   |
                ((uint32_t)0x5FAUL << SCB_AIRCR_VECTKEY_Pos) |
                (PriorityGroupTmp << SCB_AIRCR_PRIGROUP_Pos) );               /* Insert write key and priority group */
 8002bc8:	0203      	lsls	r3, r0, #8
 8002bca:	f403 63e0 	and.w	r3, r3, #1792	; 0x700
  reg_value &= ~((uint32_t)(SCB_AIRCR_VECTKEY_Msk | SCB_AIRCR_PRIGROUP_Msk)); /* clear bits to change               */
 8002bce:	f422 62e0 	bic.w	r2, r2, #1792	; 0x700
 8002bd2:	0412      	lsls	r2, r2, #16
 8002bd4:	0c12      	lsrs	r2, r2, #16
                ((uint32_t)0x5FAUL << SCB_AIRCR_VECTKEY_Pos) |
 8002bd6:	4313      	orrs	r3, r2
  reg_value  =  (reg_value                                   |
 8002bd8:	f043 63bf 	orr.w	r3, r3, #100139008	; 0x5f80000
 8002bdc:	f443 3300 	orr.w	r3, r3, #131072	; 0x20000
  SCB->AIRCR =  reg_value;
 8002be0:	60cb      	str	r3, [r1, #12]
  /* Check the parameters */
  assert_param(IS_NVIC_PRIORITY_GROUP(PriorityGroup));
  
  /* Set the PRIGROUP[10:8] bits according to the PriorityGroup parameter value */
  NVIC_SetPriorityGrouping(PriorityGroup);
}
 8002be2:	4770      	bx	lr
 8002be4:	e000ed00 	.word	0xe000ed00

08002be8 <HAL_NVIC_SetPriority>:
  *         This parameter can be a value between 0 and 15
  *         A lower priority value indicates a higher priority.          
  * @retval None
  */
void HAL_NVIC_SetPriority(IRQn_Type IRQn, uint32_t PreemptPriority, uint32_t SubPriority)
{ 
 8002be8:	b500      	push	{lr}
  \details Reads the priority grouping field from the NVIC Interrupt Controller.
  \return                Priority grouping field (SCB->AIRCR [10:8] PRIGROUP field).
 */
__STATIC_INLINE uint32_t __NVIC_GetPriorityGrouping(void)
{
  return ((uint32_t)((SCB->AIRCR & SCB_AIRCR_PRIGROUP_Msk) >> SCB_AIRCR_PRIGROUP_Pos));
 8002bea:	4b18      	ldr	r3, [pc, #96]	; (8002c4c <HAL_NVIC_SetPriority+0x64>)
 8002bec:	68db      	ldr	r3, [r3, #12]
 8002bee:	f3c3 2302 	ubfx	r3, r3, #8, #3
{
  uint32_t PriorityGroupTmp = (PriorityGroup & (uint32_t)0x07UL);   /* only values 0..7 are used          */
  uint32_t PreemptPriorityBits;
  uint32_t SubPriorityBits;

  PreemptPriorityBits = ((7UL - PriorityGroupTmp) > (uint32_t)(__NVIC_PRIO_BITS)) ? (uint32_t)(__NVIC_PRIO_BITS) : (uint32_t)(7UL - PriorityGroupTmp);
 8002bf2:	f1c3 0c07 	rsb	ip, r3, #7
 8002bf6:	f1bc 0f04 	cmp.w	ip, #4
 8002bfa:	bf28      	it	cs
 8002bfc:	f04f 0c04 	movcs.w	ip, #4
  SubPriorityBits     = ((PriorityGroupTmp + (uint32_t)(__NVIC_PRIO_BITS)) < (uint32_t)7UL) ? (uint32_t)0UL : (uint32_t)((PriorityGroupTmp - 7UL) + (uint32_t)(__NVIC_PRIO_BITS));
 8002c00:	f103 0e04 	add.w	lr, r3, #4
 8002c04:	f1be 0f06 	cmp.w	lr, #6
 8002c08:	bf8c      	ite	hi
 8002c0a:	3b03      	subhi	r3, #3
 8002c0c:	2300      	movls	r3, #0

  return (
           ((PreemptPriority & (uint32_t)((1UL << (PreemptPriorityBits)) - 1UL)) << SubPriorityBits) |
 8002c0e:	f04f 3eff 	mov.w	lr, #4294967295
 8002c12:	fa0e fc0c 	lsl.w	ip, lr, ip
 8002c16:	ea21 010c 	bic.w	r1, r1, ip
 8002c1a:	4099      	lsls	r1, r3
           ((SubPriority     & (uint32_t)((1UL << (SubPriorityBits    )) - 1UL)))
 8002c1c:	fa0e fe03 	lsl.w	lr, lr, r3
 8002c20:	ea22 020e 	bic.w	r2, r2, lr
           ((PreemptPriority & (uint32_t)((1UL << (PreemptPriorityBits)) - 1UL)) << SubPriorityBits) |
 8002c24:	4311      	orrs	r1, r2
  if ((int32_t)(IRQn) >= 0)
 8002c26:	2800      	cmp	r0, #0
 8002c28:	db09      	blt.n	8002c3e <HAL_NVIC_SetPriority+0x56>
    NVIC->IP[((uint32_t)IRQn)]               = (uint8_t)((priority << (8U - __NVIC_PRIO_BITS)) & (uint32_t)0xFFUL);
 8002c2a:	0109      	lsls	r1, r1, #4
 8002c2c:	b2c9      	uxtb	r1, r1
 8002c2e:	f100 4060 	add.w	r0, r0, #3758096384	; 0xe0000000
 8002c32:	f500 4061 	add.w	r0, r0, #57600	; 0xe100
 8002c36:	f880 1300 	strb.w	r1, [r0, #768]	; 0x300
  assert_param(IS_NVIC_PREEMPTION_PRIORITY(PreemptPriority));
  
  prioritygroup = NVIC_GetPriorityGrouping();
  
  NVIC_SetPriority(IRQn, NVIC_EncodePriority(prioritygroup, PreemptPriority, SubPriority));
}
 8002c3a:	f85d fb04 	ldr.w	pc, [sp], #4
    SCB->SHP[(((uint32_t)IRQn) & 0xFUL)-4UL] = (uint8_t)((priority << (8U - __NVIC_PRIO_BITS)) & (uint32_t)0xFFUL);
 8002c3e:	f000 000f 	and.w	r0, r0, #15
 8002c42:	0109      	lsls	r1, r1, #4
 8002c44:	b2c9      	uxtb	r1, r1
 8002c46:	4b02      	ldr	r3, [pc, #8]	; (8002c50 <HAL_NVIC_SetPriority+0x68>)
 8002c48:	5419      	strb	r1, [r3, r0]
 8002c4a:	e7f6      	b.n	8002c3a <HAL_NVIC_SetPriority+0x52>
 8002c4c:	e000ed00 	.word	0xe000ed00
 8002c50:	e000ed14 	.word	0xe000ed14

08002c54 <HAL_NVIC_EnableIRQ>:
  if ((int32_t)(IRQn) >= 0)
 8002c54:	2800      	cmp	r0, #0
 8002c56:	db07      	blt.n	8002c68 <HAL_NVIC_EnableIRQ+0x14>
    NVIC->ISER[(((uint32_t)IRQn) >> 5UL)] = (uint32_t)(1UL << (((uint32_t)IRQn) & 0x1FUL));
 8002c58:	0941      	lsrs	r1, r0, #5
 8002c5a:	f000 001f 	and.w	r0, r0, #31
 8002c5e:	2301      	movs	r3, #1
 8002c60:	4083      	lsls	r3, r0
 8002c62:	4a02      	ldr	r2, [pc, #8]	; (8002c6c <HAL_NVIC_EnableIRQ+0x18>)
 8002c64:	f842 3021 	str.w	r3, [r2, r1, lsl #2]
  /* Check the parameters */
  assert_param(IS_NVIC_DEVICE_IRQ(IRQn));

  /* Enable interrupt */
  NVIC_EnableIRQ(IRQn);
}
 8002c68:	4770      	bx	lr
 8002c6a:	bf00      	nop
 8002c6c:	e000e100 	.word	0xe000e100

08002c70 <HAL_GPIO_Init>:
  * @param  GPIO_Init: pointer to a GPIO_InitTypeDef structure that contains
  *         the configuration information for the specified GPIO peripheral.
  * @retval None
  */
void HAL_GPIO_Init(GPIO_TypeDef  *GPIOx, GPIO_InitTypeDef *GPIO_Init)
{
 8002c70:	e92d 4ff0 	stmdb	sp!, {r4, r5, r6, r7, r8, r9, sl, fp, lr}
 8002c74:	b083      	sub	sp, #12
  assert_param(IS_GPIO_ALL_INSTANCE(GPIOx));
  assert_param(IS_GPIO_PIN(GPIO_Init->Pin));
  assert_param(IS_GPIO_MODE(GPIO_Init->Mode));

  /* Configure the port pins */
  while (((GPIO_Init->Pin) >> position) != 0x00u)
 8002c76:	f8d1 9000 	ldr.w	r9, [r1]
 8002c7a:	f1b9 0f00 	cmp.w	r9, #0
 8002c7e:	f000 811f 	beq.w	8002ec0 <HAL_GPIO_Init+0x250>
 8002c82:	2200      	movs	r2, #0
  uint32_t position = 0x00u;
 8002c84:	4613      	mov	r3, r2
      /*--------------------- EXTI Mode Configuration ------------------------*/
      /* Configure the External Interrupt or event for the current IO */
      if ((GPIO_Init->Mode & EXTI_MODE) == EXTI_MODE)
      {
        /* Enable AFIO Clock */
        __HAL_RCC_AFIO_CLK_ENABLE();
 8002c86:	4e90      	ldr	r6, [pc, #576]	; (8002ec8 <HAL_GPIO_Init+0x258>)
        {
          SET_BIT(EXTI->IMR, iocurrent);
        }
        else
        {
          CLEAR_BIT(EXTI->IMR, iocurrent);
 8002c88:	4c90      	ldr	r4, [pc, #576]	; (8002ecc <HAL_GPIO_Init+0x25c>)
      switch (GPIO_Init->Mode)
 8002c8a:	4d91      	ldr	r5, [pc, #580]	; (8002ed0 <HAL_GPIO_Init+0x260>)
 8002c8c:	f8df e244 	ldr.w	lr, [pc, #580]	; 8002ed4 <HAL_GPIO_Init+0x264>
 8002c90:	4694      	mov	ip, r2
 8002c92:	e0ba      	b.n	8002e0a <HAL_GPIO_Init+0x19a>
 8002c94:	f04f 0c00 	mov.w	ip, #0
 8002c98:	e025      	b.n	8002ce6 <HAL_GPIO_Init+0x76>
 8002c9a:	45a9      	cmp	r9, r5
 8002c9c:	d00f      	beq.n	8002cbe <HAL_GPIO_Init+0x4e>
 8002c9e:	d906      	bls.n	8002cae <HAL_GPIO_Init+0x3e>
 8002ca0:	45f1      	cmp	r9, lr
 8002ca2:	d00c      	beq.n	8002cbe <HAL_GPIO_Init+0x4e>
 8002ca4:	f8df a230 	ldr.w	sl, [pc, #560]	; 8002ed8 <HAL_GPIO_Init+0x268>
 8002ca8:	45d1      	cmp	r9, sl
 8002caa:	d008      	beq.n	8002cbe <HAL_GPIO_Init+0x4e>
 8002cac:	e01b      	b.n	8002ce6 <HAL_GPIO_Init+0x76>
 8002cae:	f8df a22c 	ldr.w	sl, [pc, #556]	; 8002edc <HAL_GPIO_Init+0x26c>
 8002cb2:	45d1      	cmp	r9, sl
 8002cb4:	d003      	beq.n	8002cbe <HAL_GPIO_Init+0x4e>
 8002cb6:	f50a 2a70 	add.w	sl, sl, #983040	; 0xf0000
 8002cba:	45d1      	cmp	r9, sl
 8002cbc:	d10f      	bne.n	8002cde <HAL_GPIO_Init+0x6e>
          if (GPIO_Init->Pull == GPIO_NOPULL)
 8002cbe:	f8d1 c008 	ldr.w	ip, [r1, #8]
 8002cc2:	f1bc 0f00 	cmp.w	ip, #0
 8002cc6:	f000 80ef 	beq.w	8002ea8 <HAL_GPIO_Init+0x238>
          else if (GPIO_Init->Pull == GPIO_PULLUP)
 8002cca:	f1bc 0f01 	cmp.w	ip, #1
            GPIOx->BSRR = ioposition;
 8002cce:	bf0c      	ite	eq
 8002cd0:	f8c0 8010 	streq.w	r8, [r0, #16]
            GPIOx->BRR = ioposition;
 8002cd4:	f8c0 8014 	strne.w	r8, [r0, #20]
            config = GPIO_CR_MODE_INPUT + GPIO_CR_CNF_INPUT_PU_PD;
 8002cd8:	f04f 0c08 	mov.w	ip, #8
 8002cdc:	e003      	b.n	8002ce6 <HAL_GPIO_Init+0x76>
      switch (GPIO_Init->Mode)
 8002cde:	f5aa 1a80 	sub.w	sl, sl, #1048576	; 0x100000
 8002ce2:	45d1      	cmp	r9, sl
 8002ce4:	d0eb      	beq.n	8002cbe <HAL_GPIO_Init+0x4e>
      configregister = (iocurrent < GPIO_PIN_8) ? &GPIOx->CRL     : &GPIOx->CRH;
 8002ce6:	2fff      	cmp	r7, #255	; 0xff
 8002ce8:	bf99      	ittee	ls
 8002cea:	4681      	movls	r9, r0
      registeroffset = (iocurrent < GPIO_PIN_8) ? (position << 2u) : ((position - 8u) << 2u);
 8002cec:	4692      	movls	sl, r2
      configregister = (iocurrent < GPIO_PIN_8) ? &GPIOx->CRL     : &GPIOx->CRH;
 8002cee:	f100 0904 	addhi.w	r9, r0, #4
      registeroffset = (iocurrent < GPIO_PIN_8) ? (position << 2u) : ((position - 8u) << 2u);
 8002cf2:	f1a2 0a20 	subhi.w	sl, r2, #32
      MODIFY_REG((*configregister), ((GPIO_CRL_MODE0 | GPIO_CRL_CNF0) << registeroffset), (config << registeroffset));
 8002cf6:	f8d9 8000 	ldr.w	r8, [r9]
 8002cfa:	f04f 0b0f 	mov.w	fp, #15
 8002cfe:	fa0b fb0a 	lsl.w	fp, fp, sl
 8002d02:	ea28 080b 	bic.w	r8, r8, fp
 8002d06:	fa0c fa0a 	lsl.w	sl, ip, sl
 8002d0a:	ea48 080a 	orr.w	r8, r8, sl
 8002d0e:	f8c9 8000 	str.w	r8, [r9]
      if ((GPIO_Init->Mode & EXTI_MODE) == EXTI_MODE)
 8002d12:	f8d1 8004 	ldr.w	r8, [r1, #4]
 8002d16:	f018 5f80 	tst.w	r8, #268435456	; 0x10000000
 8002d1a:	d06f      	beq.n	8002dfc <HAL_GPIO_Init+0x18c>
        __HAL_RCC_AFIO_CLK_ENABLE();
 8002d1c:	f8d6 8018 	ldr.w	r8, [r6, #24]
 8002d20:	f048 0801 	orr.w	r8, r8, #1
 8002d24:	f8c6 8018 	str.w	r8, [r6, #24]
 8002d28:	f8d6 8018 	ldr.w	r8, [r6, #24]
 8002d2c:	f008 0801 	and.w	r8, r8, #1
 8002d30:	f8cd 8004 	str.w	r8, [sp, #4]
 8002d34:	f8dd 8004 	ldr.w	r8, [sp, #4]
        temp = AFIO->EXTICR[position >> 2u];
 8002d38:	f023 0803 	bic.w	r8, r3, #3
 8002d3c:	f108 4880 	add.w	r8, r8, #1073741824	; 0x40000000
 8002d40:	f508 3880 	add.w	r8, r8, #65536	; 0x10000
 8002d44:	f8d8 a008 	ldr.w	sl, [r8, #8]
        CLEAR_BIT(temp, (0x0Fu) << (4u * (position & 0x03u)));
 8002d48:	f003 0b03 	and.w	fp, r3, #3
 8002d4c:	ea4f 0b8b 	mov.w	fp, fp, lsl #2
 8002d50:	f04f 090f 	mov.w	r9, #15
 8002d54:	fa09 f90b 	lsl.w	r9, r9, fp
 8002d58:	ea2a 0a09 	bic.w	sl, sl, r9
        SET_BIT(temp, (GPIO_GET_INDEX(GPIOx)) << (4u * (position & 0x03u)));
 8002d5c:	f8df 9180 	ldr.w	r9, [pc, #384]	; 8002ee0 <HAL_GPIO_Init+0x270>
 8002d60:	4548      	cmp	r0, r9
 8002d62:	f000 80a4 	beq.w	8002eae <HAL_GPIO_Init+0x23e>
 8002d66:	f509 6980 	add.w	r9, r9, #1024	; 0x400
 8002d6a:	4548      	cmp	r0, r9
 8002d6c:	f000 80a2 	beq.w	8002eb4 <HAL_GPIO_Init+0x244>
 8002d70:	f509 6980 	add.w	r9, r9, #1024	; 0x400
 8002d74:	4548      	cmp	r0, r9
 8002d76:	f000 80a0 	beq.w	8002eba <HAL_GPIO_Init+0x24a>
 8002d7a:	f509 6980 	add.w	r9, r9, #1024	; 0x400
 8002d7e:	4548      	cmp	r0, r9
 8002d80:	bf0c      	ite	eq
 8002d82:	f04f 0903 	moveq.w	r9, #3
 8002d86:	f04f 0904 	movne.w	r9, #4
 8002d8a:	fa09 f90b 	lsl.w	r9, r9, fp
 8002d8e:	ea49 090a 	orr.w	r9, r9, sl
        AFIO->EXTICR[position >> 2u] = temp;
 8002d92:	f8c8 9008 	str.w	r9, [r8, #8]
        if ((GPIO_Init->Mode & RISING_EDGE) == RISING_EDGE)
 8002d96:	f8d1 8004 	ldr.w	r8, [r1, #4]
 8002d9a:	f418 1f80 	tst.w	r8, #1048576	; 0x100000
          SET_BIT(EXTI->RTSR, iocurrent);
 8002d9e:	f8d4 8008 	ldr.w	r8, [r4, #8]
 8002da2:	bf14      	ite	ne
 8002da4:	ea48 0807 	orrne.w	r8, r8, r7
          CLEAR_BIT(EXTI->RTSR, iocurrent);
 8002da8:	ea28 0807 	biceq.w	r8, r8, r7
 8002dac:	f8c4 8008 	str.w	r8, [r4, #8]
        if ((GPIO_Init->Mode & FALLING_EDGE) == FALLING_EDGE)
 8002db0:	f8d1 8004 	ldr.w	r8, [r1, #4]
 8002db4:	f418 1f00 	tst.w	r8, #2097152	; 0x200000
          SET_BIT(EXTI->FTSR, iocurrent);
 8002db8:	f8d4 800c 	ldr.w	r8, [r4, #12]
 8002dbc:	bf14      	ite	ne
 8002dbe:	ea48 0807 	orrne.w	r8, r8, r7
          CLEAR_BIT(EXTI->FTSR, iocurrent);
 8002dc2:	ea28 0807 	biceq.w	r8, r8, r7
 8002dc6:	f8c4 800c 	str.w	r8, [r4, #12]
        if ((GPIO_Init->Mode & GPIO_MODE_EVT) == GPIO_MODE_EVT)
 8002dca:	f8d1 8004 	ldr.w	r8, [r1, #4]
 8002dce:	f418 3f00 	tst.w	r8, #131072	; 0x20000
          SET_BIT(EXTI->EMR, iocurrent);
 8002dd2:	f8d4 8004 	ldr.w	r8, [r4, #4]
 8002dd6:	bf14      	ite	ne
 8002dd8:	ea48 0807 	orrne.w	r8, r8, r7
          CLEAR_BIT(EXTI->EMR, iocurrent);
 8002ddc:	ea28 0807 	biceq.w	r8, r8, r7
 8002de0:	f8c4 8004 	str.w	r8, [r4, #4]
        if ((GPIO_Init->Mode & GPIO_MODE_IT) == GPIO_MODE_IT)
 8002de4:	f8d1 8004 	ldr.w	r8, [r1, #4]
 8002de8:	f418 3f80 	tst.w	r8, #65536	; 0x10000
          SET_BIT(EXTI->IMR, iocurrent);
 8002dec:	f8d4 8000 	ldr.w	r8, [r4]
 8002df0:	bf14      	ite	ne
 8002df2:	ea48 0707 	orrne.w	r7, r8, r7
          CLEAR_BIT(EXTI->IMR, iocurrent);
 8002df6:	ea28 0707 	biceq.w	r7, r8, r7
 8002dfa:	6027      	str	r7, [r4, #0]
        }
      }
    }

	position++;
 8002dfc:	3301      	adds	r3, #1
  while (((GPIO_Init->Pin) >> position) != 0x00u)
 8002dfe:	f8d1 9000 	ldr.w	r9, [r1]
 8002e02:	3204      	adds	r2, #4
 8002e04:	fa39 f703 	lsrs.w	r7, r9, r3
 8002e08:	d05a      	beq.n	8002ec0 <HAL_GPIO_Init+0x250>
    ioposition = (0x01uL << position);
 8002e0a:	f04f 0801 	mov.w	r8, #1
 8002e0e:	fa08 f803 	lsl.w	r8, r8, r3
    iocurrent = (uint32_t)(GPIO_Init->Pin) & ioposition;
 8002e12:	ea08 0709 	and.w	r7, r8, r9
    if (iocurrent == ioposition)
 8002e16:	ea38 0909 	bics.w	r9, r8, r9
 8002e1a:	d1ef      	bne.n	8002dfc <HAL_GPIO_Init+0x18c>
      switch (GPIO_Init->Mode)
 8002e1c:	f8d1 9004 	ldr.w	r9, [r1, #4]
 8002e20:	f1b9 0f12 	cmp.w	r9, #18
 8002e24:	f63f af39 	bhi.w	8002c9a <HAL_GPIO_Init+0x2a>
 8002e28:	f1b9 0f12 	cmp.w	r9, #18
 8002e2c:	f63f af5b 	bhi.w	8002ce6 <HAL_GPIO_Init+0x76>
 8002e30:	f20f 0a04 	addw	sl, pc, #4
 8002e34:	f85a f029 	ldr.w	pc, [sl, r9, lsl #2]
 8002e38:	08002cbf 	.word	0x08002cbf
 8002e3c:	08002e85 	.word	0x08002e85
 8002e40:	08002e95 	.word	0x08002e95
 8002e44:	08002c95 	.word	0x08002c95
 8002e48:	08002ce7 	.word	0x08002ce7
 8002e4c:	08002ce7 	.word	0x08002ce7
 8002e50:	08002ce7 	.word	0x08002ce7
 8002e54:	08002ce7 	.word	0x08002ce7
 8002e58:	08002ce7 	.word	0x08002ce7
 8002e5c:	08002ce7 	.word	0x08002ce7
 8002e60:	08002ce7 	.word	0x08002ce7
 8002e64:	08002ce7 	.word	0x08002ce7
 8002e68:	08002ce7 	.word	0x08002ce7
 8002e6c:	08002ce7 	.word	0x08002ce7
 8002e70:	08002ce7 	.word	0x08002ce7
 8002e74:	08002ce7 	.word	0x08002ce7
 8002e78:	08002ce7 	.word	0x08002ce7
 8002e7c:	08002e8b 	.word	0x08002e8b
 8002e80:	08002e9f 	.word	0x08002e9f
          config = GPIO_Init->Speed + GPIO_CR_CNF_GP_OUTPUT_PP;
 8002e84:	f8d1 c00c 	ldr.w	ip, [r1, #12]
          break;
 8002e88:	e72d      	b.n	8002ce6 <HAL_GPIO_Init+0x76>
          config = GPIO_Init->Speed + GPIO_CR_CNF_GP_OUTPUT_OD;
 8002e8a:	f8d1 c00c 	ldr.w	ip, [r1, #12]
 8002e8e:	f10c 0c04 	add.w	ip, ip, #4
          break;
 8002e92:	e728      	b.n	8002ce6 <HAL_GPIO_Init+0x76>
          config = GPIO_Init->Speed + GPIO_CR_CNF_AF_OUTPUT_PP;
 8002e94:	f8d1 c00c 	ldr.w	ip, [r1, #12]
 8002e98:	f10c 0c08 	add.w	ip, ip, #8
          break;
 8002e9c:	e723      	b.n	8002ce6 <HAL_GPIO_Init+0x76>
          config = GPIO_Init->Speed + GPIO_CR_CNF_AF_OUTPUT_OD;
 8002e9e:	f8d1 c00c 	ldr.w	ip, [r1, #12]
 8002ea2:	f10c 0c0c 	add.w	ip, ip, #12
          break;
 8002ea6:	e71e      	b.n	8002ce6 <HAL_GPIO_Init+0x76>
            config = GPIO_CR_MODE_INPUT + GPIO_CR_CNF_INPUT_FLOATING;
 8002ea8:	f04f 0c04 	mov.w	ip, #4
 8002eac:	e71b      	b.n	8002ce6 <HAL_GPIO_Init+0x76>
        SET_BIT(temp, (GPIO_GET_INDEX(GPIOx)) << (4u * (position & 0x03u)));
 8002eae:	f04f 0900 	mov.w	r9, #0
 8002eb2:	e76a      	b.n	8002d8a <HAL_GPIO_Init+0x11a>
 8002eb4:	f04f 0901 	mov.w	r9, #1
 8002eb8:	e767      	b.n	8002d8a <HAL_GPIO_Init+0x11a>
 8002eba:	f04f 0902 	mov.w	r9, #2
 8002ebe:	e764      	b.n	8002d8a <HAL_GPIO_Init+0x11a>
  }
}
 8002ec0:	b003      	add	sp, #12
 8002ec2:	e8bd 8ff0 	ldmia.w	sp!, {r4, r5, r6, r7, r8, r9, sl, fp, pc}
 8002ec6:	bf00      	nop
 8002ec8:	40021000 	.word	0x40021000
 8002ecc:	40010400 	.word	0x40010400
 8002ed0:	10220000 	.word	0x10220000
 8002ed4:	10310000 	.word	0x10310000
 8002ed8:	10320000 	.word	0x10320000
 8002edc:	10120000 	.word	0x10120000
 8002ee0:	40010800 	.word	0x40010800

08002ee4 <HAL_GPIO_ReadPin>:
  GPIO_PinState bitstatus;

  /* Check the parameters */
  assert_param(IS_GPIO_PIN(GPIO_Pin));

  if ((GPIOx->IDR & GPIO_Pin) != (uint32_t)GPIO_PIN_RESET)
 8002ee4:	6883      	ldr	r3, [r0, #8]
 8002ee6:	4219      	tst	r1, r3
  else
  {
    bitstatus = GPIO_PIN_RESET;
  }
  return bitstatus;
}
 8002ee8:	bf14      	ite	ne
 8002eea:	2001      	movne	r0, #1
 8002eec:	2000      	moveq	r0, #0
 8002eee:	4770      	bx	lr

08002ef0 <HAL_GPIO_WritePin>:
{
  /* Check the parameters */
  assert_param(IS_GPIO_PIN(GPIO_Pin));
  assert_param(IS_GPIO_PIN_ACTION(PinState));

  if (PinState != GPIO_PIN_RESET)
 8002ef0:	b10a      	cbz	r2, 8002ef6 <HAL_GPIO_WritePin+0x6>
  {
    GPIOx->BSRR = GPIO_Pin;
 8002ef2:	6101      	str	r1, [r0, #16]
 8002ef4:	4770      	bx	lr
  }
  else
  {
    GPIOx->BSRR = (uint32_t)GPIO_Pin << 16u;
 8002ef6:	0409      	lsls	r1, r1, #16
 8002ef8:	6101      	str	r1, [r0, #16]
  }
}
 8002efa:	4770      	bx	lr

08002efc <HAL_GPIO_TogglePin>:

  /* Check the parameters */
  assert_param(IS_GPIO_PIN(GPIO_Pin));

  /* get current Output Data Register value */
  odr = GPIOx->ODR;
 8002efc:	68c3      	ldr	r3, [r0, #12]

  /* Set selected pins that were at low level, and reset ones that were high */
  GPIOx->BSRR = ((odr & GPIO_Pin) << GPIO_NUMBER) | (~odr & GPIO_Pin);
 8002efe:	ea01 0203 	and.w	r2, r1, r3
 8002f02:	ea21 0103 	bic.w	r1, r1, r3
 8002f06:	ea41 4102 	orr.w	r1, r1, r2, lsl #16
 8002f0a:	6101      	str	r1, [r0, #16]
}
 8002f0c:	4770      	bx	lr

08002f0e <I2C_IsAcknowledgeFailed>:
  *                the configuration information for the specified I2C.
  * @retval HAL status
  */
static HAL_StatusTypeDef I2C_IsAcknowledgeFailed(I2C_HandleTypeDef *hi2c)
{
  if (__HAL_I2C_GET_FLAG(hi2c, I2C_FLAG_AF) == SET)
 8002f0e:	6803      	ldr	r3, [r0, #0]
 8002f10:	695a      	ldr	r2, [r3, #20]
 8002f12:	f412 6f80 	tst.w	r2, #1024	; 0x400
 8002f16:	d101      	bne.n	8002f1c <I2C_IsAcknowledgeFailed+0xe>
    /* Process Unlocked */
    __HAL_UNLOCK(hi2c);

    return HAL_ERROR;
  }
  return HAL_OK;
 8002f18:	2000      	movs	r0, #0
}
 8002f1a:	4770      	bx	lr
    __HAL_I2C_CLEAR_FLAG(hi2c, I2C_FLAG_AF);
 8002f1c:	f46f 6280 	mvn.w	r2, #1024	; 0x400
 8002f20:	615a      	str	r2, [r3, #20]
    hi2c->PreviousState       = I2C_STATE_NONE;
 8002f22:	2300      	movs	r3, #0
 8002f24:	6303      	str	r3, [r0, #48]	; 0x30
    hi2c->State               = HAL_I2C_STATE_READY;
 8002f26:	2220      	movs	r2, #32
 8002f28:	f880 203d 	strb.w	r2, [r0, #61]	; 0x3d
    hi2c->Mode                = HAL_I2C_MODE_NONE;
 8002f2c:	f880 303e 	strb.w	r3, [r0, #62]	; 0x3e
    hi2c->ErrorCode           |= HAL_I2C_ERROR_AF;
 8002f30:	6c02      	ldr	r2, [r0, #64]	; 0x40
 8002f32:	f042 0204 	orr.w	r2, r2, #4
 8002f36:	6402      	str	r2, [r0, #64]	; 0x40
    __HAL_UNLOCK(hi2c);
 8002f38:	f880 303c 	strb.w	r3, [r0, #60]	; 0x3c
    return HAL_ERROR;
 8002f3c:	2001      	movs	r0, #1
 8002f3e:	4770      	bx	lr

08002f40 <I2C_WaitOnFlagUntilTimeout>:
{
 8002f40:	e92d 41f0 	stmdb	sp!, {r4, r5, r6, r7, r8, lr}
 8002f44:	4605      	mov	r5, r0
 8002f46:	460c      	mov	r4, r1
 8002f48:	4616      	mov	r6, r2
 8002f4a:	461f      	mov	r7, r3
  while (__HAL_I2C_GET_FLAG(hi2c, Flag) == Status)
 8002f4c:	f3c1 4807 	ubfx	r8, r1, #16, #8
 8002f50:	f1b8 0f01 	cmp.w	r8, #1
 8002f54:	682b      	ldr	r3, [r5, #0]
 8002f56:	bf0c      	ite	eq
 8002f58:	695b      	ldreq	r3, [r3, #20]
 8002f5a:	699b      	ldrne	r3, [r3, #24]
 8002f5c:	ea24 0c03 	bic.w	ip, r4, r3
 8002f60:	fa1f fc8c 	uxth.w	ip, ip
 8002f64:	fabc fc8c 	clz	ip, ip
 8002f68:	ea4f 1c5c 	mov.w	ip, ip, lsr #5
 8002f6c:	4566      	cmp	r6, ip
 8002f6e:	d127      	bne.n	8002fc0 <I2C_WaitOnFlagUntilTimeout+0x80>
    if (Timeout != HAL_MAX_DELAY)
 8002f70:	f1b7 3fff 	cmp.w	r7, #4294967295
 8002f74:	d0ec      	beq.n	8002f50 <I2C_WaitOnFlagUntilTimeout+0x10>
      if (((HAL_GetTick() - Tickstart) > Timeout) || (Timeout == 0U))
 8002f76:	f7ff fb27 	bl	80025c8 <HAL_GetTick>
 8002f7a:	9b06      	ldr	r3, [sp, #24]
 8002f7c:	1ac0      	subs	r0, r0, r3
 8002f7e:	42b8      	cmp	r0, r7
 8002f80:	d801      	bhi.n	8002f86 <I2C_WaitOnFlagUntilTimeout+0x46>
 8002f82:	2f00      	cmp	r7, #0
 8002f84:	d1e4      	bne.n	8002f50 <I2C_WaitOnFlagUntilTimeout+0x10>
        if ((__HAL_I2C_GET_FLAG(hi2c, Flag) == Status))
 8002f86:	f1b8 0f01 	cmp.w	r8, #1
 8002f8a:	682b      	ldr	r3, [r5, #0]
 8002f8c:	bf0c      	ite	eq
 8002f8e:	695b      	ldreq	r3, [r3, #20]
 8002f90:	699b      	ldrne	r3, [r3, #24]
 8002f92:	ea24 0303 	bic.w	r3, r4, r3
 8002f96:	b29b      	uxth	r3, r3
 8002f98:	fab3 f383 	clz	r3, r3
 8002f9c:	095b      	lsrs	r3, r3, #5
 8002f9e:	429e      	cmp	r6, r3
 8002fa0:	d1d6      	bne.n	8002f50 <I2C_WaitOnFlagUntilTimeout+0x10>
          hi2c->PreviousState     = I2C_STATE_NONE;
 8002fa2:	2300      	movs	r3, #0
 8002fa4:	632b      	str	r3, [r5, #48]	; 0x30
          hi2c->State             = HAL_I2C_STATE_READY;
 8002fa6:	2220      	movs	r2, #32
 8002fa8:	f885 203d 	strb.w	r2, [r5, #61]	; 0x3d
          hi2c->Mode              = HAL_I2C_MODE_NONE;
 8002fac:	f885 303e 	strb.w	r3, [r5, #62]	; 0x3e
          hi2c->ErrorCode         |= HAL_I2C_ERROR_TIMEOUT;
 8002fb0:	6c2a      	ldr	r2, [r5, #64]	; 0x40
 8002fb2:	f042 0220 	orr.w	r2, r2, #32
 8002fb6:	642a      	str	r2, [r5, #64]	; 0x40
          __HAL_UNLOCK(hi2c);
 8002fb8:	f885 303c 	strb.w	r3, [r5, #60]	; 0x3c
          return HAL_ERROR;
 8002fbc:	2001      	movs	r0, #1
 8002fbe:	e000      	b.n	8002fc2 <I2C_WaitOnFlagUntilTimeout+0x82>
  return HAL_OK;
 8002fc0:	2000      	movs	r0, #0
}
 8002fc2:	e8bd 81f0 	ldmia.w	sp!, {r4, r5, r6, r7, r8, pc}

08002fc6 <I2C_WaitOnMasterAddressFlagUntilTimeout>:
{
 8002fc6:	e92d 43f8 	stmdb	sp!, {r3, r4, r5, r6, r7, r8, r9, lr}
 8002fca:	4605      	mov	r5, r0
 8002fcc:	460e      	mov	r6, r1
 8002fce:	4617      	mov	r7, r2
 8002fd0:	4699      	mov	r9, r3
  while (__HAL_I2C_GET_FLAG(hi2c, Flag) == RESET)
 8002fd2:	f3c1 4807 	ubfx	r8, r1, #16, #8
 8002fd6:	f1b8 0f01 	cmp.w	r8, #1
 8002fda:	682b      	ldr	r3, [r5, #0]
 8002fdc:	bf0c      	ite	eq
 8002fde:	695c      	ldreq	r4, [r3, #20]
 8002fe0:	699c      	ldrne	r4, [r3, #24]
 8002fe2:	ea26 0404 	bic.w	r4, r6, r4
 8002fe6:	b2a4      	uxth	r4, r4
 8002fe8:	3c00      	subs	r4, #0
 8002fea:	bf18      	it	ne
 8002fec:	2401      	movne	r4, #1
 8002fee:	2c00      	cmp	r4, #0
 8002ff0:	d044      	beq.n	800307c <I2C_WaitOnMasterAddressFlagUntilTimeout+0xb6>
    if (__HAL_I2C_GET_FLAG(hi2c, I2C_FLAG_AF) == SET)
 8002ff2:	682b      	ldr	r3, [r5, #0]
 8002ff4:	695a      	ldr	r2, [r3, #20]
 8002ff6:	f412 6f80 	tst.w	r2, #1024	; 0x400
 8002ffa:	d127      	bne.n	800304c <I2C_WaitOnMasterAddressFlagUntilTimeout+0x86>
    if (Timeout != HAL_MAX_DELAY)
 8002ffc:	f1b7 3fff 	cmp.w	r7, #4294967295
 8003000:	d0e9      	beq.n	8002fd6 <I2C_WaitOnMasterAddressFlagUntilTimeout+0x10>
      if (((HAL_GetTick() - Tickstart) > Timeout) || (Timeout == 0U))
 8003002:	f7ff fae1 	bl	80025c8 <HAL_GetTick>
 8003006:	eba0 0009 	sub.w	r0, r0, r9
 800300a:	42b8      	cmp	r0, r7
 800300c:	d801      	bhi.n	8003012 <I2C_WaitOnMasterAddressFlagUntilTimeout+0x4c>
 800300e:	2f00      	cmp	r7, #0
 8003010:	d1e1      	bne.n	8002fd6 <I2C_WaitOnMasterAddressFlagUntilTimeout+0x10>
        if ((__HAL_I2C_GET_FLAG(hi2c, Flag) == RESET))
 8003012:	f1b8 0f01 	cmp.w	r8, #1
 8003016:	682b      	ldr	r3, [r5, #0]
 8003018:	bf0c      	ite	eq
 800301a:	695b      	ldreq	r3, [r3, #20]
 800301c:	699b      	ldrne	r3, [r3, #24]
 800301e:	ea26 0303 	bic.w	r3, r6, r3
 8003022:	b29b      	uxth	r3, r3
 8003024:	3b00      	subs	r3, #0
 8003026:	bf18      	it	ne
 8003028:	2301      	movne	r3, #1
 800302a:	2b00      	cmp	r3, #0
 800302c:	d0d3      	beq.n	8002fd6 <I2C_WaitOnMasterAddressFlagUntilTimeout+0x10>
          hi2c->PreviousState       = I2C_STATE_NONE;
 800302e:	2300      	movs	r3, #0
 8003030:	632b      	str	r3, [r5, #48]	; 0x30
          hi2c->State               = HAL_I2C_STATE_READY;
 8003032:	2220      	movs	r2, #32
 8003034:	f885 203d 	strb.w	r2, [r5, #61]	; 0x3d
          hi2c->Mode                = HAL_I2C_MODE_NONE;
 8003038:	f885 303e 	strb.w	r3, [r5, #62]	; 0x3e
          hi2c->ErrorCode           |= HAL_I2C_ERROR_TIMEOUT;
 800303c:	6c2a      	ldr	r2, [r5, #64]	; 0x40
 800303e:	f042 0220 	orr.w	r2, r2, #32
 8003042:	642a      	str	r2, [r5, #64]	; 0x40
          __HAL_UNLOCK(hi2c);
 8003044:	f885 303c 	strb.w	r3, [r5, #60]	; 0x3c
          return HAL_ERROR;
 8003048:	2001      	movs	r0, #1
 800304a:	e015      	b.n	8003078 <I2C_WaitOnMasterAddressFlagUntilTimeout+0xb2>
      SET_BIT(hi2c->Instance->CR1, I2C_CR1_STOP);
 800304c:	681a      	ldr	r2, [r3, #0]
 800304e:	f442 7200 	orr.w	r2, r2, #512	; 0x200
 8003052:	601a      	str	r2, [r3, #0]
      __HAL_I2C_CLEAR_FLAG(hi2c, I2C_FLAG_AF);
 8003054:	682b      	ldr	r3, [r5, #0]
 8003056:	f46f 6280 	mvn.w	r2, #1024	; 0x400
 800305a:	615a      	str	r2, [r3, #20]
      hi2c->PreviousState       = I2C_STATE_NONE;
 800305c:	2300      	movs	r3, #0
 800305e:	632b      	str	r3, [r5, #48]	; 0x30
      hi2c->State               = HAL_I2C_STATE_READY;
 8003060:	2220      	movs	r2, #32
 8003062:	f885 203d 	strb.w	r2, [r5, #61]	; 0x3d
      hi2c->Mode                = HAL_I2C_MODE_NONE;
 8003066:	f885 303e 	strb.w	r3, [r5, #62]	; 0x3e
      hi2c->ErrorCode           |= HAL_I2C_ERROR_AF;
 800306a:	6c2a      	ldr	r2, [r5, #64]	; 0x40
 800306c:	f042 0204 	orr.w	r2, r2, #4
 8003070:	642a      	str	r2, [r5, #64]	; 0x40
      __HAL_UNLOCK(hi2c);
 8003072:	f885 303c 	strb.w	r3, [r5, #60]	; 0x3c
      return HAL_ERROR;
 8003076:	2001      	movs	r0, #1
}
 8003078:	e8bd 83f8 	ldmia.w	sp!, {r3, r4, r5, r6, r7, r8, r9, pc}
  return HAL_OK;
 800307c:	2000      	movs	r0, #0
 800307e:	e7fb      	b.n	8003078 <I2C_WaitOnMasterAddressFlagUntilTimeout+0xb2>

08003080 <I2C_WaitOnTXEFlagUntilTimeout>:
{
 8003080:	b570      	push	{r4, r5, r6, lr}
 8003082:	4604      	mov	r4, r0
 8003084:	460d      	mov	r5, r1
 8003086:	4616      	mov	r6, r2
  while (__HAL_I2C_GET_FLAG(hi2c, I2C_FLAG_TXE) == RESET)
 8003088:	6823      	ldr	r3, [r4, #0]
 800308a:	695b      	ldr	r3, [r3, #20]
 800308c:	f013 0f80 	tst.w	r3, #128	; 0x80
 8003090:	d121      	bne.n	80030d6 <I2C_WaitOnTXEFlagUntilTimeout+0x56>
    if (I2C_IsAcknowledgeFailed(hi2c) != HAL_OK)
 8003092:	4620      	mov	r0, r4
 8003094:	f7ff ff3b 	bl	8002f0e <I2C_IsAcknowledgeFailed>
 8003098:	b9f8      	cbnz	r0, 80030da <I2C_WaitOnTXEFlagUntilTimeout+0x5a>
    if (Timeout != HAL_MAX_DELAY)
 800309a:	f1b5 3fff 	cmp.w	r5, #4294967295
 800309e:	d0f3      	beq.n	8003088 <I2C_WaitOnTXEFlagUntilTimeout+0x8>
      if (((HAL_GetTick() - Tickstart) > Timeout) || (Timeout == 0U))
 80030a0:	f7ff fa92 	bl	80025c8 <HAL_GetTick>
 80030a4:	1b80      	subs	r0, r0, r6
 80030a6:	42a8      	cmp	r0, r5
 80030a8:	d801      	bhi.n	80030ae <I2C_WaitOnTXEFlagUntilTimeout+0x2e>
 80030aa:	2d00      	cmp	r5, #0
 80030ac:	d1ec      	bne.n	8003088 <I2C_WaitOnTXEFlagUntilTimeout+0x8>
        if ((__HAL_I2C_GET_FLAG(hi2c, I2C_FLAG_TXE) == RESET))
 80030ae:	6823      	ldr	r3, [r4, #0]
 80030b0:	695b      	ldr	r3, [r3, #20]
 80030b2:	f013 0f80 	tst.w	r3, #128	; 0x80
 80030b6:	d1e7      	bne.n	8003088 <I2C_WaitOnTXEFlagUntilTimeout+0x8>
          hi2c->PreviousState       = I2C_STATE_NONE;
 80030b8:	2300      	movs	r3, #0
 80030ba:	6323      	str	r3, [r4, #48]	; 0x30
          hi2c->State               = HAL_I2C_STATE_READY;
 80030bc:	2220      	movs	r2, #32
 80030be:	f884 203d 	strb.w	r2, [r4, #61]	; 0x3d
          hi2c->Mode                = HAL_I2C_MODE_NONE;
 80030c2:	f884 303e 	strb.w	r3, [r4, #62]	; 0x3e
          hi2c->ErrorCode           |= HAL_I2C_ERROR_TIMEOUT;
 80030c6:	6c22      	ldr	r2, [r4, #64]	; 0x40
 80030c8:	f042 0220 	orr.w	r2, r2, #32
 80030cc:	6422      	str	r2, [r4, #64]	; 0x40
          __HAL_UNLOCK(hi2c);
 80030ce:	f884 303c 	strb.w	r3, [r4, #60]	; 0x3c
          return HAL_ERROR;
 80030d2:	2001      	movs	r0, #1
 80030d4:	e000      	b.n	80030d8 <I2C_WaitOnTXEFlagUntilTimeout+0x58>
  return HAL_OK;
 80030d6:	2000      	movs	r0, #0
}
 80030d8:	bd70      	pop	{r4, r5, r6, pc}
      return HAL_ERROR;
 80030da:	2001      	movs	r0, #1
 80030dc:	e7fc      	b.n	80030d8 <I2C_WaitOnTXEFlagUntilTimeout+0x58>

080030de <I2C_WaitOnBTFFlagUntilTimeout>:
{
 80030de:	b570      	push	{r4, r5, r6, lr}
 80030e0:	4604      	mov	r4, r0
 80030e2:	460d      	mov	r5, r1
 80030e4:	4616      	mov	r6, r2
  while (__HAL_I2C_GET_FLAG(hi2c, I2C_FLAG_BTF) == RESET)
 80030e6:	6823      	ldr	r3, [r4, #0]
 80030e8:	695b      	ldr	r3, [r3, #20]
 80030ea:	f013 0f04 	tst.w	r3, #4
 80030ee:	d121      	bne.n	8003134 <I2C_WaitOnBTFFlagUntilTimeout+0x56>
    if (I2C_IsAcknowledgeFailed(hi2c) != HAL_OK)
 80030f0:	4620      	mov	r0, r4
 80030f2:	f7ff ff0c 	bl	8002f0e <I2C_IsAcknowledgeFailed>
 80030f6:	b9f8      	cbnz	r0, 8003138 <I2C_WaitOnBTFFlagUntilTimeout+0x5a>
    if (Timeout != HAL_MAX_DELAY)
 80030f8:	f1b5 3fff 	cmp.w	r5, #4294967295
 80030fc:	d0f3      	beq.n	80030e6 <I2C_WaitOnBTFFlagUntilTimeout+0x8>
      if (((HAL_GetTick() - Tickstart) > Timeout) || (Timeout == 0U))
 80030fe:	f7ff fa63 	bl	80025c8 <HAL_GetTick>
 8003102:	1b80      	subs	r0, r0, r6
 8003104:	42a8      	cmp	r0, r5
 8003106:	d801      	bhi.n	800310c <I2C_WaitOnBTFFlagUntilTimeout+0x2e>
 8003108:	2d00      	cmp	r5, #0
 800310a:	d1ec      	bne.n	80030e6 <I2C_WaitOnBTFFlagUntilTimeout+0x8>
        if ((__HAL_I2C_GET_FLAG(hi2c, I2C_FLAG_BTF) == RESET))
 800310c:	6823      	ldr	r3, [r4, #0]
 800310e:	695b      	ldr	r3, [r3, #20]
 8003110:	f013 0f04 	tst.w	r3, #4
 8003114:	d1e7      	bne.n	80030e6 <I2C_WaitOnBTFFlagUntilTimeout+0x8>
          hi2c->PreviousState       = I2C_STATE_NONE;
 8003116:	2300      	movs	r3, #0
 8003118:	6323      	str	r3, [r4, #48]	; 0x30
          hi2c->State               = HAL_I2C_STATE_READY;
 800311a:	2220      	movs	r2, #32
 800311c:	f884 203d 	strb.w	r2, [r4, #61]	; 0x3d
          hi2c->Mode                = HAL_I2C_MODE_NONE;
 8003120:	f884 303e 	strb.w	r3, [r4, #62]	; 0x3e
          hi2c->ErrorCode           |= HAL_I2C_ERROR_TIMEOUT;
 8003124:	6c22      	ldr	r2, [r4, #64]	; 0x40
 8003126:	f042 0220 	orr.w	r2, r2, #32
 800312a:	6422      	str	r2, [r4, #64]	; 0x40
          __HAL_UNLOCK(hi2c);
 800312c:	f884 303c 	strb.w	r3, [r4, #60]	; 0x3c
          return HAL_ERROR;
 8003130:	2001      	movs	r0, #1
 8003132:	e000      	b.n	8003136 <I2C_WaitOnBTFFlagUntilTimeout+0x58>
  return HAL_OK;
 8003134:	2000      	movs	r0, #0
}
 8003136:	bd70      	pop	{r4, r5, r6, pc}
      return HAL_ERROR;
 8003138:	2001      	movs	r0, #1
 800313a:	e7fc      	b.n	8003136 <I2C_WaitOnBTFFlagUntilTimeout+0x58>

0800313c <HAL_I2C_Init>:
  if (hi2c == NULL)
 800313c:	2800      	cmp	r0, #0
 800313e:	f000 80b1 	beq.w	80032a4 <HAL_I2C_Init+0x168>
{
 8003142:	b538      	push	{r3, r4, r5, lr}
 8003144:	4604      	mov	r4, r0
  if (hi2c->State == HAL_I2C_STATE_RESET)
 8003146:	f890 303d 	ldrb.w	r3, [r0, #61]	; 0x3d
 800314a:	2b00      	cmp	r3, #0
 800314c:	d074      	beq.n	8003238 <HAL_I2C_Init+0xfc>
  hi2c->State = HAL_I2C_STATE_BUSY;
 800314e:	2324      	movs	r3, #36	; 0x24
 8003150:	f884 303d 	strb.w	r3, [r4, #61]	; 0x3d
  __HAL_I2C_DISABLE(hi2c);
 8003154:	6822      	ldr	r2, [r4, #0]
 8003156:	6813      	ldr	r3, [r2, #0]
 8003158:	f023 0301 	bic.w	r3, r3, #1
 800315c:	6013      	str	r3, [r2, #0]
  hi2c->Instance->CR1 |= I2C_CR1_SWRST;
 800315e:	6822      	ldr	r2, [r4, #0]
 8003160:	6813      	ldr	r3, [r2, #0]
 8003162:	f443 4300 	orr.w	r3, r3, #32768	; 0x8000
 8003166:	6013      	str	r3, [r2, #0]
  hi2c->Instance->CR1 &= ~I2C_CR1_SWRST;
 8003168:	6822      	ldr	r2, [r4, #0]
 800316a:	6813      	ldr	r3, [r2, #0]
 800316c:	f423 4300 	bic.w	r3, r3, #32768	; 0x8000
 8003170:	6013      	str	r3, [r2, #0]
  pclk1 = HAL_RCC_GetPCLK1Freq();
 8003172:	f000 fd77 	bl	8003c64 <HAL_RCC_GetPCLK1Freq>
  if (I2C_MIN_PCLK_FREQ(pclk1, hi2c->Init.ClockSpeed) == 1U)
 8003176:	6862      	ldr	r2, [r4, #4]
 8003178:	4b4c      	ldr	r3, [pc, #304]	; (80032ac <HAL_I2C_Init+0x170>)
 800317a:	429a      	cmp	r2, r3
 800317c:	d861      	bhi.n	8003242 <HAL_I2C_Init+0x106>
 800317e:	4b4c      	ldr	r3, [pc, #304]	; (80032b0 <HAL_I2C_Init+0x174>)
 8003180:	4298      	cmp	r0, r3
 8003182:	f240 8091 	bls.w	80032a8 <HAL_I2C_Init+0x16c>
  freqrange = I2C_FREQRANGE(pclk1);
 8003186:	494b      	ldr	r1, [pc, #300]	; (80032b4 <HAL_I2C_Init+0x178>)
 8003188:	fba1 3100 	umull	r3, r1, r1, r0
 800318c:	0c8b      	lsrs	r3, r1, #18
  MODIFY_REG(hi2c->Instance->CR2, I2C_CR2_FREQ, freqrange);
 800318e:	6825      	ldr	r5, [r4, #0]
 8003190:	686a      	ldr	r2, [r5, #4]
 8003192:	f022 023f 	bic.w	r2, r2, #63	; 0x3f
 8003196:	ea42 4291 	orr.w	r2, r2, r1, lsr #18
 800319a:	606a      	str	r2, [r5, #4]
  MODIFY_REG(hi2c->Instance->TRISE, I2C_TRISE_TRISE, I2C_RISE_TIME(freqrange, hi2c->Init.ClockSpeed));
 800319c:	6821      	ldr	r1, [r4, #0]
 800319e:	6a0a      	ldr	r2, [r1, #32]
 80031a0:	f022 023f 	bic.w	r2, r2, #63	; 0x3f
 80031a4:	4d41      	ldr	r5, [pc, #260]	; (80032ac <HAL_I2C_Init+0x170>)
 80031a6:	f8d4 c004 	ldr.w	ip, [r4, #4]
 80031aa:	45ac      	cmp	ip, r5
 80031ac:	d84e      	bhi.n	800324c <HAL_I2C_Init+0x110>
 80031ae:	3301      	adds	r3, #1
 80031b0:	4313      	orrs	r3, r2
 80031b2:	620b      	str	r3, [r1, #32]
  MODIFY_REG(hi2c->Instance->CCR, (I2C_CCR_FS | I2C_CCR_DUTY | I2C_CCR_CCR), I2C_SPEED(pclk1, hi2c->Init.ClockSpeed, hi2c->Init.DutyCycle));
 80031b4:	6821      	ldr	r1, [r4, #0]
 80031b6:	69ca      	ldr	r2, [r1, #28]
 80031b8:	f422 424f 	bic.w	r2, r2, #52992	; 0xcf00
 80031bc:	f022 02ff 	bic.w	r2, r2, #255	; 0xff
 80031c0:	6865      	ldr	r5, [r4, #4]
 80031c2:	4b3a      	ldr	r3, [pc, #232]	; (80032ac <HAL_I2C_Init+0x170>)
 80031c4:	429d      	cmp	r5, r3
 80031c6:	d84b      	bhi.n	8003260 <HAL_I2C_Init+0x124>
 80031c8:	1e43      	subs	r3, r0, #1
 80031ca:	006d      	lsls	r5, r5, #1
 80031cc:	fbb3 f3f5 	udiv	r3, r3, r5
 80031d0:	3301      	adds	r3, #1
 80031d2:	f640 70fc 	movw	r0, #4092	; 0xffc
 80031d6:	4203      	tst	r3, r0
 80031d8:	d05e      	beq.n	8003298 <HAL_I2C_Init+0x15c>
 80031da:	f3c3 030b 	ubfx	r3, r3, #0, #12
 80031de:	431a      	orrs	r2, r3
 80031e0:	61ca      	str	r2, [r1, #28]
  MODIFY_REG(hi2c->Instance->CR1, (I2C_CR1_ENGC | I2C_CR1_NOSTRETCH), (hi2c->Init.GeneralCallMode | hi2c->Init.NoStretchMode));
 80031e2:	6821      	ldr	r1, [r4, #0]
 80031e4:	680a      	ldr	r2, [r1, #0]
 80031e6:	69e3      	ldr	r3, [r4, #28]
 80031e8:	6a20      	ldr	r0, [r4, #32]
 80031ea:	4303      	orrs	r3, r0
 80031ec:	f022 02c0 	bic.w	r2, r2, #192	; 0xc0
 80031f0:	4313      	orrs	r3, r2
 80031f2:	600b      	str	r3, [r1, #0]
  MODIFY_REG(hi2c->Instance->OAR1, (I2C_OAR1_ADDMODE | I2C_OAR1_ADD8_9 | I2C_OAR1_ADD1_7 | I2C_OAR1_ADD0), (hi2c->Init.AddressingMode | hi2c->Init.OwnAddress1));
 80031f4:	6821      	ldr	r1, [r4, #0]
 80031f6:	688a      	ldr	r2, [r1, #8]
 80031f8:	6923      	ldr	r3, [r4, #16]
 80031fa:	68e0      	ldr	r0, [r4, #12]
 80031fc:	4303      	orrs	r3, r0
 80031fe:	f422 4203 	bic.w	r2, r2, #33536	; 0x8300
 8003202:	f022 02ff 	bic.w	r2, r2, #255	; 0xff
 8003206:	4313      	orrs	r3, r2
 8003208:	608b      	str	r3, [r1, #8]
  MODIFY_REG(hi2c->Instance->OAR2, (I2C_OAR2_ENDUAL | I2C_OAR2_ADD2), (hi2c->Init.DualAddressMode | hi2c->Init.OwnAddress2));
 800320a:	6821      	ldr	r1, [r4, #0]
 800320c:	68ca      	ldr	r2, [r1, #12]
 800320e:	6963      	ldr	r3, [r4, #20]
 8003210:	69a0      	ldr	r0, [r4, #24]
 8003212:	4303      	orrs	r3, r0
 8003214:	f022 02ff 	bic.w	r2, r2, #255	; 0xff
 8003218:	4313      	orrs	r3, r2
 800321a:	60cb      	str	r3, [r1, #12]
  __HAL_I2C_ENABLE(hi2c);
 800321c:	6822      	ldr	r2, [r4, #0]
 800321e:	6813      	ldr	r3, [r2, #0]
 8003220:	f043 0301 	orr.w	r3, r3, #1
 8003224:	6013      	str	r3, [r2, #0]
  hi2c->ErrorCode = HAL_I2C_ERROR_NONE;
 8003226:	2000      	movs	r0, #0
 8003228:	6420      	str	r0, [r4, #64]	; 0x40
  hi2c->State = HAL_I2C_STATE_READY;
 800322a:	2320      	movs	r3, #32
 800322c:	f884 303d 	strb.w	r3, [r4, #61]	; 0x3d
  hi2c->PreviousState = I2C_STATE_NONE;
 8003230:	6320      	str	r0, [r4, #48]	; 0x30
  hi2c->Mode = HAL_I2C_MODE_NONE;
 8003232:	f884 003e 	strb.w	r0, [r4, #62]	; 0x3e
}
 8003236:	bd38      	pop	{r3, r4, r5, pc}
    hi2c->Lock = HAL_UNLOCKED;
 8003238:	f880 303c 	strb.w	r3, [r0, #60]	; 0x3c
    HAL_I2C_MspInit(hi2c);
 800323c:	f7fe fff6 	bl	800222c <HAL_I2C_MspInit>
 8003240:	e785      	b.n	800314e <HAL_I2C_Init+0x12>
  if (I2C_MIN_PCLK_FREQ(pclk1, hi2c->Init.ClockSpeed) == 1U)
 8003242:	4b1d      	ldr	r3, [pc, #116]	; (80032b8 <HAL_I2C_Init+0x17c>)
 8003244:	4298      	cmp	r0, r3
 8003246:	d89e      	bhi.n	8003186 <HAL_I2C_Init+0x4a>
    return HAL_ERROR;
 8003248:	2001      	movs	r0, #1
 800324a:	e7f4      	b.n	8003236 <HAL_I2C_Init+0xfa>
  MODIFY_REG(hi2c->Instance->TRISE, I2C_TRISE_TRISE, I2C_RISE_TIME(freqrange, hi2c->Init.ClockSpeed));
 800324c:	f44f 7596 	mov.w	r5, #300	; 0x12c
 8003250:	fb05 f303 	mul.w	r3, r5, r3
 8003254:	4d19      	ldr	r5, [pc, #100]	; (80032bc <HAL_I2C_Init+0x180>)
 8003256:	fba5 5303 	umull	r5, r3, r5, r3
 800325a:	099b      	lsrs	r3, r3, #6
 800325c:	3301      	adds	r3, #1
 800325e:	e7a7      	b.n	80031b0 <HAL_I2C_Init+0x74>
  MODIFY_REG(hi2c->Instance->CCR, (I2C_CCR_FS | I2C_CCR_DUTY | I2C_CCR_CCR), I2C_SPEED(pclk1, hi2c->Init.ClockSpeed, hi2c->Init.DutyCycle));
 8003260:	68a3      	ldr	r3, [r4, #8]
 8003262:	b95b      	cbnz	r3, 800327c <HAL_I2C_Init+0x140>
 8003264:	1e43      	subs	r3, r0, #1
 8003266:	eb05 0545 	add.w	r5, r5, r5, lsl #1
 800326a:	fbb3 f3f5 	udiv	r3, r3, r5
 800326e:	3301      	adds	r3, #1
 8003270:	f3c3 030b 	ubfx	r3, r3, #0, #12
 8003274:	b193      	cbz	r3, 800329c <HAL_I2C_Init+0x160>
 8003276:	f443 4300 	orr.w	r3, r3, #32768	; 0x8000
 800327a:	e7b0      	b.n	80031de <HAL_I2C_Init+0xa2>
 800327c:	1e43      	subs	r3, r0, #1
 800327e:	eb05 0585 	add.w	r5, r5, r5, lsl #2
 8003282:	eb05 0585 	add.w	r5, r5, r5, lsl #2
 8003286:	fbb3 f3f5 	udiv	r3, r3, r5
 800328a:	3301      	adds	r3, #1
 800328c:	f3c3 030b 	ubfx	r3, r3, #0, #12
 8003290:	b133      	cbz	r3, 80032a0 <HAL_I2C_Init+0x164>
 8003292:	f443 4340 	orr.w	r3, r3, #49152	; 0xc000
 8003296:	e7a2      	b.n	80031de <HAL_I2C_Init+0xa2>
 8003298:	2304      	movs	r3, #4
 800329a:	e7a0      	b.n	80031de <HAL_I2C_Init+0xa2>
 800329c:	2301      	movs	r3, #1
 800329e:	e79e      	b.n	80031de <HAL_I2C_Init+0xa2>
 80032a0:	2301      	movs	r3, #1
 80032a2:	e79c      	b.n	80031de <HAL_I2C_Init+0xa2>
    return HAL_ERROR;
 80032a4:	2001      	movs	r0, #1
}
 80032a6:	4770      	bx	lr
    return HAL_ERROR;
 80032a8:	2001      	movs	r0, #1
 80032aa:	e7c4      	b.n	8003236 <HAL_I2C_Init+0xfa>
 80032ac:	000186a0 	.word	0x000186a0
 80032b0:	001e847f 	.word	0x001e847f
 80032b4:	431bde83 	.word	0x431bde83
 80032b8:	003d08ff 	.word	0x003d08ff
 80032bc:	10624dd3 	.word	0x10624dd3

080032c0 <HAL_I2C_Master_Transmit>:
{
 80032c0:	e92d 43f0 	stmdb	sp!, {r4, r5, r6, r7, r8, r9, lr}
 80032c4:	b085      	sub	sp, #20
 80032c6:	4604      	mov	r4, r0
 80032c8:	460f      	mov	r7, r1
 80032ca:	4691      	mov	r9, r2
 80032cc:	4698      	mov	r8, r3
 80032ce:	9e0c      	ldr	r6, [sp, #48]	; 0x30
  uint32_t tickstart = HAL_GetTick();
 80032d0:	f7ff f97a 	bl	80025c8 <HAL_GetTick>
 80032d4:	4605      	mov	r5, r0
  if (hi2c->State == HAL_I2C_STATE_READY)
 80032d6:	f894 003d 	ldrb.w	r0, [r4, #61]	; 0x3d
 80032da:	b2c0      	uxtb	r0, r0
 80032dc:	2820      	cmp	r0, #32
 80032de:	d004      	beq.n	80032ea <HAL_I2C_Master_Transmit+0x2a>
    return HAL_BUSY;
 80032e0:	2702      	movs	r7, #2
}
 80032e2:	4638      	mov	r0, r7
 80032e4:	b005      	add	sp, #20
 80032e6:	e8bd 83f0 	ldmia.w	sp!, {r4, r5, r6, r7, r8, r9, pc}
    if (I2C_WaitOnFlagUntilTimeout(hi2c, I2C_FLAG_BUSY, SET, I2C_TIMEOUT_BUSY_FLAG, tickstart) != HAL_OK)
 80032ea:	9500      	str	r5, [sp, #0]
 80032ec:	2319      	movs	r3, #25
 80032ee:	2201      	movs	r2, #1
 80032f0:	4971      	ldr	r1, [pc, #452]	; (80034b8 <HAL_I2C_Master_Transmit+0x1f8>)
 80032f2:	4620      	mov	r0, r4
 80032f4:	f7ff fe24 	bl	8002f40 <I2C_WaitOnFlagUntilTimeout>
 80032f8:	2800      	cmp	r0, #0
 80032fa:	f040 80d7 	bne.w	80034ac <HAL_I2C_Master_Transmit+0x1ec>
    __HAL_LOCK(hi2c);
 80032fe:	f894 303c 	ldrb.w	r3, [r4, #60]	; 0x3c
 8003302:	2b01      	cmp	r3, #1
 8003304:	f000 80d4 	beq.w	80034b0 <HAL_I2C_Master_Transmit+0x1f0>
 8003308:	2301      	movs	r3, #1
 800330a:	f884 303c 	strb.w	r3, [r4, #60]	; 0x3c
    if ((hi2c->Instance->CR1 & I2C_CR1_PE) != I2C_CR1_PE)
 800330e:	6823      	ldr	r3, [r4, #0]
 8003310:	681a      	ldr	r2, [r3, #0]
 8003312:	f012 0f01 	tst.w	r2, #1
 8003316:	d103      	bne.n	8003320 <HAL_I2C_Master_Transmit+0x60>
      __HAL_I2C_ENABLE(hi2c);
 8003318:	681a      	ldr	r2, [r3, #0]
 800331a:	f042 0201 	orr.w	r2, r2, #1
 800331e:	601a      	str	r2, [r3, #0]
    CLEAR_BIT(hi2c->Instance->CR1, I2C_CR1_POS);
 8003320:	6822      	ldr	r2, [r4, #0]
 8003322:	6813      	ldr	r3, [r2, #0]
 8003324:	f423 6300 	bic.w	r3, r3, #2048	; 0x800
 8003328:	6013      	str	r3, [r2, #0]
    hi2c->State       = HAL_I2C_STATE_BUSY_TX;
 800332a:	2321      	movs	r3, #33	; 0x21
 800332c:	f884 303d 	strb.w	r3, [r4, #61]	; 0x3d
    hi2c->Mode        = HAL_I2C_MODE_MASTER;
 8003330:	2310      	movs	r3, #16
 8003332:	f884 303e 	strb.w	r3, [r4, #62]	; 0x3e
    hi2c->ErrorCode   = HAL_I2C_ERROR_NONE;
 8003336:	2300      	movs	r3, #0
 8003338:	6423      	str	r3, [r4, #64]	; 0x40
    hi2c->pBuffPtr    = pData;
 800333a:	f8c4 9024 	str.w	r9, [r4, #36]	; 0x24
    hi2c->XferCount   = Size;
 800333e:	f8a4 802a 	strh.w	r8, [r4, #42]	; 0x2a
    hi2c->XferSize    = hi2c->XferCount;
 8003342:	8d63      	ldrh	r3, [r4, #42]	; 0x2a
 8003344:	8523      	strh	r3, [r4, #40]	; 0x28
    hi2c->XferOptions = I2C_NO_OPTION_FRAME;
 8003346:	4b5d      	ldr	r3, [pc, #372]	; (80034bc <HAL_I2C_Master_Transmit+0x1fc>)
 8003348:	62e3      	str	r3, [r4, #44]	; 0x2c
  uint32_t CurrentXferOptions = hi2c->XferOptions;
 800334a:	6ae3      	ldr	r3, [r4, #44]	; 0x2c
  if ((CurrentXferOptions == I2C_FIRST_AND_LAST_FRAME) || (CurrentXferOptions == I2C_FIRST_FRAME) || (CurrentXferOptions == I2C_NO_OPTION_FRAME))
 800334c:	2b08      	cmp	r3, #8
 800334e:	d00d      	beq.n	800336c <HAL_I2C_Master_Transmit+0xac>
 8003350:	2b01      	cmp	r3, #1
 8003352:	d00b      	beq.n	800336c <HAL_I2C_Master_Transmit+0xac>
 8003354:	f513 3f80 	cmn.w	r3, #65536	; 0x10000
 8003358:	d008      	beq.n	800336c <HAL_I2C_Master_Transmit+0xac>
  else if (hi2c->PreviousState == I2C_STATE_MASTER_BUSY_RX)
 800335a:	6b23      	ldr	r3, [r4, #48]	; 0x30
 800335c:	2b12      	cmp	r3, #18
 800335e:	d10a      	bne.n	8003376 <HAL_I2C_Master_Transmit+0xb6>
    SET_BIT(hi2c->Instance->CR1, I2C_CR1_START);
 8003360:	6822      	ldr	r2, [r4, #0]
 8003362:	6813      	ldr	r3, [r2, #0]
 8003364:	f443 7380 	orr.w	r3, r3, #256	; 0x100
 8003368:	6013      	str	r3, [r2, #0]
 800336a:	e004      	b.n	8003376 <HAL_I2C_Master_Transmit+0xb6>
    SET_BIT(hi2c->Instance->CR1, I2C_CR1_START);
 800336c:	6822      	ldr	r2, [r4, #0]
 800336e:	6813      	ldr	r3, [r2, #0]
 8003370:	f443 7380 	orr.w	r3, r3, #256	; 0x100
 8003374:	6013      	str	r3, [r2, #0]
  if (I2C_WaitOnFlagUntilTimeout(hi2c, I2C_FLAG_SB, RESET, Timeout, Tickstart) != HAL_OK)
 8003376:	9500      	str	r5, [sp, #0]
 8003378:	4633      	mov	r3, r6
 800337a:	2200      	movs	r2, #0
 800337c:	f04f 1101 	mov.w	r1, #65537	; 0x10001
 8003380:	4620      	mov	r0, r4
 8003382:	f7ff fddd 	bl	8002f40 <I2C_WaitOnFlagUntilTimeout>
 8003386:	b9d0      	cbnz	r0, 80033be <HAL_I2C_Master_Transmit+0xfe>
  if (hi2c->Init.AddressingMode == I2C_ADDRESSINGMODE_7BIT)
 8003388:	6923      	ldr	r3, [r4, #16]
 800338a:	f5b3 4f80 	cmp.w	r3, #16384	; 0x4000
 800338e:	d120      	bne.n	80033d2 <HAL_I2C_Master_Transmit+0x112>
    hi2c->Instance->DR = I2C_7BIT_ADD_WRITE(DevAddress);
 8003390:	6823      	ldr	r3, [r4, #0]
 8003392:	f007 07fe 	and.w	r7, r7, #254	; 0xfe
 8003396:	611f      	str	r7, [r3, #16]
  if (I2C_WaitOnMasterAddressFlagUntilTimeout(hi2c, I2C_FLAG_ADDR, Timeout, Tickstart) != HAL_OK)
 8003398:	462b      	mov	r3, r5
 800339a:	4632      	mov	r2, r6
 800339c:	4948      	ldr	r1, [pc, #288]	; (80034c0 <HAL_I2C_Master_Transmit+0x200>)
 800339e:	4620      	mov	r0, r4
 80033a0:	f7ff fe11 	bl	8002fc6 <I2C_WaitOnMasterAddressFlagUntilTimeout>
    if (I2C_MasterRequestWrite(hi2c, DevAddress, Timeout, tickstart) != HAL_OK)
 80033a4:	4607      	mov	r7, r0
 80033a6:	2800      	cmp	r0, #0
 80033a8:	f040 8084 	bne.w	80034b4 <HAL_I2C_Master_Transmit+0x1f4>
    __HAL_I2C_CLEAR_ADDRFLAG(hi2c);
 80033ac:	2300      	movs	r3, #0
 80033ae:	9303      	str	r3, [sp, #12]
 80033b0:	6823      	ldr	r3, [r4, #0]
 80033b2:	695a      	ldr	r2, [r3, #20]
 80033b4:	9203      	str	r2, [sp, #12]
 80033b6:	699b      	ldr	r3, [r3, #24]
 80033b8:	9303      	str	r3, [sp, #12]
 80033ba:	9b03      	ldr	r3, [sp, #12]
    while (hi2c->XferSize > 0U)
 80033bc:	e02f      	b.n	800341e <HAL_I2C_Master_Transmit+0x15e>
    if (READ_BIT(hi2c->Instance->CR1, I2C_CR1_START) == I2C_CR1_START)
 80033be:	6823      	ldr	r3, [r4, #0]
 80033c0:	681b      	ldr	r3, [r3, #0]
 80033c2:	f413 7f80 	tst.w	r3, #256	; 0x100
 80033c6:	d002      	beq.n	80033ce <HAL_I2C_Master_Transmit+0x10e>
      hi2c->ErrorCode = HAL_I2C_WRONG_START;
 80033c8:	f44f 7300 	mov.w	r3, #512	; 0x200
 80033cc:	6423      	str	r3, [r4, #64]	; 0x40
      return HAL_ERROR;
 80033ce:	2701      	movs	r7, #1
 80033d0:	e787      	b.n	80032e2 <HAL_I2C_Master_Transmit+0x22>
    hi2c->Instance->DR = I2C_10BIT_HEADER_WRITE(DevAddress);
 80033d2:	6822      	ldr	r2, [r4, #0]
 80033d4:	11fb      	asrs	r3, r7, #7
 80033d6:	f003 0306 	and.w	r3, r3, #6
 80033da:	f043 03f0 	orr.w	r3, r3, #240	; 0xf0
 80033de:	6113      	str	r3, [r2, #16]
    if (I2C_WaitOnMasterAddressFlagUntilTimeout(hi2c, I2C_FLAG_ADD10, Timeout, Tickstart) != HAL_OK)
 80033e0:	462b      	mov	r3, r5
 80033e2:	4632      	mov	r2, r6
 80033e4:	4937      	ldr	r1, [pc, #220]	; (80034c4 <HAL_I2C_Master_Transmit+0x204>)
 80033e6:	4620      	mov	r0, r4
 80033e8:	f7ff fded 	bl	8002fc6 <I2C_WaitOnMasterAddressFlagUntilTimeout>
 80033ec:	2800      	cmp	r0, #0
 80033ee:	d1ee      	bne.n	80033ce <HAL_I2C_Master_Transmit+0x10e>
    hi2c->Instance->DR = I2C_10BIT_ADDRESS(DevAddress);
 80033f0:	6823      	ldr	r3, [r4, #0]
 80033f2:	b2ff      	uxtb	r7, r7
 80033f4:	611f      	str	r7, [r3, #16]
 80033f6:	e7cf      	b.n	8003398 <HAL_I2C_Master_Transmit+0xd8>
        if (hi2c->ErrorCode == HAL_I2C_ERROR_AF)
 80033f8:	6c23      	ldr	r3, [r4, #64]	; 0x40
 80033fa:	2b04      	cmp	r3, #4
 80033fc:	d001      	beq.n	8003402 <HAL_I2C_Master_Transmit+0x142>
        return HAL_ERROR;
 80033fe:	2701      	movs	r7, #1
 8003400:	e76f      	b.n	80032e2 <HAL_I2C_Master_Transmit+0x22>
          SET_BIT(hi2c->Instance->CR1, I2C_CR1_STOP);
 8003402:	6822      	ldr	r2, [r4, #0]
 8003404:	6813      	ldr	r3, [r2, #0]
 8003406:	f443 7300 	orr.w	r3, r3, #512	; 0x200
 800340a:	6013      	str	r3, [r2, #0]
        return HAL_ERROR;
 800340c:	2701      	movs	r7, #1
 800340e:	e768      	b.n	80032e2 <HAL_I2C_Master_Transmit+0x22>
      if (I2C_WaitOnBTFFlagUntilTimeout(hi2c, Timeout, tickstart) != HAL_OK)
 8003410:	462a      	mov	r2, r5
 8003412:	4631      	mov	r1, r6
 8003414:	4620      	mov	r0, r4
 8003416:	f7ff fe62 	bl	80030de <I2C_WaitOnBTFFlagUntilTimeout>
 800341a:	2800      	cmp	r0, #0
 800341c:	d12c      	bne.n	8003478 <HAL_I2C_Master_Transmit+0x1b8>
    while (hi2c->XferSize > 0U)
 800341e:	8d23      	ldrh	r3, [r4, #40]	; 0x28
 8003420:	2b00      	cmp	r3, #0
 8003422:	d035      	beq.n	8003490 <HAL_I2C_Master_Transmit+0x1d0>
      if (I2C_WaitOnTXEFlagUntilTimeout(hi2c, Timeout, tickstart) != HAL_OK)
 8003424:	462a      	mov	r2, r5
 8003426:	4631      	mov	r1, r6
 8003428:	4620      	mov	r0, r4
 800342a:	f7ff fe29 	bl	8003080 <I2C_WaitOnTXEFlagUntilTimeout>
 800342e:	2800      	cmp	r0, #0
 8003430:	d1e2      	bne.n	80033f8 <HAL_I2C_Master_Transmit+0x138>
      hi2c->Instance->DR = *hi2c->pBuffPtr;
 8003432:	6823      	ldr	r3, [r4, #0]
 8003434:	6a62      	ldr	r2, [r4, #36]	; 0x24
 8003436:	7812      	ldrb	r2, [r2, #0]
 8003438:	611a      	str	r2, [r3, #16]
      hi2c->pBuffPtr++;
 800343a:	6a62      	ldr	r2, [r4, #36]	; 0x24
 800343c:	1c53      	adds	r3, r2, #1
 800343e:	6263      	str	r3, [r4, #36]	; 0x24
      hi2c->XferCount--;
 8003440:	8d61      	ldrh	r1, [r4, #42]	; 0x2a
 8003442:	3901      	subs	r1, #1
 8003444:	b289      	uxth	r1, r1
 8003446:	8561      	strh	r1, [r4, #42]	; 0x2a
      hi2c->XferSize--;
 8003448:	8d21      	ldrh	r1, [r4, #40]	; 0x28
 800344a:	3901      	subs	r1, #1
 800344c:	b289      	uxth	r1, r1
 800344e:	8521      	strh	r1, [r4, #40]	; 0x28
      if ((__HAL_I2C_GET_FLAG(hi2c, I2C_FLAG_BTF) == SET) && (hi2c->XferSize != 0U))
 8003450:	6823      	ldr	r3, [r4, #0]
 8003452:	6958      	ldr	r0, [r3, #20]
 8003454:	f010 0f04 	tst.w	r0, #4
 8003458:	d0da      	beq.n	8003410 <HAL_I2C_Master_Transmit+0x150>
 800345a:	2900      	cmp	r1, #0
 800345c:	d0d8      	beq.n	8003410 <HAL_I2C_Master_Transmit+0x150>
        hi2c->Instance->DR = *hi2c->pBuffPtr;
 800345e:	7852      	ldrb	r2, [r2, #1]
 8003460:	611a      	str	r2, [r3, #16]
        hi2c->pBuffPtr++;
 8003462:	6a63      	ldr	r3, [r4, #36]	; 0x24
 8003464:	3301      	adds	r3, #1
 8003466:	6263      	str	r3, [r4, #36]	; 0x24
        hi2c->XferCount--;
 8003468:	8d63      	ldrh	r3, [r4, #42]	; 0x2a
 800346a:	3b01      	subs	r3, #1
 800346c:	b29b      	uxth	r3, r3
 800346e:	8563      	strh	r3, [r4, #42]	; 0x2a
        hi2c->XferSize--;
 8003470:	8d23      	ldrh	r3, [r4, #40]	; 0x28
 8003472:	3b01      	subs	r3, #1
 8003474:	8523      	strh	r3, [r4, #40]	; 0x28
 8003476:	e7cb      	b.n	8003410 <HAL_I2C_Master_Transmit+0x150>
        if (hi2c->ErrorCode == HAL_I2C_ERROR_AF)
 8003478:	6c23      	ldr	r3, [r4, #64]	; 0x40
 800347a:	2b04      	cmp	r3, #4
 800347c:	d001      	beq.n	8003482 <HAL_I2C_Master_Transmit+0x1c2>
        return HAL_ERROR;
 800347e:	2701      	movs	r7, #1
 8003480:	e72f      	b.n	80032e2 <HAL_I2C_Master_Transmit+0x22>
          SET_BIT(hi2c->Instance->CR1, I2C_CR1_STOP);
 8003482:	6822      	ldr	r2, [r4, #0]
 8003484:	6813      	ldr	r3, [r2, #0]
 8003486:	f443 7300 	orr.w	r3, r3, #512	; 0x200
 800348a:	6013      	str	r3, [r2, #0]
        return HAL_ERROR;
 800348c:	2701      	movs	r7, #1
 800348e:	e728      	b.n	80032e2 <HAL_I2C_Master_Transmit+0x22>
    SET_BIT(hi2c->Instance->CR1, I2C_CR1_STOP);
 8003490:	6822      	ldr	r2, [r4, #0]
 8003492:	6813      	ldr	r3, [r2, #0]
 8003494:	f443 7300 	orr.w	r3, r3, #512	; 0x200
 8003498:	6013      	str	r3, [r2, #0]
    hi2c->State = HAL_I2C_STATE_READY;
 800349a:	2320      	movs	r3, #32
 800349c:	f884 303d 	strb.w	r3, [r4, #61]	; 0x3d
    hi2c->Mode = HAL_I2C_MODE_NONE;
 80034a0:	2300      	movs	r3, #0
 80034a2:	f884 303e 	strb.w	r3, [r4, #62]	; 0x3e
    __HAL_UNLOCK(hi2c);
 80034a6:	f884 303c 	strb.w	r3, [r4, #60]	; 0x3c
    return HAL_OK;
 80034aa:	e71a      	b.n	80032e2 <HAL_I2C_Master_Transmit+0x22>
      return HAL_BUSY;
 80034ac:	2702      	movs	r7, #2
 80034ae:	e718      	b.n	80032e2 <HAL_I2C_Master_Transmit+0x22>
    __HAL_LOCK(hi2c);
 80034b0:	2702      	movs	r7, #2
 80034b2:	e716      	b.n	80032e2 <HAL_I2C_Master_Transmit+0x22>
      return HAL_ERROR;
 80034b4:	2701      	movs	r7, #1
 80034b6:	e714      	b.n	80032e2 <HAL_I2C_Master_Transmit+0x22>
 80034b8:	00100002 	.word	0x00100002
 80034bc:	ffff0000 	.word	0xffff0000
 80034c0:	00010002 	.word	0x00010002
 80034c4:	00010008 	.word	0x00010008

080034c8 <HAL_I2C_IsDeviceReady>:
{
 80034c8:	e92d 4ff0 	stmdb	sp!, {r4, r5, r6, r7, r8, r9, sl, fp, lr}
 80034cc:	b085      	sub	sp, #20
 80034ce:	4604      	mov	r4, r0
 80034d0:	4689      	mov	r9, r1
 80034d2:	4692      	mov	sl, r2
 80034d4:	461d      	mov	r5, r3
  uint32_t tickstart = HAL_GetTick();
 80034d6:	f7ff f877 	bl	80025c8 <HAL_GetTick>
  if (hi2c->State == HAL_I2C_STATE_READY)
 80034da:	f894 303d 	ldrb.w	r3, [r4, #61]	; 0x3d
 80034de:	b2db      	uxtb	r3, r3
 80034e0:	2b20      	cmp	r3, #32
 80034e2:	d003      	beq.n	80034ec <HAL_I2C_IsDeviceReady+0x24>
    return HAL_BUSY;
 80034e4:	2002      	movs	r0, #2
}
 80034e6:	b005      	add	sp, #20
 80034e8:	e8bd 8ff0 	ldmia.w	sp!, {r4, r5, r6, r7, r8, r9, sl, fp, pc}
 80034ec:	4606      	mov	r6, r0
    if (I2C_WaitOnFlagUntilTimeout(hi2c, I2C_FLAG_BUSY, SET, I2C_TIMEOUT_BUSY_FLAG, tickstart) != HAL_OK)
 80034ee:	9000      	str	r0, [sp, #0]
 80034f0:	2319      	movs	r3, #25
 80034f2:	2201      	movs	r2, #1
 80034f4:	495d      	ldr	r1, [pc, #372]	; (800366c <HAL_I2C_IsDeviceReady+0x1a4>)
 80034f6:	4620      	mov	r0, r4
 80034f8:	f7ff fd22 	bl	8002f40 <I2C_WaitOnFlagUntilTimeout>
 80034fc:	2800      	cmp	r0, #0
 80034fe:	f040 80ab 	bne.w	8003658 <HAL_I2C_IsDeviceReady+0x190>
    __HAL_LOCK(hi2c);
 8003502:	f894 303c 	ldrb.w	r3, [r4, #60]	; 0x3c
 8003506:	2b01      	cmp	r3, #1
 8003508:	f000 80a8 	beq.w	800365c <HAL_I2C_IsDeviceReady+0x194>
 800350c:	2301      	movs	r3, #1
 800350e:	f884 303c 	strb.w	r3, [r4, #60]	; 0x3c
    if ((hi2c->Instance->CR1 & I2C_CR1_PE) != I2C_CR1_PE)
 8003512:	6823      	ldr	r3, [r4, #0]
 8003514:	681a      	ldr	r2, [r3, #0]
 8003516:	f012 0f01 	tst.w	r2, #1
 800351a:	d103      	bne.n	8003524 <HAL_I2C_IsDeviceReady+0x5c>
      __HAL_I2C_ENABLE(hi2c);
 800351c:	681a      	ldr	r2, [r3, #0]
 800351e:	f042 0201 	orr.w	r2, r2, #1
 8003522:	601a      	str	r2, [r3, #0]
    CLEAR_BIT(hi2c->Instance->CR1, I2C_CR1_POS);
 8003524:	6822      	ldr	r2, [r4, #0]
 8003526:	6813      	ldr	r3, [r2, #0]
 8003528:	f423 6300 	bic.w	r3, r3, #2048	; 0x800
 800352c:	6013      	str	r3, [r2, #0]
    hi2c->State = HAL_I2C_STATE_BUSY;
 800352e:	2324      	movs	r3, #36	; 0x24
 8003530:	f884 303d 	strb.w	r3, [r4, #61]	; 0x3d
    hi2c->ErrorCode = HAL_I2C_ERROR_NONE;
 8003534:	2300      	movs	r3, #0
 8003536:	6423      	str	r3, [r4, #64]	; 0x40
    hi2c->XferOptions = I2C_NO_OPTION_FRAME;
 8003538:	4a4d      	ldr	r2, [pc, #308]	; (8003670 <HAL_I2C_IsDeviceReady+0x1a8>)
 800353a:	62e2      	str	r2, [r4, #44]	; 0x2c
  uint32_t I2C_Trials = 0U;
 800353c:	4698      	mov	r8, r3
      hi2c->Instance->DR = I2C_7BIT_ADD_WRITE(DevAddress);
 800353e:	f009 09fe 	and.w	r9, r9, #254	; 0xfe
        if (I2C_WaitOnFlagUntilTimeout(hi2c, I2C_FLAG_BUSY, SET, I2C_TIMEOUT_BUSY_FLAG, tickstart) != HAL_OK)
 8003542:	f8df b128 	ldr.w	fp, [pc, #296]	; 800366c <HAL_I2C_IsDeviceReady+0x1a4>
 8003546:	e03f      	b.n	80035c8 <HAL_I2C_IsDeviceReady+0x100>
        if (READ_BIT(hi2c->Instance->CR1, I2C_CR1_START) == I2C_CR1_START)
 8003548:	6823      	ldr	r3, [r4, #0]
 800354a:	681b      	ldr	r3, [r3, #0]
 800354c:	f413 7f80 	tst.w	r3, #256	; 0x100
 8003550:	f000 8086 	beq.w	8003660 <HAL_I2C_IsDeviceReady+0x198>
          hi2c->ErrorCode = HAL_I2C_WRONG_START;
 8003554:	f44f 7300 	mov.w	r3, #512	; 0x200
 8003558:	6423      	str	r3, [r4, #64]	; 0x40
        return HAL_TIMEOUT;
 800355a:	2003      	movs	r0, #3
 800355c:	e7c3      	b.n	80034e6 <HAL_I2C_IsDeviceReady+0x1e>
          hi2c->State = HAL_I2C_STATE_TIMEOUT;
 800355e:	f884 703d 	strb.w	r7, [r4, #61]	; 0x3d
        tmp1 = __HAL_I2C_GET_FLAG(hi2c, I2C_FLAG_ADDR);
 8003562:	6822      	ldr	r2, [r4, #0]
 8003564:	6953      	ldr	r3, [r2, #20]
 8003566:	f003 0302 	and.w	r3, r3, #2
        tmp2 = __HAL_I2C_GET_FLAG(hi2c, I2C_FLAG_AF);
 800356a:	6951      	ldr	r1, [r2, #20]
 800356c:	f401 6180 	and.w	r1, r1, #1024	; 0x400
      while ((hi2c->State != HAL_I2C_STATE_TIMEOUT) && (tmp1 == RESET) && (tmp2 == RESET))
 8003570:	f894 203d 	ldrb.w	r2, [r4, #61]	; 0x3d
 8003574:	b2d2      	uxtb	r2, r2
 8003576:	2aa0      	cmp	r2, #160	; 0xa0
 8003578:	d009      	beq.n	800358e <HAL_I2C_IsDeviceReady+0xc6>
 800357a:	430b      	orrs	r3, r1
 800357c:	d107      	bne.n	800358e <HAL_I2C_IsDeviceReady+0xc6>
        if (((HAL_GetTick() - tickstart) > Timeout) || (Timeout == 0U))
 800357e:	f7ff f823 	bl	80025c8 <HAL_GetTick>
 8003582:	1b80      	subs	r0, r0, r6
 8003584:	42a8      	cmp	r0, r5
 8003586:	d8ea      	bhi.n	800355e <HAL_I2C_IsDeviceReady+0x96>
 8003588:	2d00      	cmp	r5, #0
 800358a:	d1ea      	bne.n	8003562 <HAL_I2C_IsDeviceReady+0x9a>
 800358c:	e7e7      	b.n	800355e <HAL_I2C_IsDeviceReady+0x96>
      hi2c->State = HAL_I2C_STATE_READY;
 800358e:	2320      	movs	r3, #32
 8003590:	f884 303d 	strb.w	r3, [r4, #61]	; 0x3d
      if (__HAL_I2C_GET_FLAG(hi2c, I2C_FLAG_ADDR) == SET)
 8003594:	6823      	ldr	r3, [r4, #0]
 8003596:	695a      	ldr	r2, [r3, #20]
 8003598:	f012 0f02 	tst.w	r2, #2
 800359c:	d139      	bne.n	8003612 <HAL_I2C_IsDeviceReady+0x14a>
        SET_BIT(hi2c->Instance->CR1, I2C_CR1_STOP);
 800359e:	681a      	ldr	r2, [r3, #0]
 80035a0:	f442 7200 	orr.w	r2, r2, #512	; 0x200
 80035a4:	601a      	str	r2, [r3, #0]
        __HAL_I2C_CLEAR_FLAG(hi2c, I2C_FLAG_AF);
 80035a6:	6823      	ldr	r3, [r4, #0]
 80035a8:	f46f 6280 	mvn.w	r2, #1024	; 0x400
 80035ac:	615a      	str	r2, [r3, #20]
        if (I2C_WaitOnFlagUntilTimeout(hi2c, I2C_FLAG_BUSY, SET, I2C_TIMEOUT_BUSY_FLAG, tickstart) != HAL_OK)
 80035ae:	9600      	str	r6, [sp, #0]
 80035b0:	2319      	movs	r3, #25
 80035b2:	2201      	movs	r2, #1
 80035b4:	4659      	mov	r1, fp
 80035b6:	4620      	mov	r0, r4
 80035b8:	f7ff fcc2 	bl	8002f40 <I2C_WaitOnFlagUntilTimeout>
 80035bc:	2800      	cmp	r0, #0
 80035be:	d153      	bne.n	8003668 <HAL_I2C_IsDeviceReady+0x1a0>
      I2C_Trials++;
 80035c0:	f108 0801 	add.w	r8, r8, #1
    while (I2C_Trials < Trials);
 80035c4:	45d0      	cmp	r8, sl
 80035c6:	d23f      	bcs.n	8003648 <HAL_I2C_IsDeviceReady+0x180>
      SET_BIT(hi2c->Instance->CR1, I2C_CR1_START);
 80035c8:	6822      	ldr	r2, [r4, #0]
 80035ca:	6813      	ldr	r3, [r2, #0]
 80035cc:	f443 7380 	orr.w	r3, r3, #256	; 0x100
 80035d0:	6013      	str	r3, [r2, #0]
      if (I2C_WaitOnFlagUntilTimeout(hi2c, I2C_FLAG_SB, RESET, Timeout, tickstart) != HAL_OK)
 80035d2:	9600      	str	r6, [sp, #0]
 80035d4:	462b      	mov	r3, r5
 80035d6:	2200      	movs	r2, #0
 80035d8:	f04f 1101 	mov.w	r1, #65537	; 0x10001
 80035dc:	4620      	mov	r0, r4
 80035de:	f7ff fcaf 	bl	8002f40 <I2C_WaitOnFlagUntilTimeout>
 80035e2:	2800      	cmp	r0, #0
 80035e4:	d1b0      	bne.n	8003548 <HAL_I2C_IsDeviceReady+0x80>
      hi2c->Instance->DR = I2C_7BIT_ADD_WRITE(DevAddress);
 80035e6:	6823      	ldr	r3, [r4, #0]
 80035e8:	f8c3 9010 	str.w	r9, [r3, #16]
      tickstart = HAL_GetTick();
 80035ec:	f7fe ffec 	bl	80025c8 <HAL_GetTick>
 80035f0:	4606      	mov	r6, r0
      tmp1 = __HAL_I2C_GET_FLAG(hi2c, I2C_FLAG_ADDR);
 80035f2:	6822      	ldr	r2, [r4, #0]
 80035f4:	6953      	ldr	r3, [r2, #20]
 80035f6:	f003 0302 	and.w	r3, r3, #2
      tmp2 = __HAL_I2C_GET_FLAG(hi2c, I2C_FLAG_AF);
 80035fa:	6951      	ldr	r1, [r2, #20]
 80035fc:	f401 6180 	and.w	r1, r1, #1024	; 0x400
      while ((hi2c->State != HAL_I2C_STATE_TIMEOUT) && (tmp1 == RESET) && (tmp2 == RESET))
 8003600:	f894 203d 	ldrb.w	r2, [r4, #61]	; 0x3d
 8003604:	b2d2      	uxtb	r2, r2
 8003606:	2aa0      	cmp	r2, #160	; 0xa0
 8003608:	d0c1      	beq.n	800358e <HAL_I2C_IsDeviceReady+0xc6>
 800360a:	430b      	orrs	r3, r1
 800360c:	d1bf      	bne.n	800358e <HAL_I2C_IsDeviceReady+0xc6>
          hi2c->State = HAL_I2C_STATE_TIMEOUT;
 800360e:	27a0      	movs	r7, #160	; 0xa0
 8003610:	e7b5      	b.n	800357e <HAL_I2C_IsDeviceReady+0xb6>
        SET_BIT(hi2c->Instance->CR1, I2C_CR1_STOP);
 8003612:	681a      	ldr	r2, [r3, #0]
 8003614:	f442 7200 	orr.w	r2, r2, #512	; 0x200
 8003618:	601a      	str	r2, [r3, #0]
        __HAL_I2C_CLEAR_ADDRFLAG(hi2c);
 800361a:	2300      	movs	r3, #0
 800361c:	9303      	str	r3, [sp, #12]
 800361e:	6823      	ldr	r3, [r4, #0]
 8003620:	695a      	ldr	r2, [r3, #20]
 8003622:	9203      	str	r2, [sp, #12]
 8003624:	699b      	ldr	r3, [r3, #24]
 8003626:	9303      	str	r3, [sp, #12]
 8003628:	9b03      	ldr	r3, [sp, #12]
        if (I2C_WaitOnFlagUntilTimeout(hi2c, I2C_FLAG_BUSY, SET, I2C_TIMEOUT_BUSY_FLAG, tickstart) != HAL_OK)
 800362a:	9600      	str	r6, [sp, #0]
 800362c:	2319      	movs	r3, #25
 800362e:	2201      	movs	r2, #1
 8003630:	490e      	ldr	r1, [pc, #56]	; (800366c <HAL_I2C_IsDeviceReady+0x1a4>)
 8003632:	4620      	mov	r0, r4
 8003634:	f7ff fc84 	bl	8002f40 <I2C_WaitOnFlagUntilTimeout>
 8003638:	b9a0      	cbnz	r0, 8003664 <HAL_I2C_IsDeviceReady+0x19c>
        hi2c->State = HAL_I2C_STATE_READY;
 800363a:	2320      	movs	r3, #32
 800363c:	f884 303d 	strb.w	r3, [r4, #61]	; 0x3d
        __HAL_UNLOCK(hi2c);
 8003640:	2300      	movs	r3, #0
 8003642:	f884 303c 	strb.w	r3, [r4, #60]	; 0x3c
        return HAL_OK;
 8003646:	e74e      	b.n	80034e6 <HAL_I2C_IsDeviceReady+0x1e>
    hi2c->State = HAL_I2C_STATE_READY;
 8003648:	2320      	movs	r3, #32
 800364a:	f884 303d 	strb.w	r3, [r4, #61]	; 0x3d
    __HAL_UNLOCK(hi2c);
 800364e:	2300      	movs	r3, #0
 8003650:	f884 303c 	strb.w	r3, [r4, #60]	; 0x3c
    return HAL_ERROR;
 8003654:	2001      	movs	r0, #1
 8003656:	e746      	b.n	80034e6 <HAL_I2C_IsDeviceReady+0x1e>
      return HAL_BUSY;
 8003658:	2002      	movs	r0, #2
 800365a:	e744      	b.n	80034e6 <HAL_I2C_IsDeviceReady+0x1e>
    __HAL_LOCK(hi2c);
 800365c:	2002      	movs	r0, #2
 800365e:	e742      	b.n	80034e6 <HAL_I2C_IsDeviceReady+0x1e>
        return HAL_TIMEOUT;
 8003660:	2003      	movs	r0, #3
 8003662:	e740      	b.n	80034e6 <HAL_I2C_IsDeviceReady+0x1e>
          return HAL_ERROR;
 8003664:	2001      	movs	r0, #1
 8003666:	e73e      	b.n	80034e6 <HAL_I2C_IsDeviceReady+0x1e>
          return HAL_ERROR;
 8003668:	2001      	movs	r0, #1
 800366a:	e73c      	b.n	80034e6 <HAL_I2C_IsDeviceReady+0x1e>
 800366c:	00100002 	.word	0x00100002
 8003670:	ffff0000 	.word	0xffff0000

08003674 <HAL_RCC_OscConfig>:
{
  uint32_t tickstart;
  uint32_t pll_config;

  /* Check Null pointer */
  if (RCC_OscInitStruct == NULL)
 8003674:	2800      	cmp	r0, #0
 8003676:	f000 8201 	beq.w	8003a7c <HAL_RCC_OscConfig+0x408>
{
 800367a:	e92d 41f0 	stmdb	sp!, {r4, r5, r6, r7, r8, lr}
 800367e:	b082      	sub	sp, #8
 8003680:	4604      	mov	r4, r0

  /* Check the parameters */
  assert_param(IS_RCC_OSCILLATORTYPE(RCC_OscInitStruct->OscillatorType));

  /*------------------------------- HSE Configuration ------------------------*/
  if (((RCC_OscInitStruct->OscillatorType) & RCC_OSCILLATORTYPE_HSE) == RCC_OSCILLATORTYPE_HSE)
 8003682:	6803      	ldr	r3, [r0, #0]
 8003684:	f013 0f01 	tst.w	r3, #1
 8003688:	d02c      	beq.n	80036e4 <HAL_RCC_OscConfig+0x70>
  {
    /* Check the parameters */
    assert_param(IS_RCC_HSE(RCC_OscInitStruct->HSEState));

    /* When the HSE is used as system clock or clock source for PLL in these cases it is not allowed to be disabled */
    if ((__HAL_RCC_GET_SYSCLK_SOURCE() == RCC_SYSCLKSOURCE_STATUS_HSE)
 800368a:	4b9f      	ldr	r3, [pc, #636]	; (8003908 <HAL_RCC_OscConfig+0x294>)
 800368c:	685b      	ldr	r3, [r3, #4]
 800368e:	f003 030c 	and.w	r3, r3, #12
 8003692:	2b04      	cmp	r3, #4
 8003694:	d01d      	beq.n	80036d2 <HAL_RCC_OscConfig+0x5e>
        || ((__HAL_RCC_GET_SYSCLK_SOURCE() == RCC_SYSCLKSOURCE_STATUS_PLLCLK) && (__HAL_RCC_GET_PLL_OSCSOURCE() == RCC_PLLSOURCE_HSE)))
 8003696:	4b9c      	ldr	r3, [pc, #624]	; (8003908 <HAL_RCC_OscConfig+0x294>)
 8003698:	685b      	ldr	r3, [r3, #4]
 800369a:	f003 030c 	and.w	r3, r3, #12
 800369e:	2b08      	cmp	r3, #8
 80036a0:	d012      	beq.n	80036c8 <HAL_RCC_OscConfig+0x54>
      }
    }
    else
    {
      /* Set the new HSE configuration ---------------------------------------*/
      __HAL_RCC_HSE_CONFIG(RCC_OscInitStruct->HSEState);
 80036a2:	6863      	ldr	r3, [r4, #4]
 80036a4:	f5b3 3f80 	cmp.w	r3, #65536	; 0x10000
 80036a8:	d041      	beq.n	800372e <HAL_RCC_OscConfig+0xba>
 80036aa:	2b00      	cmp	r3, #0
 80036ac:	d155      	bne.n	800375a <HAL_RCC_OscConfig+0xe6>
 80036ae:	f103 4380 	add.w	r3, r3, #1073741824	; 0x40000000
 80036b2:	f503 3304 	add.w	r3, r3, #135168	; 0x21000
 80036b6:	681a      	ldr	r2, [r3, #0]
 80036b8:	f422 3280 	bic.w	r2, r2, #65536	; 0x10000
 80036bc:	601a      	str	r2, [r3, #0]
 80036be:	681a      	ldr	r2, [r3, #0]
 80036c0:	f422 2280 	bic.w	r2, r2, #262144	; 0x40000
 80036c4:	601a      	str	r2, [r3, #0]
 80036c6:	e037      	b.n	8003738 <HAL_RCC_OscConfig+0xc4>
        || ((__HAL_RCC_GET_SYSCLK_SOURCE() == RCC_SYSCLKSOURCE_STATUS_PLLCLK) && (__HAL_RCC_GET_PLL_OSCSOURCE() == RCC_PLLSOURCE_HSE)))
 80036c8:	4b8f      	ldr	r3, [pc, #572]	; (8003908 <HAL_RCC_OscConfig+0x294>)
 80036ca:	685b      	ldr	r3, [r3, #4]
 80036cc:	f413 3f80 	tst.w	r3, #65536	; 0x10000
 80036d0:	d0e7      	beq.n	80036a2 <HAL_RCC_OscConfig+0x2e>
      if ((__HAL_RCC_GET_FLAG(RCC_FLAG_HSERDY) != RESET) && (RCC_OscInitStruct->HSEState == RCC_HSE_OFF))
 80036d2:	4b8d      	ldr	r3, [pc, #564]	; (8003908 <HAL_RCC_OscConfig+0x294>)
 80036d4:	681b      	ldr	r3, [r3, #0]
 80036d6:	f413 3f00 	tst.w	r3, #131072	; 0x20000
 80036da:	d003      	beq.n	80036e4 <HAL_RCC_OscConfig+0x70>
 80036dc:	6863      	ldr	r3, [r4, #4]
 80036de:	2b00      	cmp	r3, #0
 80036e0:	f000 81ce 	beq.w	8003a80 <HAL_RCC_OscConfig+0x40c>
        }
      }
    }
  }
  /*----------------------------- HSI Configuration --------------------------*/
  if (((RCC_OscInitStruct->OscillatorType) & RCC_OSCILLATORTYPE_HSI) == RCC_OSCILLATORTYPE_HSI)
 80036e4:	6823      	ldr	r3, [r4, #0]
 80036e6:	f013 0f02 	tst.w	r3, #2
 80036ea:	d075      	beq.n	80037d8 <HAL_RCC_OscConfig+0x164>
    /* Check the parameters */
    assert_param(IS_RCC_HSI(RCC_OscInitStruct->HSIState));
    assert_param(IS_RCC_CALIBRATION_VALUE(RCC_OscInitStruct->HSICalibrationValue));

    /* Check if HSI is used as system clock or as PLL source when PLL is selected as system clock */
    if ((__HAL_RCC_GET_SYSCLK_SOURCE() == RCC_SYSCLKSOURCE_STATUS_HSI)
 80036ec:	4b86      	ldr	r3, [pc, #536]	; (8003908 <HAL_RCC_OscConfig+0x294>)
 80036ee:	685b      	ldr	r3, [r3, #4]
 80036f0:	f013 0f0c 	tst.w	r3, #12
 80036f4:	d05f      	beq.n	80037b6 <HAL_RCC_OscConfig+0x142>
        || ((__HAL_RCC_GET_SYSCLK_SOURCE() == RCC_SYSCLKSOURCE_STATUS_PLLCLK) && (__HAL_RCC_GET_PLL_OSCSOURCE() == RCC_PLLSOURCE_HSI_DIV2)))
 80036f6:	4b84      	ldr	r3, [pc, #528]	; (8003908 <HAL_RCC_OscConfig+0x294>)
 80036f8:	685b      	ldr	r3, [r3, #4]
 80036fa:	f003 030c 	and.w	r3, r3, #12
 80036fe:	2b08      	cmp	r3, #8
 8003700:	d054      	beq.n	80037ac <HAL_RCC_OscConfig+0x138>
      }
    }
    else
    {
      /* Check the HSI State */
      if (RCC_OscInitStruct->HSIState != RCC_HSI_OFF)
 8003702:	6923      	ldr	r3, [r4, #16]
 8003704:	2b00      	cmp	r3, #0
 8003706:	f000 808a 	beq.w	800381e <HAL_RCC_OscConfig+0x1aa>
      {
        /* Enable the Internal High Speed oscillator (HSI). */
        __HAL_RCC_HSI_ENABLE();
 800370a:	4b80      	ldr	r3, [pc, #512]	; (800390c <HAL_RCC_OscConfig+0x298>)
 800370c:	2201      	movs	r2, #1
 800370e:	601a      	str	r2, [r3, #0]

        /* Get Start Tick */
        tickstart = HAL_GetTick();
 8003710:	f7fe ff5a 	bl	80025c8 <HAL_GetTick>
 8003714:	4605      	mov	r5, r0

        /* Wait till HSI is ready */
        while (__HAL_RCC_GET_FLAG(RCC_FLAG_HSIRDY) == RESET)
 8003716:	4e7c      	ldr	r6, [pc, #496]	; (8003908 <HAL_RCC_OscConfig+0x294>)
 8003718:	6833      	ldr	r3, [r6, #0]
 800371a:	f013 0f02 	tst.w	r3, #2
 800371e:	d175      	bne.n	800380c <HAL_RCC_OscConfig+0x198>
        {
          if ((HAL_GetTick() - tickstart) > HSI_TIMEOUT_VALUE)
 8003720:	f7fe ff52 	bl	80025c8 <HAL_GetTick>
 8003724:	1b40      	subs	r0, r0, r5
 8003726:	2802      	cmp	r0, #2
 8003728:	d9f6      	bls.n	8003718 <HAL_RCC_OscConfig+0xa4>
          {
            return HAL_TIMEOUT;
 800372a:	2003      	movs	r0, #3
 800372c:	e1ad      	b.n	8003a8a <HAL_RCC_OscConfig+0x416>
      __HAL_RCC_HSE_CONFIG(RCC_OscInitStruct->HSEState);
 800372e:	4a76      	ldr	r2, [pc, #472]	; (8003908 <HAL_RCC_OscConfig+0x294>)
 8003730:	6813      	ldr	r3, [r2, #0]
 8003732:	f443 3380 	orr.w	r3, r3, #65536	; 0x10000
 8003736:	6013      	str	r3, [r2, #0]
      if (RCC_OscInitStruct->HSEState != RCC_HSE_OFF)
 8003738:	6863      	ldr	r3, [r4, #4]
 800373a:	b343      	cbz	r3, 800378e <HAL_RCC_OscConfig+0x11a>
        tickstart = HAL_GetTick();
 800373c:	f7fe ff44 	bl	80025c8 <HAL_GetTick>
 8003740:	4605      	mov	r5, r0
        while (__HAL_RCC_GET_FLAG(RCC_FLAG_HSERDY) == RESET)
 8003742:	4e71      	ldr	r6, [pc, #452]	; (8003908 <HAL_RCC_OscConfig+0x294>)
 8003744:	6833      	ldr	r3, [r6, #0]
 8003746:	f413 3f00 	tst.w	r3, #131072	; 0x20000
 800374a:	d1cb      	bne.n	80036e4 <HAL_RCC_OscConfig+0x70>
          if ((HAL_GetTick() - tickstart) > HSE_TIMEOUT_VALUE)
 800374c:	f7fe ff3c 	bl	80025c8 <HAL_GetTick>
 8003750:	1b40      	subs	r0, r0, r5
 8003752:	2864      	cmp	r0, #100	; 0x64
 8003754:	d9f6      	bls.n	8003744 <HAL_RCC_OscConfig+0xd0>
            return HAL_TIMEOUT;
 8003756:	2003      	movs	r0, #3
 8003758:	e197      	b.n	8003a8a <HAL_RCC_OscConfig+0x416>
      __HAL_RCC_HSE_CONFIG(RCC_OscInitStruct->HSEState);
 800375a:	f5b3 2fa0 	cmp.w	r3, #327680	; 0x50000
 800375e:	d009      	beq.n	8003774 <HAL_RCC_OscConfig+0x100>
 8003760:	4b69      	ldr	r3, [pc, #420]	; (8003908 <HAL_RCC_OscConfig+0x294>)
 8003762:	681a      	ldr	r2, [r3, #0]
 8003764:	f422 3280 	bic.w	r2, r2, #65536	; 0x10000
 8003768:	601a      	str	r2, [r3, #0]
 800376a:	681a      	ldr	r2, [r3, #0]
 800376c:	f422 2280 	bic.w	r2, r2, #262144	; 0x40000
 8003770:	601a      	str	r2, [r3, #0]
 8003772:	e7e1      	b.n	8003738 <HAL_RCC_OscConfig+0xc4>
 8003774:	f103 4380 	add.w	r3, r3, #1073741824	; 0x40000000
 8003778:	f5a3 333c 	sub.w	r3, r3, #192512	; 0x2f000
 800377c:	681a      	ldr	r2, [r3, #0]
 800377e:	f442 2280 	orr.w	r2, r2, #262144	; 0x40000
 8003782:	601a      	str	r2, [r3, #0]
 8003784:	681a      	ldr	r2, [r3, #0]
 8003786:	f442 3280 	orr.w	r2, r2, #65536	; 0x10000
 800378a:	601a      	str	r2, [r3, #0]
 800378c:	e7d4      	b.n	8003738 <HAL_RCC_OscConfig+0xc4>
        tickstart = HAL_GetTick();
 800378e:	f7fe ff1b 	bl	80025c8 <HAL_GetTick>
 8003792:	4605      	mov	r5, r0
        while (__HAL_RCC_GET_FLAG(RCC_FLAG_HSERDY) != RESET)
 8003794:	4e5c      	ldr	r6, [pc, #368]	; (8003908 <HAL_RCC_OscConfig+0x294>)
 8003796:	6833      	ldr	r3, [r6, #0]
 8003798:	f413 3f00 	tst.w	r3, #131072	; 0x20000
 800379c:	d0a2      	beq.n	80036e4 <HAL_RCC_OscConfig+0x70>
          if ((HAL_GetTick() - tickstart) > HSE_TIMEOUT_VALUE)
 800379e:	f7fe ff13 	bl	80025c8 <HAL_GetTick>
 80037a2:	1b40      	subs	r0, r0, r5
 80037a4:	2864      	cmp	r0, #100	; 0x64
 80037a6:	d9f6      	bls.n	8003796 <HAL_RCC_OscConfig+0x122>
            return HAL_TIMEOUT;
 80037a8:	2003      	movs	r0, #3
 80037aa:	e16e      	b.n	8003a8a <HAL_RCC_OscConfig+0x416>
        || ((__HAL_RCC_GET_SYSCLK_SOURCE() == RCC_SYSCLKSOURCE_STATUS_PLLCLK) && (__HAL_RCC_GET_PLL_OSCSOURCE() == RCC_PLLSOURCE_HSI_DIV2)))
 80037ac:	4b56      	ldr	r3, [pc, #344]	; (8003908 <HAL_RCC_OscConfig+0x294>)
 80037ae:	685b      	ldr	r3, [r3, #4]
 80037b0:	f413 3f80 	tst.w	r3, #65536	; 0x10000
 80037b4:	d1a5      	bne.n	8003702 <HAL_RCC_OscConfig+0x8e>
      if ((__HAL_RCC_GET_FLAG(RCC_FLAG_HSIRDY) != RESET) && (RCC_OscInitStruct->HSIState != RCC_HSI_ON))
 80037b6:	4b54      	ldr	r3, [pc, #336]	; (8003908 <HAL_RCC_OscConfig+0x294>)
 80037b8:	681b      	ldr	r3, [r3, #0]
 80037ba:	f013 0f02 	tst.w	r3, #2
 80037be:	d003      	beq.n	80037c8 <HAL_RCC_OscConfig+0x154>
 80037c0:	6923      	ldr	r3, [r4, #16]
 80037c2:	2b01      	cmp	r3, #1
 80037c4:	f040 815e 	bne.w	8003a84 <HAL_RCC_OscConfig+0x410>
        __HAL_RCC_HSI_CALIBRATIONVALUE_ADJUST(RCC_OscInitStruct->HSICalibrationValue);
 80037c8:	4a4f      	ldr	r2, [pc, #316]	; (8003908 <HAL_RCC_OscConfig+0x294>)
 80037ca:	6813      	ldr	r3, [r2, #0]
 80037cc:	6961      	ldr	r1, [r4, #20]
 80037ce:	f023 03f8 	bic.w	r3, r3, #248	; 0xf8
 80037d2:	ea43 03c1 	orr.w	r3, r3, r1, lsl #3
 80037d6:	6013      	str	r3, [r2, #0]
        }
      }
    }
  }
  /*------------------------------ LSI Configuration -------------------------*/
  if (((RCC_OscInitStruct->OscillatorType) & RCC_OSCILLATORTYPE_LSI) == RCC_OSCILLATORTYPE_LSI)
 80037d8:	6823      	ldr	r3, [r4, #0]
 80037da:	f013 0f08 	tst.w	r3, #8
 80037de:	d03d      	beq.n	800385c <HAL_RCC_OscConfig+0x1e8>
  {
    /* Check the parameters */
    assert_param(IS_RCC_LSI(RCC_OscInitStruct->LSIState));

    /* Check the LSI State */
    if (RCC_OscInitStruct->LSIState != RCC_LSI_OFF)
 80037e0:	69a3      	ldr	r3, [r4, #24]
 80037e2:	2b00      	cmp	r3, #0
 80037e4:	d066      	beq.n	80038b4 <HAL_RCC_OscConfig+0x240>
    {
      /* Enable the Internal Low Speed oscillator (LSI). */
      __HAL_RCC_LSI_ENABLE();
 80037e6:	4b49      	ldr	r3, [pc, #292]	; (800390c <HAL_RCC_OscConfig+0x298>)
 80037e8:	2201      	movs	r2, #1
 80037ea:	f8c3 2480 	str.w	r2, [r3, #1152]	; 0x480

      /* Get Start Tick */
      tickstart = HAL_GetTick();
 80037ee:	f7fe feeb 	bl	80025c8 <HAL_GetTick>
 80037f2:	4605      	mov	r5, r0

      /* Wait till LSI is ready */
      while (__HAL_RCC_GET_FLAG(RCC_FLAG_LSIRDY) == RESET)
 80037f4:	4e44      	ldr	r6, [pc, #272]	; (8003908 <HAL_RCC_OscConfig+0x294>)
 80037f6:	6a73      	ldr	r3, [r6, #36]	; 0x24
 80037f8:	f013 0f02 	tst.w	r3, #2
 80037fc:	d121      	bne.n	8003842 <HAL_RCC_OscConfig+0x1ce>
      {
        if ((HAL_GetTick() - tickstart) > LSI_TIMEOUT_VALUE)
 80037fe:	f7fe fee3 	bl	80025c8 <HAL_GetTick>
 8003802:	1b40      	subs	r0, r0, r5
 8003804:	2802      	cmp	r0, #2
 8003806:	d9f6      	bls.n	80037f6 <HAL_RCC_OscConfig+0x182>
        {
          return HAL_TIMEOUT;
 8003808:	2003      	movs	r0, #3
 800380a:	e13e      	b.n	8003a8a <HAL_RCC_OscConfig+0x416>
        __HAL_RCC_HSI_CALIBRATIONVALUE_ADJUST(RCC_OscInitStruct->HSICalibrationValue);
 800380c:	4a3e      	ldr	r2, [pc, #248]	; (8003908 <HAL_RCC_OscConfig+0x294>)
 800380e:	6813      	ldr	r3, [r2, #0]
 8003810:	6961      	ldr	r1, [r4, #20]
 8003812:	f023 03f8 	bic.w	r3, r3, #248	; 0xf8
 8003816:	ea43 03c1 	orr.w	r3, r3, r1, lsl #3
 800381a:	6013      	str	r3, [r2, #0]
 800381c:	e7dc      	b.n	80037d8 <HAL_RCC_OscConfig+0x164>
        __HAL_RCC_HSI_DISABLE();
 800381e:	4b3b      	ldr	r3, [pc, #236]	; (800390c <HAL_RCC_OscConfig+0x298>)
 8003820:	2200      	movs	r2, #0
 8003822:	601a      	str	r2, [r3, #0]
        tickstart = HAL_GetTick();
 8003824:	f7fe fed0 	bl	80025c8 <HAL_GetTick>
 8003828:	4605      	mov	r5, r0
        while (__HAL_RCC_GET_FLAG(RCC_FLAG_HSIRDY) != RESET)
 800382a:	4e37      	ldr	r6, [pc, #220]	; (8003908 <HAL_RCC_OscConfig+0x294>)
 800382c:	6833      	ldr	r3, [r6, #0]
 800382e:	f013 0f02 	tst.w	r3, #2
 8003832:	d0d1      	beq.n	80037d8 <HAL_RCC_OscConfig+0x164>
          if ((HAL_GetTick() - tickstart) > HSI_TIMEOUT_VALUE)
 8003834:	f7fe fec8 	bl	80025c8 <HAL_GetTick>
 8003838:	1b40      	subs	r0, r0, r5
 800383a:	2802      	cmp	r0, #2
 800383c:	d9f6      	bls.n	800382c <HAL_RCC_OscConfig+0x1b8>
            return HAL_TIMEOUT;
 800383e:	2003      	movs	r0, #3
 8003840:	e123      	b.n	8003a8a <HAL_RCC_OscConfig+0x416>
  * @param  mdelay: specifies the delay time length, in milliseconds.
  * @retval None
  */
static void RCC_Delay(uint32_t mdelay)
{
  __IO uint32_t Delay = mdelay * (SystemCoreClock / 8U / 1000U);
 8003842:	4b33      	ldr	r3, [pc, #204]	; (8003910 <HAL_RCC_OscConfig+0x29c>)
 8003844:	681b      	ldr	r3, [r3, #0]
 8003846:	4a33      	ldr	r2, [pc, #204]	; (8003914 <HAL_RCC_OscConfig+0x2a0>)
 8003848:	fba2 2303 	umull	r2, r3, r2, r3
 800384c:	0a5b      	lsrs	r3, r3, #9
 800384e:	9301      	str	r3, [sp, #4]
  do
  {
    __NOP();
 8003850:	bf00      	nop
  }
  while (Delay --);
 8003852:	9b01      	ldr	r3, [sp, #4]
 8003854:	1e5a      	subs	r2, r3, #1
 8003856:	9201      	str	r2, [sp, #4]
 8003858:	2b00      	cmp	r3, #0
 800385a:	d1f9      	bne.n	8003850 <HAL_RCC_OscConfig+0x1dc>
  if (((RCC_OscInitStruct->OscillatorType) & RCC_OSCILLATORTYPE_LSE) == RCC_OSCILLATORTYPE_LSE)
 800385c:	6823      	ldr	r3, [r4, #0]
 800385e:	f013 0f04 	tst.w	r3, #4
 8003862:	f000 809b 	beq.w	800399c <HAL_RCC_OscConfig+0x328>
    if (__HAL_RCC_PWR_IS_CLK_DISABLED())
 8003866:	4b28      	ldr	r3, [pc, #160]	; (8003908 <HAL_RCC_OscConfig+0x294>)
 8003868:	69db      	ldr	r3, [r3, #28]
 800386a:	f013 5f80 	tst.w	r3, #268435456	; 0x10000000
 800386e:	d134      	bne.n	80038da <HAL_RCC_OscConfig+0x266>
      __HAL_RCC_PWR_CLK_ENABLE();
 8003870:	4b25      	ldr	r3, [pc, #148]	; (8003908 <HAL_RCC_OscConfig+0x294>)
 8003872:	69da      	ldr	r2, [r3, #28]
 8003874:	f042 5280 	orr.w	r2, r2, #268435456	; 0x10000000
 8003878:	61da      	str	r2, [r3, #28]
 800387a:	69db      	ldr	r3, [r3, #28]
 800387c:	f003 5380 	and.w	r3, r3, #268435456	; 0x10000000
 8003880:	9300      	str	r3, [sp, #0]
 8003882:	9b00      	ldr	r3, [sp, #0]
      pwrclkchanged = SET;
 8003884:	2501      	movs	r5, #1
    if (HAL_IS_BIT_CLR(PWR->CR, PWR_CR_DBP))
 8003886:	4b24      	ldr	r3, [pc, #144]	; (8003918 <HAL_RCC_OscConfig+0x2a4>)
 8003888:	681b      	ldr	r3, [r3, #0]
 800388a:	f413 7f80 	tst.w	r3, #256	; 0x100
 800388e:	d026      	beq.n	80038de <HAL_RCC_OscConfig+0x26a>
    __HAL_RCC_LSE_CONFIG(RCC_OscInitStruct->LSEState);
 8003890:	68e3      	ldr	r3, [r4, #12]
 8003892:	2b01      	cmp	r3, #1
 8003894:	d042      	beq.n	800391c <HAL_RCC_OscConfig+0x2a8>
 8003896:	2b00      	cmp	r3, #0
 8003898:	d158      	bne.n	800394c <HAL_RCC_OscConfig+0x2d8>
 800389a:	f103 4380 	add.w	r3, r3, #1073741824	; 0x40000000
 800389e:	f503 3304 	add.w	r3, r3, #135168	; 0x21000
 80038a2:	6a1a      	ldr	r2, [r3, #32]
 80038a4:	f022 0201 	bic.w	r2, r2, #1
 80038a8:	621a      	str	r2, [r3, #32]
 80038aa:	6a1a      	ldr	r2, [r3, #32]
 80038ac:	f022 0204 	bic.w	r2, r2, #4
 80038b0:	621a      	str	r2, [r3, #32]
 80038b2:	e038      	b.n	8003926 <HAL_RCC_OscConfig+0x2b2>
      __HAL_RCC_LSI_DISABLE();
 80038b4:	4b15      	ldr	r3, [pc, #84]	; (800390c <HAL_RCC_OscConfig+0x298>)
 80038b6:	2200      	movs	r2, #0
 80038b8:	f8c3 2480 	str.w	r2, [r3, #1152]	; 0x480
      tickstart = HAL_GetTick();
 80038bc:	f7fe fe84 	bl	80025c8 <HAL_GetTick>
 80038c0:	4605      	mov	r5, r0
      while (__HAL_RCC_GET_FLAG(RCC_FLAG_LSIRDY) != RESET)
 80038c2:	4e11      	ldr	r6, [pc, #68]	; (8003908 <HAL_RCC_OscConfig+0x294>)
 80038c4:	6a73      	ldr	r3, [r6, #36]	; 0x24
 80038c6:	f013 0f02 	tst.w	r3, #2
 80038ca:	d0c7      	beq.n	800385c <HAL_RCC_OscConfig+0x1e8>
        if ((HAL_GetTick() - tickstart) > LSI_TIMEOUT_VALUE)
 80038cc:	f7fe fe7c 	bl	80025c8 <HAL_GetTick>
 80038d0:	1b40      	subs	r0, r0, r5
 80038d2:	2802      	cmp	r0, #2
 80038d4:	d9f6      	bls.n	80038c4 <HAL_RCC_OscConfig+0x250>
          return HAL_TIMEOUT;
 80038d6:	2003      	movs	r0, #3
 80038d8:	e0d7      	b.n	8003a8a <HAL_RCC_OscConfig+0x416>
    FlagStatus       pwrclkchanged = RESET;
 80038da:	2500      	movs	r5, #0
 80038dc:	e7d3      	b.n	8003886 <HAL_RCC_OscConfig+0x212>
      SET_BIT(PWR->CR, PWR_CR_DBP);
 80038de:	4a0e      	ldr	r2, [pc, #56]	; (8003918 <HAL_RCC_OscConfig+0x2a4>)
 80038e0:	6813      	ldr	r3, [r2, #0]
 80038e2:	f443 7380 	orr.w	r3, r3, #256	; 0x100
 80038e6:	6013      	str	r3, [r2, #0]
      tickstart = HAL_GetTick();
 80038e8:	f7fe fe6e 	bl	80025c8 <HAL_GetTick>
 80038ec:	4606      	mov	r6, r0
      while (HAL_IS_BIT_CLR(PWR->CR, PWR_CR_DBP))
 80038ee:	4f0a      	ldr	r7, [pc, #40]	; (8003918 <HAL_RCC_OscConfig+0x2a4>)
 80038f0:	683b      	ldr	r3, [r7, #0]
 80038f2:	f413 7f80 	tst.w	r3, #256	; 0x100
 80038f6:	d1cb      	bne.n	8003890 <HAL_RCC_OscConfig+0x21c>
        if ((HAL_GetTick() - tickstart) > RCC_DBP_TIMEOUT_VALUE)
 80038f8:	f7fe fe66 	bl	80025c8 <HAL_GetTick>
 80038fc:	1b80      	subs	r0, r0, r6
 80038fe:	2864      	cmp	r0, #100	; 0x64
 8003900:	d9f6      	bls.n	80038f0 <HAL_RCC_OscConfig+0x27c>
          return HAL_TIMEOUT;
 8003902:	2003      	movs	r0, #3
 8003904:	e0c1      	b.n	8003a8a <HAL_RCC_OscConfig+0x416>
 8003906:	bf00      	nop
 8003908:	40021000 	.word	0x40021000
 800390c:	42420000 	.word	0x42420000
 8003910:	20000628 	.word	0x20000628
 8003914:	10624dd3 	.word	0x10624dd3
 8003918:	40007000 	.word	0x40007000
    __HAL_RCC_LSE_CONFIG(RCC_OscInitStruct->LSEState);
 800391c:	4a5e      	ldr	r2, [pc, #376]	; (8003a98 <HAL_RCC_OscConfig+0x424>)
 800391e:	6a13      	ldr	r3, [r2, #32]
 8003920:	f043 0301 	orr.w	r3, r3, #1
 8003924:	6213      	str	r3, [r2, #32]
    if (RCC_OscInitStruct->LSEState != RCC_LSE_OFF)
 8003926:	68e3      	ldr	r3, [r4, #12]
 8003928:	b333      	cbz	r3, 8003978 <HAL_RCC_OscConfig+0x304>
      tickstart = HAL_GetTick();
 800392a:	f7fe fe4d 	bl	80025c8 <HAL_GetTick>
 800392e:	4606      	mov	r6, r0
      while (__HAL_RCC_GET_FLAG(RCC_FLAG_LSERDY) == RESET)
 8003930:	4f59      	ldr	r7, [pc, #356]	; (8003a98 <HAL_RCC_OscConfig+0x424>)
        if ((HAL_GetTick() - tickstart) > RCC_LSE_TIMEOUT_VALUE)
 8003932:	f241 3888 	movw	r8, #5000	; 0x1388
      while (__HAL_RCC_GET_FLAG(RCC_FLAG_LSERDY) == RESET)
 8003936:	6a3b      	ldr	r3, [r7, #32]
 8003938:	f013 0f02 	tst.w	r3, #2
 800393c:	d12d      	bne.n	800399a <HAL_RCC_OscConfig+0x326>
        if ((HAL_GetTick() - tickstart) > RCC_LSE_TIMEOUT_VALUE)
 800393e:	f7fe fe43 	bl	80025c8 <HAL_GetTick>
 8003942:	1b80      	subs	r0, r0, r6
 8003944:	4540      	cmp	r0, r8
 8003946:	d9f6      	bls.n	8003936 <HAL_RCC_OscConfig+0x2c2>
          return HAL_TIMEOUT;
 8003948:	2003      	movs	r0, #3
 800394a:	e09e      	b.n	8003a8a <HAL_RCC_OscConfig+0x416>
    __HAL_RCC_LSE_CONFIG(RCC_OscInitStruct->LSEState);
 800394c:	2b05      	cmp	r3, #5
 800394e:	d009      	beq.n	8003964 <HAL_RCC_OscConfig+0x2f0>
 8003950:	4b51      	ldr	r3, [pc, #324]	; (8003a98 <HAL_RCC_OscConfig+0x424>)
 8003952:	6a1a      	ldr	r2, [r3, #32]
 8003954:	f022 0201 	bic.w	r2, r2, #1
 8003958:	621a      	str	r2, [r3, #32]
 800395a:	6a1a      	ldr	r2, [r3, #32]
 800395c:	f022 0204 	bic.w	r2, r2, #4
 8003960:	621a      	str	r2, [r3, #32]
 8003962:	e7e0      	b.n	8003926 <HAL_RCC_OscConfig+0x2b2>
 8003964:	4b4c      	ldr	r3, [pc, #304]	; (8003a98 <HAL_RCC_OscConfig+0x424>)
 8003966:	6a1a      	ldr	r2, [r3, #32]
 8003968:	f042 0204 	orr.w	r2, r2, #4
 800396c:	621a      	str	r2, [r3, #32]
 800396e:	6a1a      	ldr	r2, [r3, #32]
 8003970:	f042 0201 	orr.w	r2, r2, #1
 8003974:	621a      	str	r2, [r3, #32]
 8003976:	e7d6      	b.n	8003926 <HAL_RCC_OscConfig+0x2b2>
      tickstart = HAL_GetTick();
 8003978:	f7fe fe26 	bl	80025c8 <HAL_GetTick>
 800397c:	4606      	mov	r6, r0
      while (__HAL_RCC_GET_FLAG(RCC_FLAG_LSERDY) != RESET)
 800397e:	4f46      	ldr	r7, [pc, #280]	; (8003a98 <HAL_RCC_OscConfig+0x424>)
        if ((HAL_GetTick() - tickstart) > RCC_LSE_TIMEOUT_VALUE)
 8003980:	f241 3888 	movw	r8, #5000	; 0x1388
      while (__HAL_RCC_GET_FLAG(RCC_FLAG_LSERDY) != RESET)
 8003984:	6a3b      	ldr	r3, [r7, #32]
 8003986:	f013 0f02 	tst.w	r3, #2
 800398a:	d006      	beq.n	800399a <HAL_RCC_OscConfig+0x326>
        if ((HAL_GetTick() - tickstart) > RCC_LSE_TIMEOUT_VALUE)
 800398c:	f7fe fe1c 	bl	80025c8 <HAL_GetTick>
 8003990:	1b80      	subs	r0, r0, r6
 8003992:	4540      	cmp	r0, r8
 8003994:	d9f6      	bls.n	8003984 <HAL_RCC_OscConfig+0x310>
          return HAL_TIMEOUT;
 8003996:	2003      	movs	r0, #3
 8003998:	e077      	b.n	8003a8a <HAL_RCC_OscConfig+0x416>
    if (pwrclkchanged == SET)
 800399a:	b9e5      	cbnz	r5, 80039d6 <HAL_RCC_OscConfig+0x362>
  if ((RCC_OscInitStruct->PLL.PLLState) != RCC_PLL_NONE)
 800399c:	69e3      	ldr	r3, [r4, #28]
 800399e:	2b00      	cmp	r3, #0
 80039a0:	d072      	beq.n	8003a88 <HAL_RCC_OscConfig+0x414>
    if (__HAL_RCC_GET_SYSCLK_SOURCE() != RCC_SYSCLKSOURCE_STATUS_PLLCLK)
 80039a2:	4a3d      	ldr	r2, [pc, #244]	; (8003a98 <HAL_RCC_OscConfig+0x424>)
 80039a4:	6852      	ldr	r2, [r2, #4]
 80039a6:	f002 020c 	and.w	r2, r2, #12
 80039aa:	2a08      	cmp	r2, #8
 80039ac:	d056      	beq.n	8003a5c <HAL_RCC_OscConfig+0x3e8>
      if ((RCC_OscInitStruct->PLL.PLLState) == RCC_PLL_ON)
 80039ae:	2b02      	cmp	r3, #2
 80039b0:	d017      	beq.n	80039e2 <HAL_RCC_OscConfig+0x36e>
        __HAL_RCC_PLL_DISABLE();
 80039b2:	4b3a      	ldr	r3, [pc, #232]	; (8003a9c <HAL_RCC_OscConfig+0x428>)
 80039b4:	2200      	movs	r2, #0
 80039b6:	661a      	str	r2, [r3, #96]	; 0x60
        tickstart = HAL_GetTick();
 80039b8:	f7fe fe06 	bl	80025c8 <HAL_GetTick>
 80039bc:	4604      	mov	r4, r0
        while (__HAL_RCC_GET_FLAG(RCC_FLAG_PLLRDY)  != RESET)
 80039be:	4d36      	ldr	r5, [pc, #216]	; (8003a98 <HAL_RCC_OscConfig+0x424>)
 80039c0:	682b      	ldr	r3, [r5, #0]
 80039c2:	f013 7f00 	tst.w	r3, #33554432	; 0x2000000
 80039c6:	d047      	beq.n	8003a58 <HAL_RCC_OscConfig+0x3e4>
          if ((HAL_GetTick() - tickstart) > PLL_TIMEOUT_VALUE)
 80039c8:	f7fe fdfe 	bl	80025c8 <HAL_GetTick>
 80039cc:	1b00      	subs	r0, r0, r4
 80039ce:	2802      	cmp	r0, #2
 80039d0:	d9f6      	bls.n	80039c0 <HAL_RCC_OscConfig+0x34c>
            return HAL_TIMEOUT;
 80039d2:	2003      	movs	r0, #3
 80039d4:	e059      	b.n	8003a8a <HAL_RCC_OscConfig+0x416>
      __HAL_RCC_PWR_CLK_DISABLE();
 80039d6:	4a30      	ldr	r2, [pc, #192]	; (8003a98 <HAL_RCC_OscConfig+0x424>)
 80039d8:	69d3      	ldr	r3, [r2, #28]
 80039da:	f023 5380 	bic.w	r3, r3, #268435456	; 0x10000000
 80039de:	61d3      	str	r3, [r2, #28]
 80039e0:	e7dc      	b.n	800399c <HAL_RCC_OscConfig+0x328>
        __HAL_RCC_PLL_DISABLE();
 80039e2:	4b2e      	ldr	r3, [pc, #184]	; (8003a9c <HAL_RCC_OscConfig+0x428>)
 80039e4:	2200      	movs	r2, #0
 80039e6:	661a      	str	r2, [r3, #96]	; 0x60
        tickstart = HAL_GetTick();
 80039e8:	f7fe fdee 	bl	80025c8 <HAL_GetTick>
 80039ec:	4605      	mov	r5, r0
        while (__HAL_RCC_GET_FLAG(RCC_FLAG_PLLRDY)  != RESET)
 80039ee:	4e2a      	ldr	r6, [pc, #168]	; (8003a98 <HAL_RCC_OscConfig+0x424>)
 80039f0:	6833      	ldr	r3, [r6, #0]
 80039f2:	f013 7f00 	tst.w	r3, #33554432	; 0x2000000
 80039f6:	d006      	beq.n	8003a06 <HAL_RCC_OscConfig+0x392>
          if ((HAL_GetTick() - tickstart) > PLL_TIMEOUT_VALUE)
 80039f8:	f7fe fde6 	bl	80025c8 <HAL_GetTick>
 80039fc:	1b40      	subs	r0, r0, r5
 80039fe:	2802      	cmp	r0, #2
 8003a00:	d9f6      	bls.n	80039f0 <HAL_RCC_OscConfig+0x37c>
            return HAL_TIMEOUT;
 8003a02:	2003      	movs	r0, #3
 8003a04:	e041      	b.n	8003a8a <HAL_RCC_OscConfig+0x416>
        if (RCC_OscInitStruct->PLL.PLLSource == RCC_PLLSOURCE_HSE)
 8003a06:	6a23      	ldr	r3, [r4, #32]
 8003a08:	f5b3 3f80 	cmp.w	r3, #65536	; 0x10000
 8003a0c:	d01a      	beq.n	8003a44 <HAL_RCC_OscConfig+0x3d0>
        __HAL_RCC_PLL_CONFIG(RCC_OscInitStruct->PLL.PLLSource,
 8003a0e:	4922      	ldr	r1, [pc, #136]	; (8003a98 <HAL_RCC_OscConfig+0x424>)
 8003a10:	684a      	ldr	r2, [r1, #4]
 8003a12:	6a23      	ldr	r3, [r4, #32]
 8003a14:	6a60      	ldr	r0, [r4, #36]	; 0x24
 8003a16:	4303      	orrs	r3, r0
 8003a18:	f422 1274 	bic.w	r2, r2, #3997696	; 0x3d0000
 8003a1c:	4313      	orrs	r3, r2
 8003a1e:	604b      	str	r3, [r1, #4]
        __HAL_RCC_PLL_ENABLE();
 8003a20:	4b1e      	ldr	r3, [pc, #120]	; (8003a9c <HAL_RCC_OscConfig+0x428>)
 8003a22:	2201      	movs	r2, #1
 8003a24:	661a      	str	r2, [r3, #96]	; 0x60
        tickstart = HAL_GetTick();
 8003a26:	f7fe fdcf 	bl	80025c8 <HAL_GetTick>
 8003a2a:	4604      	mov	r4, r0
        while (__HAL_RCC_GET_FLAG(RCC_FLAG_PLLRDY)  == RESET)
 8003a2c:	4d1a      	ldr	r5, [pc, #104]	; (8003a98 <HAL_RCC_OscConfig+0x424>)
 8003a2e:	682b      	ldr	r3, [r5, #0]
 8003a30:	f013 7f00 	tst.w	r3, #33554432	; 0x2000000
 8003a34:	d10e      	bne.n	8003a54 <HAL_RCC_OscConfig+0x3e0>
          if ((HAL_GetTick() - tickstart) > PLL_TIMEOUT_VALUE)
 8003a36:	f7fe fdc7 	bl	80025c8 <HAL_GetTick>
 8003a3a:	1b00      	subs	r0, r0, r4
 8003a3c:	2802      	cmp	r0, #2
 8003a3e:	d9f6      	bls.n	8003a2e <HAL_RCC_OscConfig+0x3ba>
            return HAL_TIMEOUT;
 8003a40:	2003      	movs	r0, #3
 8003a42:	e022      	b.n	8003a8a <HAL_RCC_OscConfig+0x416>
          __HAL_RCC_HSE_PREDIV_CONFIG(RCC_OscInitStruct->HSEPredivValue);
 8003a44:	4a14      	ldr	r2, [pc, #80]	; (8003a98 <HAL_RCC_OscConfig+0x424>)
 8003a46:	6853      	ldr	r3, [r2, #4]
 8003a48:	f423 3300 	bic.w	r3, r3, #131072	; 0x20000
 8003a4c:	68a1      	ldr	r1, [r4, #8]
 8003a4e:	430b      	orrs	r3, r1
 8003a50:	6053      	str	r3, [r2, #4]
 8003a52:	e7dc      	b.n	8003a0e <HAL_RCC_OscConfig+0x39a>
  return HAL_OK;
 8003a54:	2000      	movs	r0, #0
 8003a56:	e018      	b.n	8003a8a <HAL_RCC_OscConfig+0x416>
 8003a58:	2000      	movs	r0, #0
 8003a5a:	e016      	b.n	8003a8a <HAL_RCC_OscConfig+0x416>
      if ((RCC_OscInitStruct->PLL.PLLState) == RCC_PLL_OFF)
 8003a5c:	2b01      	cmp	r3, #1
 8003a5e:	d017      	beq.n	8003a90 <HAL_RCC_OscConfig+0x41c>
        pll_config = RCC->CFGR;
 8003a60:	4b0d      	ldr	r3, [pc, #52]	; (8003a98 <HAL_RCC_OscConfig+0x424>)
 8003a62:	685b      	ldr	r3, [r3, #4]
        if ((READ_BIT(pll_config, RCC_CFGR_PLLSRC) != RCC_OscInitStruct->PLL.PLLSource) ||
 8003a64:	f403 3180 	and.w	r1, r3, #65536	; 0x10000
 8003a68:	6a22      	ldr	r2, [r4, #32]
 8003a6a:	4291      	cmp	r1, r2
 8003a6c:	d112      	bne.n	8003a94 <HAL_RCC_OscConfig+0x420>
            (READ_BIT(pll_config, RCC_CFGR_PLLMULL) != RCC_OscInitStruct->PLL.PLLMUL))
 8003a6e:	f403 1370 	and.w	r3, r3, #3932160	; 0x3c0000
        if ((READ_BIT(pll_config, RCC_CFGR_PLLSRC) != RCC_OscInitStruct->PLL.PLLSource) ||
 8003a72:	6a60      	ldr	r0, [r4, #36]	; 0x24
    return HAL_ERROR;
 8003a74:	1a18      	subs	r0, r3, r0
 8003a76:	bf18      	it	ne
 8003a78:	2001      	movne	r0, #1
 8003a7a:	e006      	b.n	8003a8a <HAL_RCC_OscConfig+0x416>
 8003a7c:	2001      	movs	r0, #1
}
 8003a7e:	4770      	bx	lr
        return HAL_ERROR;
 8003a80:	2001      	movs	r0, #1
 8003a82:	e002      	b.n	8003a8a <HAL_RCC_OscConfig+0x416>
        return HAL_ERROR;
 8003a84:	2001      	movs	r0, #1
 8003a86:	e000      	b.n	8003a8a <HAL_RCC_OscConfig+0x416>
  return HAL_OK;
 8003a88:	2000      	movs	r0, #0
}
 8003a8a:	b002      	add	sp, #8
 8003a8c:	e8bd 81f0 	ldmia.w	sp!, {r4, r5, r6, r7, r8, pc}
        return HAL_ERROR;
 8003a90:	2001      	movs	r0, #1
 8003a92:	e7fa      	b.n	8003a8a <HAL_RCC_OscConfig+0x416>
          return HAL_ERROR;
 8003a94:	2001      	movs	r0, #1
 8003a96:	e7f8      	b.n	8003a8a <HAL_RCC_OscConfig+0x416>
 8003a98:	40021000 	.word	0x40021000
 8003a9c:	42420000 	.word	0x42420000

08003aa0 <HAL_RCC_GetSysClockFreq>:
  tmpreg = RCC->CFGR;
 8003aa0:	4b0f      	ldr	r3, [pc, #60]	; (8003ae0 <HAL_RCC_GetSysClockFreq+0x40>)
 8003aa2:	685b      	ldr	r3, [r3, #4]
  switch (tmpreg & RCC_CFGR_SWS)
 8003aa4:	f003 020c 	and.w	r2, r3, #12
 8003aa8:	2a08      	cmp	r2, #8
 8003aaa:	d001      	beq.n	8003ab0 <HAL_RCC_GetSysClockFreq+0x10>
      sysclockfreq = HSE_VALUE;
 8003aac:	480d      	ldr	r0, [pc, #52]	; (8003ae4 <HAL_RCC_GetSysClockFreq+0x44>)
}
 8003aae:	4770      	bx	lr
      pllmul = aPLLMULFactorTable[(uint32_t)(tmpreg & RCC_CFGR_PLLMULL) >> RCC_CFGR_PLLMULL_Pos];
 8003ab0:	f3c3 4283 	ubfx	r2, r3, #18, #4
 8003ab4:	490c      	ldr	r1, [pc, #48]	; (8003ae8 <HAL_RCC_GetSysClockFreq+0x48>)
 8003ab6:	5c88      	ldrb	r0, [r1, r2]
      if ((tmpreg & RCC_CFGR_PLLSRC) != RCC_PLLSOURCE_HSI_DIV2)
 8003ab8:	f413 3f80 	tst.w	r3, #65536	; 0x10000
 8003abc:	d00b      	beq.n	8003ad6 <HAL_RCC_GetSysClockFreq+0x36>
        prediv = aPredivFactorTable[(uint32_t)(RCC->CFGR & RCC_CFGR_PLLXTPRE) >> RCC_CFGR_PLLXTPRE_Pos];
 8003abe:	4b08      	ldr	r3, [pc, #32]	; (8003ae0 <HAL_RCC_GetSysClockFreq+0x40>)
 8003ac0:	685b      	ldr	r3, [r3, #4]
        pllclk = (uint32_t)((HSE_VALUE  * pllmul) / prediv);
 8003ac2:	4a08      	ldr	r2, [pc, #32]	; (8003ae4 <HAL_RCC_GetSysClockFreq+0x44>)
 8003ac4:	fb02 f000 	mul.w	r0, r2, r0
        prediv = aPredivFactorTable[(uint32_t)(RCC->CFGR & RCC_CFGR_PLLXTPRE) >> RCC_CFGR_PLLXTPRE_Pos];
 8003ac8:	f3c3 4340 	ubfx	r3, r3, #17, #1
 8003acc:	4a07      	ldr	r2, [pc, #28]	; (8003aec <HAL_RCC_GetSysClockFreq+0x4c>)
 8003ace:	5cd3      	ldrb	r3, [r2, r3]
        pllclk = (uint32_t)((HSE_VALUE  * pllmul) / prediv);
 8003ad0:	fbb0 f0f3 	udiv	r0, r0, r3
 8003ad4:	4770      	bx	lr
        pllclk = (uint32_t)((HSI_VALUE >> 1) * pllmul);
 8003ad6:	4b06      	ldr	r3, [pc, #24]	; (8003af0 <HAL_RCC_GetSysClockFreq+0x50>)
 8003ad8:	fb03 f000 	mul.w	r0, r3, r0
 8003adc:	4770      	bx	lr
 8003ade:	bf00      	nop
 8003ae0:	40021000 	.word	0x40021000
 8003ae4:	007a1200 	.word	0x007a1200
 8003ae8:	0800977c 	.word	0x0800977c
 8003aec:	0800978c 	.word	0x0800978c
 8003af0:	003d0900 	.word	0x003d0900

08003af4 <HAL_RCC_ClockConfig>:
  if (RCC_ClkInitStruct == NULL)
 8003af4:	2800      	cmp	r0, #0
 8003af6:	f000 80a2 	beq.w	8003c3e <HAL_RCC_ClockConfig+0x14a>
{
 8003afa:	e92d 41f0 	stmdb	sp!, {r4, r5, r6, r7, r8, lr}
 8003afe:	460d      	mov	r5, r1
 8003b00:	4604      	mov	r4, r0
  if (FLatency > __HAL_FLASH_GET_LATENCY())
 8003b02:	4b53      	ldr	r3, [pc, #332]	; (8003c50 <HAL_RCC_ClockConfig+0x15c>)
 8003b04:	681b      	ldr	r3, [r3, #0]
 8003b06:	f003 0307 	and.w	r3, r3, #7
 8003b0a:	428b      	cmp	r3, r1
 8003b0c:	d20b      	bcs.n	8003b26 <HAL_RCC_ClockConfig+0x32>
    __HAL_FLASH_SET_LATENCY(FLatency);
 8003b0e:	4a50      	ldr	r2, [pc, #320]	; (8003c50 <HAL_RCC_ClockConfig+0x15c>)
 8003b10:	6813      	ldr	r3, [r2, #0]
 8003b12:	f023 0307 	bic.w	r3, r3, #7
 8003b16:	430b      	orrs	r3, r1
 8003b18:	6013      	str	r3, [r2, #0]
    if (__HAL_FLASH_GET_LATENCY() != FLatency)
 8003b1a:	6813      	ldr	r3, [r2, #0]
 8003b1c:	f003 0307 	and.w	r3, r3, #7
 8003b20:	428b      	cmp	r3, r1
 8003b22:	f040 808e 	bne.w	8003c42 <HAL_RCC_ClockConfig+0x14e>
if (((RCC_ClkInitStruct->ClockType) & RCC_CLOCKTYPE_HCLK) == RCC_CLOCKTYPE_HCLK)
 8003b26:	6823      	ldr	r3, [r4, #0]
 8003b28:	f013 0f02 	tst.w	r3, #2
 8003b2c:	d017      	beq.n	8003b5e <HAL_RCC_ClockConfig+0x6a>
    if (((RCC_ClkInitStruct->ClockType) & RCC_CLOCKTYPE_PCLK1) == RCC_CLOCKTYPE_PCLK1)
 8003b2e:	f013 0f04 	tst.w	r3, #4
 8003b32:	d004      	beq.n	8003b3e <HAL_RCC_ClockConfig+0x4a>
      MODIFY_REG(RCC->CFGR, RCC_CFGR_PPRE1, RCC_HCLK_DIV16);
 8003b34:	4a47      	ldr	r2, [pc, #284]	; (8003c54 <HAL_RCC_ClockConfig+0x160>)
 8003b36:	6853      	ldr	r3, [r2, #4]
 8003b38:	f443 63e0 	orr.w	r3, r3, #1792	; 0x700
 8003b3c:	6053      	str	r3, [r2, #4]
    if (((RCC_ClkInitStruct->ClockType) & RCC_CLOCKTYPE_PCLK2) == RCC_CLOCKTYPE_PCLK2)
 8003b3e:	6823      	ldr	r3, [r4, #0]
 8003b40:	f013 0f08 	tst.w	r3, #8
 8003b44:	d004      	beq.n	8003b50 <HAL_RCC_ClockConfig+0x5c>
      MODIFY_REG(RCC->CFGR, RCC_CFGR_PPRE2, (RCC_HCLK_DIV16 << 3));
 8003b46:	4a43      	ldr	r2, [pc, #268]	; (8003c54 <HAL_RCC_ClockConfig+0x160>)
 8003b48:	6853      	ldr	r3, [r2, #4]
 8003b4a:	f443 5360 	orr.w	r3, r3, #14336	; 0x3800
 8003b4e:	6053      	str	r3, [r2, #4]
    MODIFY_REG(RCC->CFGR, RCC_CFGR_HPRE, RCC_ClkInitStruct->AHBCLKDivider);
 8003b50:	4a40      	ldr	r2, [pc, #256]	; (8003c54 <HAL_RCC_ClockConfig+0x160>)
 8003b52:	6853      	ldr	r3, [r2, #4]
 8003b54:	f023 03f0 	bic.w	r3, r3, #240	; 0xf0
 8003b58:	68a1      	ldr	r1, [r4, #8]
 8003b5a:	430b      	orrs	r3, r1
 8003b5c:	6053      	str	r3, [r2, #4]
  if (((RCC_ClkInitStruct->ClockType) & RCC_CLOCKTYPE_SYSCLK) == RCC_CLOCKTYPE_SYSCLK)
 8003b5e:	6823      	ldr	r3, [r4, #0]
 8003b60:	f013 0f01 	tst.w	r3, #1
 8003b64:	d031      	beq.n	8003bca <HAL_RCC_ClockConfig+0xd6>
    if (RCC_ClkInitStruct->SYSCLKSource == RCC_SYSCLKSOURCE_HSE)
 8003b66:	6862      	ldr	r2, [r4, #4]
 8003b68:	2a01      	cmp	r2, #1
 8003b6a:	d020      	beq.n	8003bae <HAL_RCC_ClockConfig+0xba>
    else if (RCC_ClkInitStruct->SYSCLKSource == RCC_SYSCLKSOURCE_PLLCLK)
 8003b6c:	2a02      	cmp	r2, #2
 8003b6e:	d025      	beq.n	8003bbc <HAL_RCC_ClockConfig+0xc8>
      if (__HAL_RCC_GET_FLAG(RCC_FLAG_HSIRDY) == RESET)
 8003b70:	4b38      	ldr	r3, [pc, #224]	; (8003c54 <HAL_RCC_ClockConfig+0x160>)
 8003b72:	681b      	ldr	r3, [r3, #0]
 8003b74:	f013 0f02 	tst.w	r3, #2
 8003b78:	d065      	beq.n	8003c46 <HAL_RCC_ClockConfig+0x152>
    __HAL_RCC_SYSCLK_CONFIG(RCC_ClkInitStruct->SYSCLKSource);
 8003b7a:	4936      	ldr	r1, [pc, #216]	; (8003c54 <HAL_RCC_ClockConfig+0x160>)
 8003b7c:	684b      	ldr	r3, [r1, #4]
 8003b7e:	f023 0303 	bic.w	r3, r3, #3
 8003b82:	4313      	orrs	r3, r2
 8003b84:	604b      	str	r3, [r1, #4]
    tickstart = HAL_GetTick();
 8003b86:	f7fe fd1f 	bl	80025c8 <HAL_GetTick>
 8003b8a:	4606      	mov	r6, r0
    while (__HAL_RCC_GET_SYSCLK_SOURCE() != (RCC_ClkInitStruct->SYSCLKSource << RCC_CFGR_SWS_Pos))
 8003b8c:	4f31      	ldr	r7, [pc, #196]	; (8003c54 <HAL_RCC_ClockConfig+0x160>)
      if ((HAL_GetTick() - tickstart) > CLOCKSWITCH_TIMEOUT_VALUE)
 8003b8e:	f241 3888 	movw	r8, #5000	; 0x1388
    while (__HAL_RCC_GET_SYSCLK_SOURCE() != (RCC_ClkInitStruct->SYSCLKSource << RCC_CFGR_SWS_Pos))
 8003b92:	687b      	ldr	r3, [r7, #4]
 8003b94:	f003 030c 	and.w	r3, r3, #12
 8003b98:	6862      	ldr	r2, [r4, #4]
 8003b9a:	ebb3 0f82 	cmp.w	r3, r2, lsl #2
 8003b9e:	d014      	beq.n	8003bca <HAL_RCC_ClockConfig+0xd6>
      if ((HAL_GetTick() - tickstart) > CLOCKSWITCH_TIMEOUT_VALUE)
 8003ba0:	f7fe fd12 	bl	80025c8 <HAL_GetTick>
 8003ba4:	1b80      	subs	r0, r0, r6
 8003ba6:	4540      	cmp	r0, r8
 8003ba8:	d9f3      	bls.n	8003b92 <HAL_RCC_ClockConfig+0x9e>
        return HAL_TIMEOUT;
 8003baa:	2003      	movs	r0, #3
 8003bac:	e045      	b.n	8003c3a <HAL_RCC_ClockConfig+0x146>
      if (__HAL_RCC_GET_FLAG(RCC_FLAG_HSERDY) == RESET)
 8003bae:	4b29      	ldr	r3, [pc, #164]	; (8003c54 <HAL_RCC_ClockConfig+0x160>)
 8003bb0:	681b      	ldr	r3, [r3, #0]
 8003bb2:	f413 3f00 	tst.w	r3, #131072	; 0x20000
 8003bb6:	d1e0      	bne.n	8003b7a <HAL_RCC_ClockConfig+0x86>
        return HAL_ERROR;
 8003bb8:	2001      	movs	r0, #1
 8003bba:	e03e      	b.n	8003c3a <HAL_RCC_ClockConfig+0x146>
      if (__HAL_RCC_GET_FLAG(RCC_FLAG_PLLRDY) == RESET)
 8003bbc:	4b25      	ldr	r3, [pc, #148]	; (8003c54 <HAL_RCC_ClockConfig+0x160>)
 8003bbe:	681b      	ldr	r3, [r3, #0]
 8003bc0:	f013 7f00 	tst.w	r3, #33554432	; 0x2000000
 8003bc4:	d1d9      	bne.n	8003b7a <HAL_RCC_ClockConfig+0x86>
        return HAL_ERROR;
 8003bc6:	2001      	movs	r0, #1
 8003bc8:	e037      	b.n	8003c3a <HAL_RCC_ClockConfig+0x146>
  if (FLatency < __HAL_FLASH_GET_LATENCY())
 8003bca:	4b21      	ldr	r3, [pc, #132]	; (8003c50 <HAL_RCC_ClockConfig+0x15c>)
 8003bcc:	681b      	ldr	r3, [r3, #0]
 8003bce:	f003 0307 	and.w	r3, r3, #7
 8003bd2:	42ab      	cmp	r3, r5
 8003bd4:	d90a      	bls.n	8003bec <HAL_RCC_ClockConfig+0xf8>
    __HAL_FLASH_SET_LATENCY(FLatency);
 8003bd6:	4a1e      	ldr	r2, [pc, #120]	; (8003c50 <HAL_RCC_ClockConfig+0x15c>)
 8003bd8:	6813      	ldr	r3, [r2, #0]
 8003bda:	f023 0307 	bic.w	r3, r3, #7
 8003bde:	432b      	orrs	r3, r5
 8003be0:	6013      	str	r3, [r2, #0]
    if (__HAL_FLASH_GET_LATENCY() != FLatency)
 8003be2:	6813      	ldr	r3, [r2, #0]
 8003be4:	f003 0307 	and.w	r3, r3, #7
 8003be8:	42ab      	cmp	r3, r5
 8003bea:	d12e      	bne.n	8003c4a <HAL_RCC_ClockConfig+0x156>
if (((RCC_ClkInitStruct->ClockType) & RCC_CLOCKTYPE_PCLK1) == RCC_CLOCKTYPE_PCLK1)
 8003bec:	6823      	ldr	r3, [r4, #0]
 8003bee:	f013 0f04 	tst.w	r3, #4
 8003bf2:	d006      	beq.n	8003c02 <HAL_RCC_ClockConfig+0x10e>
    MODIFY_REG(RCC->CFGR, RCC_CFGR_PPRE1, RCC_ClkInitStruct->APB1CLKDivider);
 8003bf4:	4a17      	ldr	r2, [pc, #92]	; (8003c54 <HAL_RCC_ClockConfig+0x160>)
 8003bf6:	6853      	ldr	r3, [r2, #4]
 8003bf8:	f423 63e0 	bic.w	r3, r3, #1792	; 0x700
 8003bfc:	68e1      	ldr	r1, [r4, #12]
 8003bfe:	430b      	orrs	r3, r1
 8003c00:	6053      	str	r3, [r2, #4]
  if (((RCC_ClkInitStruct->ClockType) & RCC_CLOCKTYPE_PCLK2) == RCC_CLOCKTYPE_PCLK2)
 8003c02:	6823      	ldr	r3, [r4, #0]
 8003c04:	f013 0f08 	tst.w	r3, #8
 8003c08:	d007      	beq.n	8003c1a <HAL_RCC_ClockConfig+0x126>
    MODIFY_REG(RCC->CFGR, RCC_CFGR_PPRE2, ((RCC_ClkInitStruct->APB2CLKDivider) << 3));
 8003c0a:	4a12      	ldr	r2, [pc, #72]	; (8003c54 <HAL_RCC_ClockConfig+0x160>)
 8003c0c:	6853      	ldr	r3, [r2, #4]
 8003c0e:	6921      	ldr	r1, [r4, #16]
 8003c10:	f423 5360 	bic.w	r3, r3, #14336	; 0x3800
 8003c14:	ea43 03c1 	orr.w	r3, r3, r1, lsl #3
 8003c18:	6053      	str	r3, [r2, #4]
  SystemCoreClock = HAL_RCC_GetSysClockFreq() >> AHBPrescTable[(RCC->CFGR & RCC_CFGR_HPRE) >> RCC_CFGR_HPRE_Pos];
 8003c1a:	f7ff ff41 	bl	8003aa0 <HAL_RCC_GetSysClockFreq>
 8003c1e:	4b0d      	ldr	r3, [pc, #52]	; (8003c54 <HAL_RCC_ClockConfig+0x160>)
 8003c20:	685b      	ldr	r3, [r3, #4]
 8003c22:	f3c3 1303 	ubfx	r3, r3, #4, #4
 8003c26:	4a0c      	ldr	r2, [pc, #48]	; (8003c58 <HAL_RCC_ClockConfig+0x164>)
 8003c28:	5cd3      	ldrb	r3, [r2, r3]
 8003c2a:	40d8      	lsrs	r0, r3
 8003c2c:	4b0b      	ldr	r3, [pc, #44]	; (8003c5c <HAL_RCC_ClockConfig+0x168>)
 8003c2e:	6018      	str	r0, [r3, #0]
  HAL_InitTick(uwTickPrio);
 8003c30:	4b0b      	ldr	r3, [pc, #44]	; (8003c60 <HAL_RCC_ClockConfig+0x16c>)
 8003c32:	6818      	ldr	r0, [r3, #0]
 8003c34:	f7fe fbbc 	bl	80023b0 <HAL_InitTick>
  return HAL_OK;
 8003c38:	2000      	movs	r0, #0
}
 8003c3a:	e8bd 81f0 	ldmia.w	sp!, {r4, r5, r6, r7, r8, pc}
    return HAL_ERROR;
 8003c3e:	2001      	movs	r0, #1
}
 8003c40:	4770      	bx	lr
    return HAL_ERROR;
 8003c42:	2001      	movs	r0, #1
 8003c44:	e7f9      	b.n	8003c3a <HAL_RCC_ClockConfig+0x146>
        return HAL_ERROR;
 8003c46:	2001      	movs	r0, #1
 8003c48:	e7f7      	b.n	8003c3a <HAL_RCC_ClockConfig+0x146>
    return HAL_ERROR;
 8003c4a:	2001      	movs	r0, #1
 8003c4c:	e7f5      	b.n	8003c3a <HAL_RCC_ClockConfig+0x146>
 8003c4e:	bf00      	nop
 8003c50:	40022000 	.word	0x40022000
 8003c54:	40021000 	.word	0x40021000
 8003c58:	08009764 	.word	0x08009764
 8003c5c:	20000628 	.word	0x20000628
 8003c60:	20000630 	.word	0x20000630

08003c64 <HAL_RCC_GetPCLK1Freq>:
  return (HAL_RCC_GetHCLKFreq() >> APBPrescTable[(RCC->CFGR & RCC_CFGR_PPRE1) >> RCC_CFGR_PPRE1_Pos]);
 8003c64:	4b04      	ldr	r3, [pc, #16]	; (8003c78 <HAL_RCC_GetPCLK1Freq+0x14>)
 8003c66:	685b      	ldr	r3, [r3, #4]
 8003c68:	f3c3 2302 	ubfx	r3, r3, #8, #3
 8003c6c:	4a03      	ldr	r2, [pc, #12]	; (8003c7c <HAL_RCC_GetPCLK1Freq+0x18>)
 8003c6e:	5cd3      	ldrb	r3, [r2, r3]
 8003c70:	4a03      	ldr	r2, [pc, #12]	; (8003c80 <HAL_RCC_GetPCLK1Freq+0x1c>)
 8003c72:	6810      	ldr	r0, [r2, #0]
}
 8003c74:	40d8      	lsrs	r0, r3
 8003c76:	4770      	bx	lr
 8003c78:	40021000 	.word	0x40021000
 8003c7c:	08009774 	.word	0x08009774
 8003c80:	20000628 	.word	0x20000628

08003c84 <HAL_RCC_GetPCLK2Freq>:
  return (HAL_RCC_GetHCLKFreq() >> APBPrescTable[(RCC->CFGR & RCC_CFGR_PPRE2) >> RCC_CFGR_PPRE2_Pos]);
 8003c84:	4b04      	ldr	r3, [pc, #16]	; (8003c98 <HAL_RCC_GetPCLK2Freq+0x14>)
 8003c86:	685b      	ldr	r3, [r3, #4]
 8003c88:	f3c3 23c2 	ubfx	r3, r3, #11, #3
 8003c8c:	4a03      	ldr	r2, [pc, #12]	; (8003c9c <HAL_RCC_GetPCLK2Freq+0x18>)
 8003c8e:	5cd3      	ldrb	r3, [r2, r3]
 8003c90:	4a03      	ldr	r2, [pc, #12]	; (8003ca0 <HAL_RCC_GetPCLK2Freq+0x1c>)
 8003c92:	6810      	ldr	r0, [r2, #0]
}
 8003c94:	40d8      	lsrs	r0, r3
 8003c96:	4770      	bx	lr
 8003c98:	40021000 	.word	0x40021000
 8003c9c:	08009774 	.word	0x08009774
 8003ca0:	20000628 	.word	0x20000628

08003ca4 <HAL_RCC_GetClockConfig>:
  RCC_ClkInitStruct->ClockType = RCC_CLOCKTYPE_SYSCLK | RCC_CLOCKTYPE_HCLK | RCC_CLOCKTYPE_PCLK1 | RCC_CLOCKTYPE_PCLK2;
 8003ca4:	230f      	movs	r3, #15
 8003ca6:	6003      	str	r3, [r0, #0]
  RCC_ClkInitStruct->SYSCLKSource = (uint32_t)(RCC->CFGR & RCC_CFGR_SW);
 8003ca8:	4b0b      	ldr	r3, [pc, #44]	; (8003cd8 <HAL_RCC_GetClockConfig+0x34>)
 8003caa:	685a      	ldr	r2, [r3, #4]
 8003cac:	f002 0203 	and.w	r2, r2, #3
 8003cb0:	6042      	str	r2, [r0, #4]
  RCC_ClkInitStruct->AHBCLKDivider = (uint32_t)(RCC->CFGR & RCC_CFGR_HPRE);
 8003cb2:	685a      	ldr	r2, [r3, #4]
 8003cb4:	f002 02f0 	and.w	r2, r2, #240	; 0xf0
 8003cb8:	6082      	str	r2, [r0, #8]
  RCC_ClkInitStruct->APB1CLKDivider = (uint32_t)(RCC->CFGR & RCC_CFGR_PPRE1);
 8003cba:	685a      	ldr	r2, [r3, #4]
 8003cbc:	f402 62e0 	and.w	r2, r2, #1792	; 0x700
 8003cc0:	60c2      	str	r2, [r0, #12]
  RCC_ClkInitStruct->APB2CLKDivider = (uint32_t)((RCC->CFGR & RCC_CFGR_PPRE2) >> 3);
 8003cc2:	685b      	ldr	r3, [r3, #4]
 8003cc4:	08db      	lsrs	r3, r3, #3
 8003cc6:	f403 63e0 	and.w	r3, r3, #1792	; 0x700
 8003cca:	6103      	str	r3, [r0, #16]
  *pFLatency = (uint32_t)(FLASH->ACR & FLASH_ACR_LATENCY);
 8003ccc:	4b03      	ldr	r3, [pc, #12]	; (8003cdc <HAL_RCC_GetClockConfig+0x38>)
 8003cce:	681b      	ldr	r3, [r3, #0]
 8003cd0:	f003 0307 	and.w	r3, r3, #7
 8003cd4:	600b      	str	r3, [r1, #0]
}
 8003cd6:	4770      	bx	lr
 8003cd8:	40021000 	.word	0x40021000
 8003cdc:	40022000 	.word	0x40022000

08003ce0 <HAL_RCCEx_PeriphCLKConfig>:
  *         manually disable it.
  *
  * @retval HAL status
  */
HAL_StatusTypeDef HAL_RCCEx_PeriphCLKConfig(RCC_PeriphCLKInitTypeDef  *PeriphClkInit)
{
 8003ce0:	e92d 41f0 	stmdb	sp!, {r4, r5, r6, r7, r8, lr}
 8003ce4:	b082      	sub	sp, #8
 8003ce6:	4604      	mov	r4, r0

  /* Check the parameters */
  assert_param(IS_RCC_PERIPHCLOCK(PeriphClkInit->PeriphClockSelection));

  /*------------------------------- RTC/LCD Configuration ------------------------*/
  if ((((PeriphClkInit->PeriphClockSelection) & RCC_PERIPHCLK_RTC) == RCC_PERIPHCLK_RTC))
 8003ce8:	6803      	ldr	r3, [r0, #0]
 8003cea:	f013 0f01 	tst.w	r3, #1
 8003cee:	d036      	beq.n	8003d5e <HAL_RCCEx_PeriphCLKConfig+0x7e>
    assert_param(IS_RCC_RTCCLKSOURCE(PeriphClkInit->RTCClockSelection));

    /* As soon as function is called to change RTC clock source, activation of the
       power domain is done. */
    /* Requires to enable write access to Backup Domain of necessary */
    if (__HAL_RCC_PWR_IS_CLK_DISABLED())
 8003cf0:	4b3f      	ldr	r3, [pc, #252]	; (8003df0 <HAL_RCCEx_PeriphCLKConfig+0x110>)
 8003cf2:	69db      	ldr	r3, [r3, #28]
 8003cf4:	f013 5f80 	tst.w	r3, #268435456	; 0x10000000
 8003cf8:	d149      	bne.n	8003d8e <HAL_RCCEx_PeriphCLKConfig+0xae>
    {
      __HAL_RCC_PWR_CLK_ENABLE();
 8003cfa:	4b3d      	ldr	r3, [pc, #244]	; (8003df0 <HAL_RCCEx_PeriphCLKConfig+0x110>)
 8003cfc:	69da      	ldr	r2, [r3, #28]
 8003cfe:	f042 5280 	orr.w	r2, r2, #268435456	; 0x10000000
 8003d02:	61da      	str	r2, [r3, #28]
 8003d04:	69db      	ldr	r3, [r3, #28]
 8003d06:	f003 5380 	and.w	r3, r3, #268435456	; 0x10000000
 8003d0a:	9301      	str	r3, [sp, #4]
 8003d0c:	9b01      	ldr	r3, [sp, #4]
      pwrclkchanged = SET;
 8003d0e:	2501      	movs	r5, #1
    }

    if (HAL_IS_BIT_CLR(PWR->CR, PWR_CR_DBP))
 8003d10:	4b38      	ldr	r3, [pc, #224]	; (8003df4 <HAL_RCCEx_PeriphCLKConfig+0x114>)
 8003d12:	681b      	ldr	r3, [r3, #0]
 8003d14:	f413 7f80 	tst.w	r3, #256	; 0x100
 8003d18:	d03b      	beq.n	8003d92 <HAL_RCCEx_PeriphCLKConfig+0xb2>
        }
      }
    }

    /* Reset the Backup domain only if the RTC Clock source selection is modified from reset value */
    temp_reg = (RCC->BDCR & RCC_BDCR_RTCSEL);
 8003d1a:	4b35      	ldr	r3, [pc, #212]	; (8003df0 <HAL_RCCEx_PeriphCLKConfig+0x110>)
 8003d1c:	6a1b      	ldr	r3, [r3, #32]
    if ((temp_reg != 0x00000000U) && (temp_reg != (PeriphClkInit->RTCClockSelection & RCC_BDCR_RTCSEL)))
 8003d1e:	f413 7340 	ands.w	r3, r3, #768	; 0x300
 8003d22:	d013      	beq.n	8003d4c <HAL_RCCEx_PeriphCLKConfig+0x6c>
 8003d24:	6862      	ldr	r2, [r4, #4]
 8003d26:	f402 7240 	and.w	r2, r2, #768	; 0x300
 8003d2a:	429a      	cmp	r2, r3
 8003d2c:	d00e      	beq.n	8003d4c <HAL_RCCEx_PeriphCLKConfig+0x6c>
    {
      /* Store the content of BDCR register before the reset of Backup Domain */
      temp_reg = (RCC->BDCR & ~(RCC_BDCR_RTCSEL));
 8003d2e:	4a30      	ldr	r2, [pc, #192]	; (8003df0 <HAL_RCCEx_PeriphCLKConfig+0x110>)
 8003d30:	6a13      	ldr	r3, [r2, #32]
 8003d32:	f423 7040 	bic.w	r0, r3, #768	; 0x300
      /* RTC Clock selection can be changed only if the Backup Domain is reset */
      __HAL_RCC_BACKUPRESET_FORCE();
 8003d36:	4930      	ldr	r1, [pc, #192]	; (8003df8 <HAL_RCCEx_PeriphCLKConfig+0x118>)
 8003d38:	2601      	movs	r6, #1
 8003d3a:	f8c1 6440 	str.w	r6, [r1, #1088]	; 0x440
      __HAL_RCC_BACKUPRESET_RELEASE();
 8003d3e:	2600      	movs	r6, #0
 8003d40:	f8c1 6440 	str.w	r6, [r1, #1088]	; 0x440
      /* Restore the Content of BDCR register */
      RCC->BDCR = temp_reg;
 8003d44:	6210      	str	r0, [r2, #32]

      /* Wait for LSERDY if LSE was enabled */
      if (HAL_IS_BIT_SET(temp_reg, RCC_BDCR_LSEON))
 8003d46:	f013 0f01 	tst.w	r3, #1
 8003d4a:	d136      	bne.n	8003dba <HAL_RCCEx_PeriphCLKConfig+0xda>
            return HAL_TIMEOUT;
          }
        }
      }
    }
    __HAL_RCC_RTC_CONFIG(PeriphClkInit->RTCClockSelection);
 8003d4c:	4a28      	ldr	r2, [pc, #160]	; (8003df0 <HAL_RCCEx_PeriphCLKConfig+0x110>)
 8003d4e:	6a13      	ldr	r3, [r2, #32]
 8003d50:	f423 7340 	bic.w	r3, r3, #768	; 0x300
 8003d54:	6861      	ldr	r1, [r4, #4]
 8003d56:	430b      	orrs	r3, r1
 8003d58:	6213      	str	r3, [r2, #32]

    /* Require to disable power clock if necessary */
    if (pwrclkchanged == SET)
 8003d5a:	2d00      	cmp	r5, #0
 8003d5c:	d13e      	bne.n	8003ddc <HAL_RCCEx_PeriphCLKConfig+0xfc>
      __HAL_RCC_PWR_CLK_DISABLE();
    }
  }

  /*------------------------------ ADC clock Configuration ------------------*/
  if (((PeriphClkInit->PeriphClockSelection) & RCC_PERIPHCLK_ADC) == RCC_PERIPHCLK_ADC)
 8003d5e:	6823      	ldr	r3, [r4, #0]
 8003d60:	f013 0f02 	tst.w	r3, #2
 8003d64:	d006      	beq.n	8003d74 <HAL_RCCEx_PeriphCLKConfig+0x94>
  {
    /* Check the parameters */
    assert_param(IS_RCC_ADCPLLCLK_DIV(PeriphClkInit->AdcClockSelection));

    /* Configure the ADC clock source */
    __HAL_RCC_ADC_CONFIG(PeriphClkInit->AdcClockSelection);
 8003d66:	4a22      	ldr	r2, [pc, #136]	; (8003df0 <HAL_RCCEx_PeriphCLKConfig+0x110>)
 8003d68:	6853      	ldr	r3, [r2, #4]
 8003d6a:	f423 4340 	bic.w	r3, r3, #49152	; 0xc000
 8003d6e:	68a1      	ldr	r1, [r4, #8]
 8003d70:	430b      	orrs	r3, r1
 8003d72:	6053      	str	r3, [r2, #4]

#if defined(STM32F102x6) || defined(STM32F102xB) || defined(STM32F103x6)\
 || defined(STM32F103xB) || defined(STM32F103xE) || defined(STM32F103xG)\
 || defined(STM32F105xC) || defined(STM32F107xC)
  /*------------------------------ USB clock Configuration ------------------*/
  if (((PeriphClkInit->PeriphClockSelection) & RCC_PERIPHCLK_USB) == RCC_PERIPHCLK_USB)
 8003d74:	6823      	ldr	r3, [r4, #0]
 8003d76:	f013 0f10 	tst.w	r3, #16
 8003d7a:	d034      	beq.n	8003de6 <HAL_RCCEx_PeriphCLKConfig+0x106>
  {
    /* Check the parameters */
    assert_param(IS_RCC_USBPLLCLK_DIV(PeriphClkInit->UsbClockSelection));

    /* Configure the USB clock source */
    __HAL_RCC_USB_CONFIG(PeriphClkInit->UsbClockSelection);
 8003d7c:	4a1c      	ldr	r2, [pc, #112]	; (8003df0 <HAL_RCCEx_PeriphCLKConfig+0x110>)
 8003d7e:	6853      	ldr	r3, [r2, #4]
 8003d80:	f423 0380 	bic.w	r3, r3, #4194304	; 0x400000
 8003d84:	68e1      	ldr	r1, [r4, #12]
 8003d86:	430b      	orrs	r3, r1
 8003d88:	6053      	str	r3, [r2, #4]
  }
#endif /* STM32F102x6 || STM32F102xB || STM32F103x6 || STM32F103xB || STM32F103xE || STM32F103xG || STM32F105xC || STM32F107xC */

  return HAL_OK;
 8003d8a:	2000      	movs	r0, #0
 8003d8c:	e02c      	b.n	8003de8 <HAL_RCCEx_PeriphCLKConfig+0x108>
    FlagStatus pwrclkchanged = RESET;
 8003d8e:	2500      	movs	r5, #0
 8003d90:	e7be      	b.n	8003d10 <HAL_RCCEx_PeriphCLKConfig+0x30>
      SET_BIT(PWR->CR, PWR_CR_DBP);
 8003d92:	4a18      	ldr	r2, [pc, #96]	; (8003df4 <HAL_RCCEx_PeriphCLKConfig+0x114>)
 8003d94:	6813      	ldr	r3, [r2, #0]
 8003d96:	f443 7380 	orr.w	r3, r3, #256	; 0x100
 8003d9a:	6013      	str	r3, [r2, #0]
      tickstart = HAL_GetTick();
 8003d9c:	f7fe fc14 	bl	80025c8 <HAL_GetTick>
 8003da0:	4606      	mov	r6, r0
      while (HAL_IS_BIT_CLR(PWR->CR, PWR_CR_DBP))
 8003da2:	4f14      	ldr	r7, [pc, #80]	; (8003df4 <HAL_RCCEx_PeriphCLKConfig+0x114>)
 8003da4:	683b      	ldr	r3, [r7, #0]
 8003da6:	f413 7f80 	tst.w	r3, #256	; 0x100
 8003daa:	d1b6      	bne.n	8003d1a <HAL_RCCEx_PeriphCLKConfig+0x3a>
        if ((HAL_GetTick() - tickstart) > RCC_DBP_TIMEOUT_VALUE)
 8003dac:	f7fe fc0c 	bl	80025c8 <HAL_GetTick>
 8003db0:	1b80      	subs	r0, r0, r6
 8003db2:	2864      	cmp	r0, #100	; 0x64
 8003db4:	d9f6      	bls.n	8003da4 <HAL_RCCEx_PeriphCLKConfig+0xc4>
          return HAL_TIMEOUT;
 8003db6:	2003      	movs	r0, #3
 8003db8:	e016      	b.n	8003de8 <HAL_RCCEx_PeriphCLKConfig+0x108>
        tickstart = HAL_GetTick();
 8003dba:	f7fe fc05 	bl	80025c8 <HAL_GetTick>
 8003dbe:	4606      	mov	r6, r0
        while (__HAL_RCC_GET_FLAG(RCC_FLAG_LSERDY) == RESET)
 8003dc0:	4f0b      	ldr	r7, [pc, #44]	; (8003df0 <HAL_RCCEx_PeriphCLKConfig+0x110>)
          if ((HAL_GetTick() - tickstart) > RCC_LSE_TIMEOUT_VALUE)
 8003dc2:	f241 3888 	movw	r8, #5000	; 0x1388
        while (__HAL_RCC_GET_FLAG(RCC_FLAG_LSERDY) == RESET)
 8003dc6:	6a3b      	ldr	r3, [r7, #32]
 8003dc8:	f013 0f02 	tst.w	r3, #2
 8003dcc:	d1be      	bne.n	8003d4c <HAL_RCCEx_PeriphCLKConfig+0x6c>
          if ((HAL_GetTick() - tickstart) > RCC_LSE_TIMEOUT_VALUE)
 8003dce:	f7fe fbfb 	bl	80025c8 <HAL_GetTick>
 8003dd2:	1b80      	subs	r0, r0, r6
 8003dd4:	4540      	cmp	r0, r8
 8003dd6:	d9f6      	bls.n	8003dc6 <HAL_RCCEx_PeriphCLKConfig+0xe6>
            return HAL_TIMEOUT;
 8003dd8:	2003      	movs	r0, #3
 8003dda:	e005      	b.n	8003de8 <HAL_RCCEx_PeriphCLKConfig+0x108>
      __HAL_RCC_PWR_CLK_DISABLE();
 8003ddc:	69d3      	ldr	r3, [r2, #28]
 8003dde:	f023 5380 	bic.w	r3, r3, #268435456	; 0x10000000
 8003de2:	61d3      	str	r3, [r2, #28]
 8003de4:	e7bb      	b.n	8003d5e <HAL_RCCEx_PeriphCLKConfig+0x7e>
  return HAL_OK;
 8003de6:	2000      	movs	r0, #0
}
 8003de8:	b002      	add	sp, #8
 8003dea:	e8bd 81f0 	ldmia.w	sp!, {r4, r5, r6, r7, r8, pc}
 8003dee:	bf00      	nop
 8003df0:	40021000 	.word	0x40021000
 8003df4:	40007000 	.word	0x40007000
 8003df8:	42420000 	.word	0x42420000

08003dfc <HAL_RCCEx_GetPeriphCLKFreq>:
  *            @arg @ref RCC_PERIPHCLK_USB  USB peripheral clock
  @endif
  * @retval Frequency in Hz (0: means that no available frequency for the peripheral)
  */
uint32_t HAL_RCCEx_GetPeriphCLKFreq(uint32_t PeriphClk)
{
 8003dfc:	b508      	push	{r3, lr}
  uint32_t temp_reg = 0U, frequency = 0U;

  /* Check the parameters */
  assert_param(IS_RCC_PERIPHCLOCK(PeriphClk));

  switch (PeriphClk)
 8003dfe:	2802      	cmp	r0, #2
 8003e00:	d050      	beq.n	8003ea4 <HAL_RCCEx_GetPeriphCLKFreq+0xa8>
 8003e02:	2810      	cmp	r0, #16
 8003e04:	d003      	beq.n	8003e0e <HAL_RCCEx_GetPeriphCLKFreq+0x12>
 8003e06:	2801      	cmp	r0, #1
 8003e08:	d028      	beq.n	8003e5c <HAL_RCCEx_GetPeriphCLKFreq+0x60>
 8003e0a:	2000      	movs	r0, #0
    {
      break;
    }
  }
  return (frequency);
}
 8003e0c:	bd08      	pop	{r3, pc}
      temp_reg = RCC->CFGR;
 8003e0e:	4b2c      	ldr	r3, [pc, #176]	; (8003ec0 <HAL_RCCEx_GetPeriphCLKFreq+0xc4>)
 8003e10:	685a      	ldr	r2, [r3, #4]
      if (HAL_IS_BIT_SET(RCC->CR, RCC_CR_PLLON))
 8003e12:	6818      	ldr	r0, [r3, #0]
 8003e14:	f010 7080 	ands.w	r0, r0, #16777216	; 0x1000000
 8003e18:	d0f8      	beq.n	8003e0c <HAL_RCCEx_GetPeriphCLKFreq+0x10>
        pllmul = aPLLMULFactorTable[(uint32_t)(temp_reg & RCC_CFGR_PLLMULL) >> RCC_CFGR_PLLMULL_Pos];
 8003e1a:	f3c2 4383 	ubfx	r3, r2, #18, #4
 8003e1e:	4929      	ldr	r1, [pc, #164]	; (8003ec4 <HAL_RCCEx_GetPeriphCLKFreq+0xc8>)
 8003e20:	5cc8      	ldrb	r0, [r1, r3]
        if ((temp_reg & RCC_CFGR_PLLSRC) != RCC_PLLSOURCE_HSI_DIV2)
 8003e22:	f412 3f80 	tst.w	r2, #65536	; 0x10000
 8003e26:	d015      	beq.n	8003e54 <HAL_RCCEx_GetPeriphCLKFreq+0x58>
          prediv1 = aPredivFactorTable[(uint32_t)(RCC->CFGR & RCC_CFGR_PLLXTPRE) >> RCC_CFGR_PLLXTPRE_Pos];
 8003e28:	4b25      	ldr	r3, [pc, #148]	; (8003ec0 <HAL_RCCEx_GetPeriphCLKFreq+0xc4>)
 8003e2a:	685b      	ldr	r3, [r3, #4]
 8003e2c:	f3c3 4340 	ubfx	r3, r3, #17, #1
 8003e30:	4a25      	ldr	r2, [pc, #148]	; (8003ec8 <HAL_RCCEx_GetPeriphCLKFreq+0xcc>)
 8003e32:	5cd2      	ldrb	r2, [r2, r3]
            pllclk = (uint32_t)((HSE_VALUE / prediv1) * pllmul);
 8003e34:	4b25      	ldr	r3, [pc, #148]	; (8003ecc <HAL_RCCEx_GetPeriphCLKFreq+0xd0>)
 8003e36:	fbb3 f3f2 	udiv	r3, r3, r2
 8003e3a:	fb03 f000 	mul.w	r0, r3, r0
        if (__HAL_RCC_GET_USB_SOURCE() == RCC_USBCLKSOURCE_PLL)
 8003e3e:	4b20      	ldr	r3, [pc, #128]	; (8003ec0 <HAL_RCCEx_GetPeriphCLKFreq+0xc4>)
 8003e40:	685b      	ldr	r3, [r3, #4]
 8003e42:	f413 0f80 	tst.w	r3, #4194304	; 0x400000
 8003e46:	d1e1      	bne.n	8003e0c <HAL_RCCEx_GetPeriphCLKFreq+0x10>
          frequency = (pllclk * 2) / 3;
 8003e48:	0040      	lsls	r0, r0, #1
 8003e4a:	4b21      	ldr	r3, [pc, #132]	; (8003ed0 <HAL_RCCEx_GetPeriphCLKFreq+0xd4>)
 8003e4c:	fba3 3000 	umull	r3, r0, r3, r0
 8003e50:	0840      	lsrs	r0, r0, #1
 8003e52:	e7db      	b.n	8003e0c <HAL_RCCEx_GetPeriphCLKFreq+0x10>
          pllclk = (uint32_t)((HSI_VALUE >> 1) * pllmul);
 8003e54:	4b1f      	ldr	r3, [pc, #124]	; (8003ed4 <HAL_RCCEx_GetPeriphCLKFreq+0xd8>)
 8003e56:	fb03 f000 	mul.w	r0, r3, r0
 8003e5a:	e7f0      	b.n	8003e3e <HAL_RCCEx_GetPeriphCLKFreq+0x42>
      temp_reg = RCC->BDCR;
 8003e5c:	4b18      	ldr	r3, [pc, #96]	; (8003ec0 <HAL_RCCEx_GetPeriphCLKFreq+0xc4>)
 8003e5e:	6a1b      	ldr	r3, [r3, #32]
      if (((temp_reg & RCC_BDCR_RTCSEL) == RCC_RTCCLKSOURCE_LSE) && (HAL_IS_BIT_SET(temp_reg, RCC_BDCR_LSERDY)))
 8003e60:	f240 3202 	movw	r2, #770	; 0x302
 8003e64:	401a      	ands	r2, r3
 8003e66:	f5b2 7f81 	cmp.w	r2, #258	; 0x102
 8003e6a:	d026      	beq.n	8003eba <HAL_RCCEx_GetPeriphCLKFreq+0xbe>
      else if (((temp_reg & RCC_BDCR_RTCSEL) == RCC_RTCCLKSOURCE_LSI) && (HAL_IS_BIT_SET(RCC->CSR, RCC_CSR_LSIRDY)))
 8003e6c:	f403 7340 	and.w	r3, r3, #768	; 0x300
 8003e70:	f5b3 7f00 	cmp.w	r3, #512	; 0x200
 8003e74:	d004      	beq.n	8003e80 <HAL_RCCEx_GetPeriphCLKFreq+0x84>
      else if (((temp_reg & RCC_BDCR_RTCSEL) == RCC_RTCCLKSOURCE_HSE_DIV128) && (HAL_IS_BIT_SET(RCC->CR, RCC_CR_HSERDY)))
 8003e76:	f5b3 7f40 	cmp.w	r3, #768	; 0x300
 8003e7a:	d00a      	beq.n	8003e92 <HAL_RCCEx_GetPeriphCLKFreq+0x96>
  uint32_t temp_reg = 0U, frequency = 0U;
 8003e7c:	2000      	movs	r0, #0
  return (frequency);
 8003e7e:	e7c5      	b.n	8003e0c <HAL_RCCEx_GetPeriphCLKFreq+0x10>
      else if (((temp_reg & RCC_BDCR_RTCSEL) == RCC_RTCCLKSOURCE_LSI) && (HAL_IS_BIT_SET(RCC->CSR, RCC_CSR_LSIRDY)))
 8003e80:	4b0f      	ldr	r3, [pc, #60]	; (8003ec0 <HAL_RCCEx_GetPeriphCLKFreq+0xc4>)
 8003e82:	6a58      	ldr	r0, [r3, #36]	; 0x24
        frequency = LSI_VALUE;
 8003e84:	f010 0002 	ands.w	r0, r0, #2
 8003e88:	f649 4340 	movw	r3, #40000	; 0x9c40
 8003e8c:	bf18      	it	ne
 8003e8e:	4618      	movne	r0, r3
 8003e90:	e7bc      	b.n	8003e0c <HAL_RCCEx_GetPeriphCLKFreq+0x10>
      else if (((temp_reg & RCC_BDCR_RTCSEL) == RCC_RTCCLKSOURCE_HSE_DIV128) && (HAL_IS_BIT_SET(RCC->CR, RCC_CR_HSERDY)))
 8003e92:	4b0b      	ldr	r3, [pc, #44]	; (8003ec0 <HAL_RCCEx_GetPeriphCLKFreq+0xc4>)
 8003e94:	6818      	ldr	r0, [r3, #0]
        frequency = HSE_VALUE / 128U;
 8003e96:	f410 3000 	ands.w	r0, r0, #131072	; 0x20000
 8003e9a:	f24f 4324 	movw	r3, #62500	; 0xf424
 8003e9e:	bf18      	it	ne
 8003ea0:	4618      	movne	r0, r3
 8003ea2:	e7b3      	b.n	8003e0c <HAL_RCCEx_GetPeriphCLKFreq+0x10>
      frequency = HAL_RCC_GetPCLK2Freq() / (((__HAL_RCC_GET_ADC_SOURCE() >> RCC_CFGR_ADCPRE_Pos) + 1) * 2);
 8003ea4:	f7ff feee 	bl	8003c84 <HAL_RCC_GetPCLK2Freq>
 8003ea8:	4b05      	ldr	r3, [pc, #20]	; (8003ec0 <HAL_RCCEx_GetPeriphCLKFreq+0xc4>)
 8003eaa:	685b      	ldr	r3, [r3, #4]
 8003eac:	f3c3 3381 	ubfx	r3, r3, #14, #2
 8003eb0:	3301      	adds	r3, #1
 8003eb2:	005b      	lsls	r3, r3, #1
 8003eb4:	fbb0 f0f3 	udiv	r0, r0, r3
      break;
 8003eb8:	e7a8      	b.n	8003e0c <HAL_RCCEx_GetPeriphCLKFreq+0x10>
        frequency = LSE_VALUE;
 8003eba:	f44f 4000 	mov.w	r0, #32768	; 0x8000
 8003ebe:	e7a5      	b.n	8003e0c <HAL_RCCEx_GetPeriphCLKFreq+0x10>
 8003ec0:	40021000 	.word	0x40021000
 8003ec4:	08009790 	.word	0x08009790
 8003ec8:	080097a0 	.word	0x080097a0
 8003ecc:	007a1200 	.word	0x007a1200
 8003ed0:	aaaaaaab 	.word	0xaaaaaaab
 8003ed4:	003d0900 	.word	0x003d0900

08003ed8 <SPI_WaitFlagStateUntilTimeout>:
  * @param  Tickstart tick start value
  * @retval HAL status
  */
static HAL_StatusTypeDef SPI_WaitFlagStateUntilTimeout(SPI_HandleTypeDef *hspi, uint32_t Flag, FlagStatus State,
                                                       uint32_t Timeout, uint32_t Tickstart)
{
 8003ed8:	e92d 47f0 	stmdb	sp!, {r4, r5, r6, r7, r8, r9, sl, lr}
 8003edc:	b082      	sub	sp, #8
 8003ede:	4681      	mov	r9, r0
 8003ee0:	460f      	mov	r7, r1
 8003ee2:	4616      	mov	r6, r2
 8003ee4:	461d      	mov	r5, r3
  __IO uint32_t count;
  uint32_t tmp_timeout;
  uint32_t tmp_tickstart;

  /* Adjust Timeout value  in case of end of transfer */
  tmp_timeout   = Timeout - (HAL_GetTick() - Tickstart);
 8003ee6:	f7fe fb6f 	bl	80025c8 <HAL_GetTick>
 8003eea:	9b0a      	ldr	r3, [sp, #40]	; 0x28
 8003eec:	442b      	add	r3, r5
 8003eee:	eba3 0800 	sub.w	r8, r3, r0
  tmp_tickstart = HAL_GetTick();
 8003ef2:	f7fe fb69 	bl	80025c8 <HAL_GetTick>
 8003ef6:	4682      	mov	sl, r0

  /* Calculate Timeout based on a software loop to avoid blocking issue if Systick is disabled */
  count = tmp_timeout * ((SystemCoreClock * 32U) >> 20U);
 8003ef8:	4b2c      	ldr	r3, [pc, #176]	; (8003fac <SPI_WaitFlagStateUntilTimeout+0xd4>)
 8003efa:	681b      	ldr	r3, [r3, #0]
 8003efc:	f3c3 33cb 	ubfx	r3, r3, #15, #12
 8003f00:	fb08 f303 	mul.w	r3, r8, r3
 8003f04:	9301      	str	r3, [sp, #4]

  while ((__HAL_SPI_GET_FLAG(hspi, Flag) ? SET : RESET) != State)
 8003f06:	f8d9 2000 	ldr.w	r2, [r9]
 8003f0a:	6894      	ldr	r4, [r2, #8]
 8003f0c:	ea37 0404 	bics.w	r4, r7, r4
 8003f10:	bf0c      	ite	eq
 8003f12:	2301      	moveq	r3, #1
 8003f14:	2300      	movne	r3, #0
 8003f16:	42b3      	cmp	r3, r6
 8003f18:	d044      	beq.n	8003fa4 <SPI_WaitFlagStateUntilTimeout+0xcc>
  {
    if (Timeout != HAL_MAX_DELAY)
 8003f1a:	f1b5 3fff 	cmp.w	r5, #4294967295
 8003f1e:	d0f4      	beq.n	8003f0a <SPI_WaitFlagStateUntilTimeout+0x32>
    {
      if (((HAL_GetTick() - tmp_tickstart) >= tmp_timeout) || (tmp_timeout == 0U))
 8003f20:	f7fe fb52 	bl	80025c8 <HAL_GetTick>
 8003f24:	eba0 000a 	sub.w	r0, r0, sl
 8003f28:	4540      	cmp	r0, r8
 8003f2a:	d207      	bcs.n	8003f3c <SPI_WaitFlagStateUntilTimeout+0x64>
        __HAL_UNLOCK(hspi);

        return HAL_TIMEOUT;
      }
      /* If Systick is disabled or not incremented, deactivate timeout to go in disable loop procedure */
      if (count == 0U)
 8003f2c:	9b01      	ldr	r3, [sp, #4]
      {
        tmp_timeout = 0U;
 8003f2e:	2b00      	cmp	r3, #0
 8003f30:	bf08      	it	eq
 8003f32:	4698      	moveq	r8, r3
      }
      count--;
 8003f34:	9b01      	ldr	r3, [sp, #4]
 8003f36:	3b01      	subs	r3, #1
 8003f38:	9301      	str	r3, [sp, #4]
 8003f3a:	e7e4      	b.n	8003f06 <SPI_WaitFlagStateUntilTimeout+0x2e>
        __HAL_SPI_DISABLE_IT(hspi, (SPI_IT_TXE | SPI_IT_RXNE | SPI_IT_ERR));
 8003f3c:	f8d9 2000 	ldr.w	r2, [r9]
 8003f40:	6853      	ldr	r3, [r2, #4]
 8003f42:	f023 03e0 	bic.w	r3, r3, #224	; 0xe0
 8003f46:	6053      	str	r3, [r2, #4]
        if ((hspi->Init.Mode == SPI_MODE_MASTER) && ((hspi->Init.Direction == SPI_DIRECTION_1LINE)
 8003f48:	f8d9 3004 	ldr.w	r3, [r9, #4]
 8003f4c:	f5b3 7f82 	cmp.w	r3, #260	; 0x104
 8003f50:	d00c      	beq.n	8003f6c <SPI_WaitFlagStateUntilTimeout+0x94>
        if (hspi->Init.CRCCalculation == SPI_CRCCALCULATION_ENABLE)
 8003f52:	f8d9 3028 	ldr.w	r3, [r9, #40]	; 0x28
 8003f56:	f5b3 5f00 	cmp.w	r3, #8192	; 0x2000
 8003f5a:	d016      	beq.n	8003f8a <SPI_WaitFlagStateUntilTimeout+0xb2>
        hspi->State = HAL_SPI_STATE_READY;
 8003f5c:	2301      	movs	r3, #1
 8003f5e:	f889 3051 	strb.w	r3, [r9, #81]	; 0x51
        __HAL_UNLOCK(hspi);
 8003f62:	2300      	movs	r3, #0
 8003f64:	f889 3050 	strb.w	r3, [r9, #80]	; 0x50
        return HAL_TIMEOUT;
 8003f68:	2003      	movs	r0, #3
 8003f6a:	e01c      	b.n	8003fa6 <SPI_WaitFlagStateUntilTimeout+0xce>
        if ((hspi->Init.Mode == SPI_MODE_MASTER) && ((hspi->Init.Direction == SPI_DIRECTION_1LINE)
 8003f6c:	f8d9 3008 	ldr.w	r3, [r9, #8]
 8003f70:	f5b3 4f00 	cmp.w	r3, #32768	; 0x8000
 8003f74:	d002      	beq.n	8003f7c <SPI_WaitFlagStateUntilTimeout+0xa4>
                                                     || (hspi->Init.Direction == SPI_DIRECTION_2LINES_RXONLY)))
 8003f76:	f5b3 6f80 	cmp.w	r3, #1024	; 0x400
 8003f7a:	d1ea      	bne.n	8003f52 <SPI_WaitFlagStateUntilTimeout+0x7a>
          __HAL_SPI_DISABLE(hspi);
 8003f7c:	f8d9 2000 	ldr.w	r2, [r9]
 8003f80:	6813      	ldr	r3, [r2, #0]
 8003f82:	f023 0340 	bic.w	r3, r3, #64	; 0x40
 8003f86:	6013      	str	r3, [r2, #0]
 8003f88:	e7e3      	b.n	8003f52 <SPI_WaitFlagStateUntilTimeout+0x7a>
          SPI_RESET_CRC(hspi);
 8003f8a:	f8d9 2000 	ldr.w	r2, [r9]
 8003f8e:	6813      	ldr	r3, [r2, #0]
 8003f90:	f423 5300 	bic.w	r3, r3, #8192	; 0x2000
 8003f94:	6013      	str	r3, [r2, #0]
 8003f96:	f8d9 2000 	ldr.w	r2, [r9]
 8003f9a:	6813      	ldr	r3, [r2, #0]
 8003f9c:	f443 5300 	orr.w	r3, r3, #8192	; 0x2000
 8003fa0:	6013      	str	r3, [r2, #0]
 8003fa2:	e7db      	b.n	8003f5c <SPI_WaitFlagStateUntilTimeout+0x84>
    }
  }

  return HAL_OK;
 8003fa4:	2000      	movs	r0, #0
}
 8003fa6:	b002      	add	sp, #8
 8003fa8:	e8bd 87f0 	ldmia.w	sp!, {r4, r5, r6, r7, r8, r9, sl, pc}
 8003fac:	20000628 	.word	0x20000628

08003fb0 <SPI_EndRxTxTransaction>:
  * @param  Timeout Timeout duration
  * @param  Tickstart tick start value
  * @retval HAL status
  */
static HAL_StatusTypeDef SPI_EndRxTxTransaction(SPI_HandleTypeDef *hspi, uint32_t Timeout, uint32_t Tickstart)
{
 8003fb0:	b510      	push	{r4, lr}
 8003fb2:	b082      	sub	sp, #8
 8003fb4:	4604      	mov	r4, r0
 8003fb6:	460b      	mov	r3, r1
  /* Control the BSY flag */
  if (SPI_WaitFlagStateUntilTimeout(hspi, SPI_FLAG_BSY, RESET, Timeout, Tickstart) != HAL_OK)
 8003fb8:	9200      	str	r2, [sp, #0]
 8003fba:	2200      	movs	r2, #0
 8003fbc:	2180      	movs	r1, #128	; 0x80
 8003fbe:	f7ff ff8b 	bl	8003ed8 <SPI_WaitFlagStateUntilTimeout>
 8003fc2:	b908      	cbnz	r0, 8003fc8 <SPI_EndRxTxTransaction+0x18>
  {
    SET_BIT(hspi->ErrorCode, HAL_SPI_ERROR_FLAG);
    return HAL_TIMEOUT;
  }
  return HAL_OK;
}
 8003fc4:	b002      	add	sp, #8
 8003fc6:	bd10      	pop	{r4, pc}
    SET_BIT(hspi->ErrorCode, HAL_SPI_ERROR_FLAG);
 8003fc8:	6d63      	ldr	r3, [r4, #84]	; 0x54
 8003fca:	f043 0320 	orr.w	r3, r3, #32
 8003fce:	6563      	str	r3, [r4, #84]	; 0x54
    return HAL_TIMEOUT;
 8003fd0:	2003      	movs	r0, #3
 8003fd2:	e7f7      	b.n	8003fc4 <SPI_EndRxTxTransaction+0x14>

08003fd4 <SPI_EndRxTransaction>:
{
 8003fd4:	b510      	push	{r4, lr}
 8003fd6:	b082      	sub	sp, #8
 8003fd8:	4604      	mov	r4, r0
 8003fda:	460b      	mov	r3, r1
  if ((hspi->Init.Mode == SPI_MODE_MASTER) && ((hspi->Init.Direction == SPI_DIRECTION_1LINE)
 8003fdc:	6841      	ldr	r1, [r0, #4]
 8003fde:	f5b1 7f82 	cmp.w	r1, #260	; 0x104
 8003fe2:	d008      	beq.n	8003ff6 <SPI_EndRxTransaction+0x22>
    if (SPI_WaitFlagStateUntilTimeout(hspi, SPI_FLAG_BSY, RESET, Timeout, Tickstart) != HAL_OK)
 8003fe4:	9200      	str	r2, [sp, #0]
 8003fe6:	2200      	movs	r2, #0
 8003fe8:	2180      	movs	r1, #128	; 0x80
 8003fea:	4620      	mov	r0, r4
 8003fec:	f7ff ff74 	bl	8003ed8 <SPI_WaitFlagStateUntilTimeout>
 8003ff0:	bb18      	cbnz	r0, 800403a <SPI_EndRxTransaction+0x66>
}
 8003ff2:	b002      	add	sp, #8
 8003ff4:	bd10      	pop	{r4, pc}
  if ((hspi->Init.Mode == SPI_MODE_MASTER) && ((hspi->Init.Direction == SPI_DIRECTION_1LINE)
 8003ff6:	6881      	ldr	r1, [r0, #8]
 8003ff8:	f5b1 4f00 	cmp.w	r1, #32768	; 0x8000
 8003ffc:	d002      	beq.n	8004004 <SPI_EndRxTransaction+0x30>
                                               || (hspi->Init.Direction == SPI_DIRECTION_2LINES_RXONLY)))
 8003ffe:	f5b1 6f80 	cmp.w	r1, #1024	; 0x400
 8004002:	d1ef      	bne.n	8003fe4 <SPI_EndRxTransaction+0x10>
    __HAL_SPI_DISABLE(hspi);
 8004004:	6820      	ldr	r0, [r4, #0]
 8004006:	6801      	ldr	r1, [r0, #0]
 8004008:	f021 0140 	bic.w	r1, r1, #64	; 0x40
 800400c:	6001      	str	r1, [r0, #0]
  if ((hspi->Init.Mode == SPI_MODE_MASTER) && (hspi->Init.Direction == SPI_DIRECTION_2LINES_RXONLY))
 800400e:	6861      	ldr	r1, [r4, #4]
 8004010:	f5b1 7f82 	cmp.w	r1, #260	; 0x104
 8004014:	d1e6      	bne.n	8003fe4 <SPI_EndRxTransaction+0x10>
 8004016:	68a1      	ldr	r1, [r4, #8]
 8004018:	f5b1 6f80 	cmp.w	r1, #1024	; 0x400
 800401c:	d1e2      	bne.n	8003fe4 <SPI_EndRxTransaction+0x10>
    if (SPI_WaitFlagStateUntilTimeout(hspi, SPI_FLAG_RXNE, RESET, Timeout, Tickstart) != HAL_OK)
 800401e:	9200      	str	r2, [sp, #0]
 8004020:	2200      	movs	r2, #0
 8004022:	2101      	movs	r1, #1
 8004024:	4620      	mov	r0, r4
 8004026:	f7ff ff57 	bl	8003ed8 <SPI_WaitFlagStateUntilTimeout>
 800402a:	2800      	cmp	r0, #0
 800402c:	d0e1      	beq.n	8003ff2 <SPI_EndRxTransaction+0x1e>
      SET_BIT(hspi->ErrorCode, HAL_SPI_ERROR_FLAG);
 800402e:	6d63      	ldr	r3, [r4, #84]	; 0x54
 8004030:	f043 0320 	orr.w	r3, r3, #32
 8004034:	6563      	str	r3, [r4, #84]	; 0x54
      return HAL_TIMEOUT;
 8004036:	2003      	movs	r0, #3
 8004038:	e7db      	b.n	8003ff2 <SPI_EndRxTransaction+0x1e>
      SET_BIT(hspi->ErrorCode, HAL_SPI_ERROR_FLAG);
 800403a:	6d63      	ldr	r3, [r4, #84]	; 0x54
 800403c:	f043 0320 	orr.w	r3, r3, #32
 8004040:	6563      	str	r3, [r4, #84]	; 0x54
      return HAL_TIMEOUT;
 8004042:	2003      	movs	r0, #3
 8004044:	e7d5      	b.n	8003ff2 <SPI_EndRxTransaction+0x1e>

08004046 <HAL_SPI_Init>:
  if (hspi == NULL)
 8004046:	2800      	cmp	r0, #0
 8004048:	d056      	beq.n	80040f8 <HAL_SPI_Init+0xb2>
{
 800404a:	b510      	push	{r4, lr}
 800404c:	4604      	mov	r4, r0
  if (hspi->Init.TIMode == SPI_TIMODE_DISABLE)
 800404e:	6a43      	ldr	r3, [r0, #36]	; 0x24
 8004050:	b933      	cbnz	r3, 8004060 <HAL_SPI_Init+0x1a>
    if (hspi->Init.Mode == SPI_MODE_MASTER)
 8004052:	6843      	ldr	r3, [r0, #4]
 8004054:	f5b3 7f82 	cmp.w	r3, #260	; 0x104
 8004058:	d005      	beq.n	8004066 <HAL_SPI_Init+0x20>
      hspi->Init.BaudRatePrescaler = SPI_BAUDRATEPRESCALER_2;
 800405a:	2300      	movs	r3, #0
 800405c:	61c3      	str	r3, [r0, #28]
 800405e:	e002      	b.n	8004066 <HAL_SPI_Init+0x20>
    hspi->Init.CLKPolarity = SPI_POLARITY_LOW;
 8004060:	2300      	movs	r3, #0
 8004062:	6103      	str	r3, [r0, #16]
    hspi->Init.CLKPhase    = SPI_PHASE_1EDGE;
 8004064:	6143      	str	r3, [r0, #20]
  hspi->Init.CRCCalculation = SPI_CRCCALCULATION_DISABLE;
 8004066:	2300      	movs	r3, #0
 8004068:	62a3      	str	r3, [r4, #40]	; 0x28
  if (hspi->State == HAL_SPI_STATE_RESET)
 800406a:	f894 3051 	ldrb.w	r3, [r4, #81]	; 0x51
 800406e:	2b00      	cmp	r3, #0
 8004070:	d03c      	beq.n	80040ec <HAL_SPI_Init+0xa6>
  hspi->State = HAL_SPI_STATE_BUSY;
 8004072:	2302      	movs	r3, #2
 8004074:	f884 3051 	strb.w	r3, [r4, #81]	; 0x51
  __HAL_SPI_DISABLE(hspi);
 8004078:	6822      	ldr	r2, [r4, #0]
 800407a:	6813      	ldr	r3, [r2, #0]
 800407c:	f023 0340 	bic.w	r3, r3, #64	; 0x40
 8004080:	6013      	str	r3, [r2, #0]
  WRITE_REG(hspi->Instance->CR1, ((hspi->Init.Mode & (SPI_CR1_MSTR | SPI_CR1_SSI)) |
 8004082:	6822      	ldr	r2, [r4, #0]
 8004084:	6863      	ldr	r3, [r4, #4]
 8004086:	f403 7382 	and.w	r3, r3, #260	; 0x104
 800408a:	68a1      	ldr	r1, [r4, #8]
 800408c:	f401 4104 	and.w	r1, r1, #33792	; 0x8400
 8004090:	430b      	orrs	r3, r1
 8004092:	68e1      	ldr	r1, [r4, #12]
 8004094:	f401 6100 	and.w	r1, r1, #2048	; 0x800
 8004098:	430b      	orrs	r3, r1
 800409a:	6921      	ldr	r1, [r4, #16]
 800409c:	f001 0102 	and.w	r1, r1, #2
 80040a0:	430b      	orrs	r3, r1
 80040a2:	6961      	ldr	r1, [r4, #20]
 80040a4:	f001 0101 	and.w	r1, r1, #1
 80040a8:	430b      	orrs	r3, r1
 80040aa:	69a1      	ldr	r1, [r4, #24]
 80040ac:	f401 7100 	and.w	r1, r1, #512	; 0x200
 80040b0:	430b      	orrs	r3, r1
 80040b2:	69e1      	ldr	r1, [r4, #28]
 80040b4:	f001 0138 	and.w	r1, r1, #56	; 0x38
 80040b8:	430b      	orrs	r3, r1
 80040ba:	6a21      	ldr	r1, [r4, #32]
 80040bc:	f001 0180 	and.w	r1, r1, #128	; 0x80
 80040c0:	430b      	orrs	r3, r1
 80040c2:	6aa1      	ldr	r1, [r4, #40]	; 0x28
 80040c4:	f401 5100 	and.w	r1, r1, #8192	; 0x2000
 80040c8:	430b      	orrs	r3, r1
 80040ca:	6013      	str	r3, [r2, #0]
  WRITE_REG(hspi->Instance->CR2, ((hspi->Init.NSS >> 16U) & SPI_CR2_SSOE));
 80040cc:	6822      	ldr	r2, [r4, #0]
 80040ce:	8b63      	ldrh	r3, [r4, #26]
 80040d0:	f003 0304 	and.w	r3, r3, #4
 80040d4:	6053      	str	r3, [r2, #4]
  CLEAR_BIT(hspi->Instance->I2SCFGR, SPI_I2SCFGR_I2SMOD);
 80040d6:	6822      	ldr	r2, [r4, #0]
 80040d8:	69d3      	ldr	r3, [r2, #28]
 80040da:	f423 6300 	bic.w	r3, r3, #2048	; 0x800
 80040de:	61d3      	str	r3, [r2, #28]
  hspi->ErrorCode = HAL_SPI_ERROR_NONE;
 80040e0:	2000      	movs	r0, #0
 80040e2:	6560      	str	r0, [r4, #84]	; 0x54
  hspi->State     = HAL_SPI_STATE_READY;
 80040e4:	2301      	movs	r3, #1
 80040e6:	f884 3051 	strb.w	r3, [r4, #81]	; 0x51
}
 80040ea:	bd10      	pop	{r4, pc}
    hspi->Lock = HAL_UNLOCKED;
 80040ec:	f884 3050 	strb.w	r3, [r4, #80]	; 0x50
    HAL_SPI_MspInit(hspi);
 80040f0:	4620      	mov	r0, r4
 80040f2:	f7fe f8cd 	bl	8002290 <HAL_SPI_MspInit>
 80040f6:	e7bc      	b.n	8004072 <HAL_SPI_Init+0x2c>
    return HAL_ERROR;
 80040f8:	2001      	movs	r0, #1
}
 80040fa:	4770      	bx	lr

080040fc <HAL_SPI_Transmit>:
{
 80040fc:	e92d 43f0 	stmdb	sp!, {r4, r5, r6, r7, r8, r9, lr}
 8004100:	b083      	sub	sp, #12
 8004102:	461d      	mov	r5, r3
  __HAL_LOCK(hspi);
 8004104:	f890 3050 	ldrb.w	r3, [r0, #80]	; 0x50
 8004108:	2b01      	cmp	r3, #1
 800410a:	f000 80d6 	beq.w	80042ba <HAL_SPI_Transmit+0x1be>
 800410e:	4604      	mov	r4, r0
 8004110:	4688      	mov	r8, r1
 8004112:	4691      	mov	r9, r2
 8004114:	2301      	movs	r3, #1
 8004116:	f880 3050 	strb.w	r3, [r0, #80]	; 0x50
  tickstart = HAL_GetTick();
 800411a:	f7fe fa55 	bl	80025c8 <HAL_GetTick>
 800411e:	4607      	mov	r7, r0
  if (hspi->State != HAL_SPI_STATE_READY)
 8004120:	f894 6051 	ldrb.w	r6, [r4, #81]	; 0x51
 8004124:	b2f6      	uxtb	r6, r6
 8004126:	2e01      	cmp	r6, #1
 8004128:	f040 80bf 	bne.w	80042aa <HAL_SPI_Transmit+0x1ae>
  if ((pData == NULL) || (Size == 0U))
 800412c:	f1b8 0f00 	cmp.w	r8, #0
 8004130:	f000 80bc 	beq.w	80042ac <HAL_SPI_Transmit+0x1b0>
 8004134:	f1b9 0f00 	cmp.w	r9, #0
 8004138:	f000 80b8 	beq.w	80042ac <HAL_SPI_Transmit+0x1b0>
  hspi->State       = HAL_SPI_STATE_BUSY_TX;
 800413c:	2303      	movs	r3, #3
 800413e:	f884 3051 	strb.w	r3, [r4, #81]	; 0x51
  hspi->ErrorCode   = HAL_SPI_ERROR_NONE;
 8004142:	2300      	movs	r3, #0
 8004144:	6563      	str	r3, [r4, #84]	; 0x54
  hspi->pTxBuffPtr  = (uint8_t *)pData;
 8004146:	f8c4 8030 	str.w	r8, [r4, #48]	; 0x30
  hspi->TxXferSize  = Size;
 800414a:	f8a4 9034 	strh.w	r9, [r4, #52]	; 0x34
  hspi->TxXferCount = Size;
 800414e:	f8a4 9036 	strh.w	r9, [r4, #54]	; 0x36
  hspi->pRxBuffPtr  = (uint8_t *)NULL;
 8004152:	63a3      	str	r3, [r4, #56]	; 0x38
  hspi->RxXferSize  = 0U;
 8004154:	87a3      	strh	r3, [r4, #60]	; 0x3c
  hspi->RxXferCount = 0U;
 8004156:	87e3      	strh	r3, [r4, #62]	; 0x3e
  hspi->TxISR       = NULL;
 8004158:	6463      	str	r3, [r4, #68]	; 0x44
  hspi->RxISR       = NULL;
 800415a:	6423      	str	r3, [r4, #64]	; 0x40
  if (hspi->Init.Direction == SPI_DIRECTION_1LINE)
 800415c:	68a3      	ldr	r3, [r4, #8]
 800415e:	f5b3 4f00 	cmp.w	r3, #32768	; 0x8000
 8004162:	d039      	beq.n	80041d8 <HAL_SPI_Transmit+0xdc>
  if ((hspi->Instance->CR1 & SPI_CR1_SPE) != SPI_CR1_SPE)
 8004164:	6823      	ldr	r3, [r4, #0]
 8004166:	681a      	ldr	r2, [r3, #0]
 8004168:	f012 0f40 	tst.w	r2, #64	; 0x40
 800416c:	d103      	bne.n	8004176 <HAL_SPI_Transmit+0x7a>
    __HAL_SPI_ENABLE(hspi);
 800416e:	681a      	ldr	r2, [r3, #0]
 8004170:	f042 0240 	orr.w	r2, r2, #64	; 0x40
 8004174:	601a      	str	r2, [r3, #0]
  if (hspi->Init.DataSize == SPI_DATASIZE_16BIT)
 8004176:	68e3      	ldr	r3, [r4, #12]
 8004178:	f5b3 6f00 	cmp.w	r3, #2048	; 0x800
 800417c:	d037      	beq.n	80041ee <HAL_SPI_Transmit+0xf2>
    if ((hspi->Init.Mode == SPI_MODE_SLAVE) || (initial_TxXferCount == 0x01U))
 800417e:	6863      	ldr	r3, [r4, #4]
 8004180:	b113      	cbz	r3, 8004188 <HAL_SPI_Transmit+0x8c>
 8004182:	f1b9 0f01 	cmp.w	r9, #1
 8004186:	d10a      	bne.n	800419e <HAL_SPI_Transmit+0xa2>
      *((__IO uint8_t *)&hspi->Instance->DR) = (*hspi->pTxBuffPtr);
 8004188:	6823      	ldr	r3, [r4, #0]
 800418a:	6b22      	ldr	r2, [r4, #48]	; 0x30
 800418c:	7812      	ldrb	r2, [r2, #0]
 800418e:	731a      	strb	r2, [r3, #12]
      hspi->pTxBuffPtr += sizeof(uint8_t);
 8004190:	6b23      	ldr	r3, [r4, #48]	; 0x30
 8004192:	3301      	adds	r3, #1
 8004194:	6323      	str	r3, [r4, #48]	; 0x30
      hspi->TxXferCount--;
 8004196:	8ee3      	ldrh	r3, [r4, #54]	; 0x36
 8004198:	3b01      	subs	r3, #1
 800419a:	b29b      	uxth	r3, r3
 800419c:	86e3      	strh	r3, [r4, #54]	; 0x36
    while (hspi->TxXferCount > 0U)
 800419e:	8ee3      	ldrh	r3, [r4, #54]	; 0x36
 80041a0:	b29b      	uxth	r3, r3
 80041a2:	2b00      	cmp	r3, #0
 80041a4:	d166      	bne.n	8004274 <HAL_SPI_Transmit+0x178>
  if (SPI_EndRxTxTransaction(hspi, Timeout, tickstart) != HAL_OK)
 80041a6:	463a      	mov	r2, r7
 80041a8:	4629      	mov	r1, r5
 80041aa:	4620      	mov	r0, r4
 80041ac:	f7ff ff00 	bl	8003fb0 <SPI_EndRxTxTransaction>
 80041b0:	b108      	cbz	r0, 80041b6 <HAL_SPI_Transmit+0xba>
    hspi->ErrorCode = HAL_SPI_ERROR_FLAG;
 80041b2:	2320      	movs	r3, #32
 80041b4:	6563      	str	r3, [r4, #84]	; 0x54
  if (hspi->Init.Direction == SPI_DIRECTION_2LINES)
 80041b6:	68a3      	ldr	r3, [r4, #8]
 80041b8:	b933      	cbnz	r3, 80041c8 <HAL_SPI_Transmit+0xcc>
    __HAL_SPI_CLEAR_OVRFLAG(hspi);
 80041ba:	9301      	str	r3, [sp, #4]
 80041bc:	6823      	ldr	r3, [r4, #0]
 80041be:	68da      	ldr	r2, [r3, #12]
 80041c0:	9201      	str	r2, [sp, #4]
 80041c2:	689b      	ldr	r3, [r3, #8]
 80041c4:	9301      	str	r3, [sp, #4]
 80041c6:	9b01      	ldr	r3, [sp, #4]
  if (hspi->ErrorCode != HAL_SPI_ERROR_NONE)
 80041c8:	6d63      	ldr	r3, [r4, #84]	; 0x54
 80041ca:	2b00      	cmp	r3, #0
 80041cc:	d16e      	bne.n	80042ac <HAL_SPI_Transmit+0x1b0>
    hspi->State = HAL_SPI_STATE_READY;
 80041ce:	2301      	movs	r3, #1
 80041d0:	f884 3051 	strb.w	r3, [r4, #81]	; 0x51
  HAL_StatusTypeDef errorcode = HAL_OK;
 80041d4:	2600      	movs	r6, #0
 80041d6:	e069      	b.n	80042ac <HAL_SPI_Transmit+0x1b0>
    __HAL_SPI_DISABLE(hspi);
 80041d8:	6822      	ldr	r2, [r4, #0]
 80041da:	6813      	ldr	r3, [r2, #0]
 80041dc:	f023 0340 	bic.w	r3, r3, #64	; 0x40
 80041e0:	6013      	str	r3, [r2, #0]
    SPI_1LINE_TX(hspi);
 80041e2:	6822      	ldr	r2, [r4, #0]
 80041e4:	6813      	ldr	r3, [r2, #0]
 80041e6:	f443 4380 	orr.w	r3, r3, #16384	; 0x4000
 80041ea:	6013      	str	r3, [r2, #0]
 80041ec:	e7ba      	b.n	8004164 <HAL_SPI_Transmit+0x68>
    if ((hspi->Init.Mode == SPI_MODE_SLAVE) || (initial_TxXferCount == 0x01U))
 80041ee:	6863      	ldr	r3, [r4, #4]
 80041f0:	b113      	cbz	r3, 80041f8 <HAL_SPI_Transmit+0xfc>
 80041f2:	f1b9 0f01 	cmp.w	r9, #1
 80041f6:	d10a      	bne.n	800420e <HAL_SPI_Transmit+0x112>
      hspi->Instance->DR = *((uint16_t *)hspi->pTxBuffPtr);
 80041f8:	6823      	ldr	r3, [r4, #0]
 80041fa:	6b22      	ldr	r2, [r4, #48]	; 0x30
 80041fc:	8812      	ldrh	r2, [r2, #0]
 80041fe:	60da      	str	r2, [r3, #12]
      hspi->pTxBuffPtr += sizeof(uint16_t);
 8004200:	6b23      	ldr	r3, [r4, #48]	; 0x30
 8004202:	3302      	adds	r3, #2
 8004204:	6323      	str	r3, [r4, #48]	; 0x30
      hspi->TxXferCount--;
 8004206:	8ee3      	ldrh	r3, [r4, #54]	; 0x36
 8004208:	3b01      	subs	r3, #1
 800420a:	b29b      	uxth	r3, r3
 800420c:	86e3      	strh	r3, [r4, #54]	; 0x36
    while (hspi->TxXferCount > 0U)
 800420e:	8ee3      	ldrh	r3, [r4, #54]	; 0x36
 8004210:	b29b      	uxth	r3, r3
 8004212:	b963      	cbnz	r3, 800422e <HAL_SPI_Transmit+0x132>
 8004214:	e7c7      	b.n	80041a6 <HAL_SPI_Transmit+0xaa>
        if ((((HAL_GetTick() - tickstart) >=  Timeout) && (Timeout != HAL_MAX_DELAY)) || (Timeout == 0U))
 8004216:	f7fe f9d7 	bl	80025c8 <HAL_GetTick>
 800421a:	1bc0      	subs	r0, r0, r7
 800421c:	42a8      	cmp	r0, r5
 800421e:	d316      	bcc.n	800424e <HAL_SPI_Transmit+0x152>
 8004220:	f1b5 3fff 	cmp.w	r5, #4294967295
 8004224:	d115      	bne.n	8004252 <HAL_SPI_Transmit+0x156>
    while (hspi->TxXferCount > 0U)
 8004226:	8ee3      	ldrh	r3, [r4, #54]	; 0x36
 8004228:	b29b      	uxth	r3, r3
 800422a:	2b00      	cmp	r3, #0
 800422c:	d0bb      	beq.n	80041a6 <HAL_SPI_Transmit+0xaa>
      if (__HAL_SPI_GET_FLAG(hspi, SPI_FLAG_TXE))
 800422e:	6823      	ldr	r3, [r4, #0]
 8004230:	689a      	ldr	r2, [r3, #8]
 8004232:	f012 0f02 	tst.w	r2, #2
 8004236:	d0ee      	beq.n	8004216 <HAL_SPI_Transmit+0x11a>
        hspi->Instance->DR = *((uint16_t *)hspi->pTxBuffPtr);
 8004238:	6b22      	ldr	r2, [r4, #48]	; 0x30
 800423a:	8812      	ldrh	r2, [r2, #0]
 800423c:	60da      	str	r2, [r3, #12]
        hspi->pTxBuffPtr += sizeof(uint16_t);
 800423e:	6b23      	ldr	r3, [r4, #48]	; 0x30
 8004240:	3302      	adds	r3, #2
 8004242:	6323      	str	r3, [r4, #48]	; 0x30
        hspi->TxXferCount--;
 8004244:	8ee3      	ldrh	r3, [r4, #54]	; 0x36
 8004246:	3b01      	subs	r3, #1
 8004248:	b29b      	uxth	r3, r3
 800424a:	86e3      	strh	r3, [r4, #54]	; 0x36
 800424c:	e7eb      	b.n	8004226 <HAL_SPI_Transmit+0x12a>
        if ((((HAL_GetTick() - tickstart) >=  Timeout) && (Timeout != HAL_MAX_DELAY)) || (Timeout == 0U))
 800424e:	2d00      	cmp	r5, #0
 8004250:	d1e9      	bne.n	8004226 <HAL_SPI_Transmit+0x12a>
          hspi->State = HAL_SPI_STATE_READY;
 8004252:	2301      	movs	r3, #1
 8004254:	f884 3051 	strb.w	r3, [r4, #81]	; 0x51
          errorcode = HAL_TIMEOUT;
 8004258:	2603      	movs	r6, #3
          goto error;
 800425a:	e027      	b.n	80042ac <HAL_SPI_Transmit+0x1b0>
        if ((((HAL_GetTick() - tickstart) >=  Timeout) && (Timeout != HAL_MAX_DELAY)) || (Timeout == 0U))
 800425c:	f7fe f9b4 	bl	80025c8 <HAL_GetTick>
 8004260:	1bc0      	subs	r0, r0, r7
 8004262:	42a8      	cmp	r0, r5
 8004264:	d31a      	bcc.n	800429c <HAL_SPI_Transmit+0x1a0>
 8004266:	f1b5 3fff 	cmp.w	r5, #4294967295
 800426a:	d119      	bne.n	80042a0 <HAL_SPI_Transmit+0x1a4>
    while (hspi->TxXferCount > 0U)
 800426c:	8ee1      	ldrh	r1, [r4, #54]	; 0x36
 800426e:	b289      	uxth	r1, r1
 8004270:	2900      	cmp	r1, #0
 8004272:	d098      	beq.n	80041a6 <HAL_SPI_Transmit+0xaa>
      if (__HAL_SPI_GET_FLAG(hspi, SPI_FLAG_TXE))
 8004274:	6823      	ldr	r3, [r4, #0]
 8004276:	689a      	ldr	r2, [r3, #8]
 8004278:	f012 0f02 	tst.w	r2, #2
 800427c:	d0ee      	beq.n	800425c <HAL_SPI_Transmit+0x160>
        *((__IO uint8_t *)&hspi->Instance->DR) = (*hspi->pTxBuffPtr);
 800427e:	6b22      	ldr	r2, [r4, #48]	; 0x30
 8004280:	7812      	ldrb	r2, [r2, #0]
 8004282:	731a      	strb	r2, [r3, #12]
        hspi->pTxBuffPtr += sizeof(uint8_t);
 8004284:	6b23      	ldr	r3, [r4, #48]	; 0x30
 8004286:	3301      	adds	r3, #1
 8004288:	6323      	str	r3, [r4, #48]	; 0x30
        hspi->TxXferCount--;
 800428a:	f8b4 c036 	ldrh.w	ip, [r4, #54]	; 0x36
 800428e:	f10c 3cff 	add.w	ip, ip, #4294967295
 8004292:	fa1f fc8c 	uxth.w	ip, ip
 8004296:	f8a4 c036 	strh.w	ip, [r4, #54]	; 0x36
 800429a:	e7e7      	b.n	800426c <HAL_SPI_Transmit+0x170>
        if ((((HAL_GetTick() - tickstart) >=  Timeout) && (Timeout != HAL_MAX_DELAY)) || (Timeout == 0U))
 800429c:	2d00      	cmp	r5, #0
 800429e:	d1e5      	bne.n	800426c <HAL_SPI_Transmit+0x170>
          hspi->State = HAL_SPI_STATE_READY;
 80042a0:	2301      	movs	r3, #1
 80042a2:	f884 3051 	strb.w	r3, [r4, #81]	; 0x51
          errorcode = HAL_TIMEOUT;
 80042a6:	2603      	movs	r6, #3
          goto error;
 80042a8:	e000      	b.n	80042ac <HAL_SPI_Transmit+0x1b0>
    errorcode = HAL_BUSY;
 80042aa:	2602      	movs	r6, #2
  __HAL_UNLOCK(hspi);
 80042ac:	2300      	movs	r3, #0
 80042ae:	f884 3050 	strb.w	r3, [r4, #80]	; 0x50
}
 80042b2:	4630      	mov	r0, r6
 80042b4:	b003      	add	sp, #12
 80042b6:	e8bd 83f0 	ldmia.w	sp!, {r4, r5, r6, r7, r8, r9, pc}
  __HAL_LOCK(hspi);
 80042ba:	2602      	movs	r6, #2
 80042bc:	e7f9      	b.n	80042b2 <HAL_SPI_Transmit+0x1b6>

080042be <HAL_SPI_TransmitReceive>:
{
 80042be:	e92d 43f0 	stmdb	sp!, {r4, r5, r6, r7, r8, r9, lr}
 80042c2:	b083      	sub	sp, #12
 80042c4:	461f      	mov	r7, r3
 80042c6:	9d0a      	ldr	r5, [sp, #40]	; 0x28
  __HAL_LOCK(hspi);
 80042c8:	f890 3050 	ldrb.w	r3, [r0, #80]	; 0x50
 80042cc:	2b01      	cmp	r3, #1
 80042ce:	f000 8115 	beq.w	80044fc <HAL_SPI_TransmitReceive+0x23e>
 80042d2:	4604      	mov	r4, r0
 80042d4:	4688      	mov	r8, r1
 80042d6:	4691      	mov	r9, r2
 80042d8:	2301      	movs	r3, #1
 80042da:	f880 3050 	strb.w	r3, [r0, #80]	; 0x50
  tickstart = HAL_GetTick();
 80042de:	f7fe f973 	bl	80025c8 <HAL_GetTick>
 80042e2:	4606      	mov	r6, r0
  tmp_state           = hspi->State;
 80042e4:	f894 0051 	ldrb.w	r0, [r4, #81]	; 0x51
 80042e8:	b2c0      	uxtb	r0, r0
  tmp_mode            = hspi->Init.Mode;
 80042ea:	6863      	ldr	r3, [r4, #4]
  if (!((tmp_state == HAL_SPI_STATE_READY) || \
 80042ec:	2801      	cmp	r0, #1
 80042ee:	d00a      	beq.n	8004306 <HAL_SPI_TransmitReceive+0x48>
 80042f0:	f5b3 7f82 	cmp.w	r3, #260	; 0x104
 80042f4:	f040 80ef 	bne.w	80044d6 <HAL_SPI_TransmitReceive+0x218>
        ((tmp_mode == SPI_MODE_MASTER) && (hspi->Init.Direction == SPI_DIRECTION_2LINES) && (tmp_state == HAL_SPI_STATE_BUSY_RX))))
 80042f8:	68a3      	ldr	r3, [r4, #8]
 80042fa:	2b00      	cmp	r3, #0
 80042fc:	f040 80f2 	bne.w	80044e4 <HAL_SPI_TransmitReceive+0x226>
 8004300:	2804      	cmp	r0, #4
 8004302:	f040 80f1 	bne.w	80044e8 <HAL_SPI_TransmitReceive+0x22a>
  if ((pTxData == NULL) || (pRxData == NULL) || (Size == 0U))
 8004306:	f1b8 0f00 	cmp.w	r8, #0
 800430a:	f000 80ef 	beq.w	80044ec <HAL_SPI_TransmitReceive+0x22e>
 800430e:	f1b9 0f00 	cmp.w	r9, #0
 8004312:	f000 80ed 	beq.w	80044f0 <HAL_SPI_TransmitReceive+0x232>
 8004316:	2f00      	cmp	r7, #0
 8004318:	f000 80ec 	beq.w	80044f4 <HAL_SPI_TransmitReceive+0x236>
  if (hspi->State != HAL_SPI_STATE_BUSY_RX)
 800431c:	f894 3051 	ldrb.w	r3, [r4, #81]	; 0x51
 8004320:	b2db      	uxtb	r3, r3
 8004322:	2b04      	cmp	r3, #4
    hspi->State = HAL_SPI_STATE_BUSY_TX_RX;
 8004324:	bf1c      	itt	ne
 8004326:	2305      	movne	r3, #5
 8004328:	f884 3051 	strbne.w	r3, [r4, #81]	; 0x51
  hspi->ErrorCode   = HAL_SPI_ERROR_NONE;
 800432c:	2300      	movs	r3, #0
 800432e:	6563      	str	r3, [r4, #84]	; 0x54
  hspi->pRxBuffPtr  = (uint8_t *)pRxData;
 8004330:	f8c4 9038 	str.w	r9, [r4, #56]	; 0x38
  hspi->RxXferCount = Size;
 8004334:	87e7      	strh	r7, [r4, #62]	; 0x3e
  hspi->RxXferSize  = Size;
 8004336:	87a7      	strh	r7, [r4, #60]	; 0x3c
  hspi->pTxBuffPtr  = (uint8_t *)pTxData;
 8004338:	f8c4 8030 	str.w	r8, [r4, #48]	; 0x30
  hspi->TxXferCount = Size;
 800433c:	86e7      	strh	r7, [r4, #54]	; 0x36
  hspi->TxXferSize  = Size;
 800433e:	86a7      	strh	r7, [r4, #52]	; 0x34
  hspi->RxISR       = NULL;
 8004340:	6423      	str	r3, [r4, #64]	; 0x40
  hspi->TxISR       = NULL;
 8004342:	6463      	str	r3, [r4, #68]	; 0x44
  if ((hspi->Instance->CR1 & SPI_CR1_SPE) != SPI_CR1_SPE)
 8004344:	6823      	ldr	r3, [r4, #0]
 8004346:	681a      	ldr	r2, [r3, #0]
 8004348:	f012 0f40 	tst.w	r2, #64	; 0x40
 800434c:	d103      	bne.n	8004356 <HAL_SPI_TransmitReceive+0x98>
    __HAL_SPI_ENABLE(hspi);
 800434e:	681a      	ldr	r2, [r3, #0]
 8004350:	f042 0240 	orr.w	r2, r2, #64	; 0x40
 8004354:	601a      	str	r2, [r3, #0]
  if (hspi->Init.DataSize == SPI_DATASIZE_16BIT)
 8004356:	68e3      	ldr	r3, [r4, #12]
 8004358:	f5b3 6f00 	cmp.w	r3, #2048	; 0x800
 800435c:	d012      	beq.n	8004384 <HAL_SPI_TransmitReceive+0xc6>
    if ((hspi->Init.Mode == SPI_MODE_SLAVE) || (initial_TxXferCount == 0x01U))
 800435e:	6863      	ldr	r3, [r4, #4]
 8004360:	b10b      	cbz	r3, 8004366 <HAL_SPI_TransmitReceive+0xa8>
 8004362:	2f01      	cmp	r7, #1
 8004364:	d10a      	bne.n	800437c <HAL_SPI_TransmitReceive+0xbe>
      *((__IO uint8_t *)&hspi->Instance->DR) = (*hspi->pTxBuffPtr);
 8004366:	6823      	ldr	r3, [r4, #0]
 8004368:	6b22      	ldr	r2, [r4, #48]	; 0x30
 800436a:	7812      	ldrb	r2, [r2, #0]
 800436c:	731a      	strb	r2, [r3, #12]
      hspi->pTxBuffPtr += sizeof(uint8_t);
 800436e:	6b23      	ldr	r3, [r4, #48]	; 0x30
 8004370:	3301      	adds	r3, #1
 8004372:	6323      	str	r3, [r4, #48]	; 0x30
      hspi->TxXferCount--;
 8004374:	8ee3      	ldrh	r3, [r4, #54]	; 0x36
 8004376:	3b01      	subs	r3, #1
 8004378:	b29b      	uxth	r3, r3
 800437a:	86e3      	strh	r3, [r4, #54]	; 0x36
        txallowed = 1U;
 800437c:	2701      	movs	r7, #1
        txallowed = 0U;
 800437e:	f04f 0800 	mov.w	r8, #0
 8004382:	e06b      	b.n	800445c <HAL_SPI_TransmitReceive+0x19e>
    if ((hspi->Init.Mode == SPI_MODE_SLAVE) || (initial_TxXferCount == 0x01U))
 8004384:	6863      	ldr	r3, [r4, #4]
 8004386:	b10b      	cbz	r3, 800438c <HAL_SPI_TransmitReceive+0xce>
 8004388:	2f01      	cmp	r7, #1
 800438a:	d10a      	bne.n	80043a2 <HAL_SPI_TransmitReceive+0xe4>
      hspi->Instance->DR = *((uint16_t *)hspi->pTxBuffPtr);
 800438c:	6823      	ldr	r3, [r4, #0]
 800438e:	6b22      	ldr	r2, [r4, #48]	; 0x30
 8004390:	8812      	ldrh	r2, [r2, #0]
 8004392:	60da      	str	r2, [r3, #12]
      hspi->pTxBuffPtr += sizeof(uint16_t);
 8004394:	6b23      	ldr	r3, [r4, #48]	; 0x30
 8004396:	3302      	adds	r3, #2
 8004398:	6323      	str	r3, [r4, #48]	; 0x30
      hspi->TxXferCount--;
 800439a:	8ee3      	ldrh	r3, [r4, #54]	; 0x36
 800439c:	3b01      	subs	r3, #1
 800439e:	b29b      	uxth	r3, r3
 80043a0:	86e3      	strh	r3, [r4, #54]	; 0x36
        txallowed = 1U;
 80043a2:	2701      	movs	r7, #1
        txallowed = 0U;
 80043a4:	f04f 0800 	mov.w	r8, #0
 80043a8:	e01a      	b.n	80043e0 <HAL_SPI_TransmitReceive+0x122>
      if ((__HAL_SPI_GET_FLAG(hspi, SPI_FLAG_RXNE)) && (hspi->RxXferCount > 0U))
 80043aa:	6822      	ldr	r2, [r4, #0]
 80043ac:	6893      	ldr	r3, [r2, #8]
 80043ae:	f013 0301 	ands.w	r3, r3, #1
 80043b2:	d00d      	beq.n	80043d0 <HAL_SPI_TransmitReceive+0x112>
 80043b4:	8fe1      	ldrh	r1, [r4, #62]	; 0x3e
 80043b6:	b289      	uxth	r1, r1
 80043b8:	b151      	cbz	r1, 80043d0 <HAL_SPI_TransmitReceive+0x112>
        *((uint16_t *)hspi->pRxBuffPtr) = (uint16_t)hspi->Instance->DR;
 80043ba:	68d1      	ldr	r1, [r2, #12]
 80043bc:	6ba2      	ldr	r2, [r4, #56]	; 0x38
 80043be:	8011      	strh	r1, [r2, #0]
        hspi->pRxBuffPtr += sizeof(uint16_t);
 80043c0:	6ba2      	ldr	r2, [r4, #56]	; 0x38
 80043c2:	3202      	adds	r2, #2
 80043c4:	63a2      	str	r2, [r4, #56]	; 0x38
        hspi->RxXferCount--;
 80043c6:	8fe2      	ldrh	r2, [r4, #62]	; 0x3e
 80043c8:	3a01      	subs	r2, #1
 80043ca:	b292      	uxth	r2, r2
 80043cc:	87e2      	strh	r2, [r4, #62]	; 0x3e
        txallowed = 1U;
 80043ce:	461f      	mov	r7, r3
      if (((HAL_GetTick() - tickstart) >=  Timeout) && (Timeout != HAL_MAX_DELAY))
 80043d0:	f7fe f8fa 	bl	80025c8 <HAL_GetTick>
 80043d4:	1b80      	subs	r0, r0, r6
 80043d6:	42a8      	cmp	r0, r5
 80043d8:	d302      	bcc.n	80043e0 <HAL_SPI_TransmitReceive+0x122>
 80043da:	f1b5 3fff 	cmp.w	r5, #4294967295
 80043de:	d11d      	bne.n	800441c <HAL_SPI_TransmitReceive+0x15e>
    while ((hspi->TxXferCount > 0U) || (hspi->RxXferCount > 0U))
 80043e0:	8ee3      	ldrh	r3, [r4, #54]	; 0x36
 80043e2:	b29b      	uxth	r3, r3
 80043e4:	b91b      	cbnz	r3, 80043ee <HAL_SPI_TransmitReceive+0x130>
 80043e6:	8fe3      	ldrh	r3, [r4, #62]	; 0x3e
 80043e8:	b29b      	uxth	r3, r3
 80043ea:	2b00      	cmp	r3, #0
 80043ec:	d05a      	beq.n	80044a4 <HAL_SPI_TransmitReceive+0x1e6>
      if ((__HAL_SPI_GET_FLAG(hspi, SPI_FLAG_TXE)) && (hspi->TxXferCount > 0U) && (txallowed == 1U))
 80043ee:	6823      	ldr	r3, [r4, #0]
 80043f0:	689a      	ldr	r2, [r3, #8]
 80043f2:	f012 0f02 	tst.w	r2, #2
 80043f6:	d0d8      	beq.n	80043aa <HAL_SPI_TransmitReceive+0xec>
 80043f8:	8ee2      	ldrh	r2, [r4, #54]	; 0x36
 80043fa:	b292      	uxth	r2, r2
 80043fc:	2a00      	cmp	r2, #0
 80043fe:	d0d4      	beq.n	80043aa <HAL_SPI_TransmitReceive+0xec>
 8004400:	2f00      	cmp	r7, #0
 8004402:	d0d2      	beq.n	80043aa <HAL_SPI_TransmitReceive+0xec>
        hspi->Instance->DR = *((uint16_t *)hspi->pTxBuffPtr);
 8004404:	6b22      	ldr	r2, [r4, #48]	; 0x30
 8004406:	8812      	ldrh	r2, [r2, #0]
 8004408:	60da      	str	r2, [r3, #12]
        hspi->pTxBuffPtr += sizeof(uint16_t);
 800440a:	6b23      	ldr	r3, [r4, #48]	; 0x30
 800440c:	3302      	adds	r3, #2
 800440e:	6323      	str	r3, [r4, #48]	; 0x30
        hspi->TxXferCount--;
 8004410:	8ee3      	ldrh	r3, [r4, #54]	; 0x36
 8004412:	3b01      	subs	r3, #1
 8004414:	b29b      	uxth	r3, r3
 8004416:	86e3      	strh	r3, [r4, #54]	; 0x36
        txallowed = 0U;
 8004418:	4647      	mov	r7, r8
 800441a:	e7c6      	b.n	80043aa <HAL_SPI_TransmitReceive+0xec>
        hspi->State = HAL_SPI_STATE_READY;
 800441c:	2301      	movs	r3, #1
 800441e:	f884 3051 	strb.w	r3, [r4, #81]	; 0x51
        errorcode = HAL_TIMEOUT;
 8004422:	2003      	movs	r0, #3
        goto error;
 8004424:	e058      	b.n	80044d8 <HAL_SPI_TransmitReceive+0x21a>
      if ((__HAL_SPI_GET_FLAG(hspi, SPI_FLAG_RXNE)) && (hspi->RxXferCount > 0U))
 8004426:	6822      	ldr	r2, [r4, #0]
 8004428:	6893      	ldr	r3, [r2, #8]
 800442a:	f013 0301 	ands.w	r3, r3, #1
 800442e:	d00d      	beq.n	800444c <HAL_SPI_TransmitReceive+0x18e>
 8004430:	8fe1      	ldrh	r1, [r4, #62]	; 0x3e
 8004432:	b289      	uxth	r1, r1
 8004434:	b151      	cbz	r1, 800444c <HAL_SPI_TransmitReceive+0x18e>
        (*(uint8_t *)hspi->pRxBuffPtr) = hspi->Instance->DR;
 8004436:	68d1      	ldr	r1, [r2, #12]
 8004438:	6ba2      	ldr	r2, [r4, #56]	; 0x38
 800443a:	7011      	strb	r1, [r2, #0]
        hspi->pRxBuffPtr++;
 800443c:	6ba2      	ldr	r2, [r4, #56]	; 0x38
 800443e:	3201      	adds	r2, #1
 8004440:	63a2      	str	r2, [r4, #56]	; 0x38
        hspi->RxXferCount--;
 8004442:	8fe2      	ldrh	r2, [r4, #62]	; 0x3e
 8004444:	3a01      	subs	r2, #1
 8004446:	b292      	uxth	r2, r2
 8004448:	87e2      	strh	r2, [r4, #62]	; 0x3e
        txallowed = 1U;
 800444a:	461f      	mov	r7, r3
      if ((((HAL_GetTick() - tickstart) >=  Timeout) && ((Timeout != HAL_MAX_DELAY))) || (Timeout == 0U))
 800444c:	f7fe f8bc 	bl	80025c8 <HAL_GetTick>
 8004450:	1b83      	subs	r3, r0, r6
 8004452:	42ab      	cmp	r3, r5
 8004454:	d31f      	bcc.n	8004496 <HAL_SPI_TransmitReceive+0x1d8>
 8004456:	f1b5 3fff 	cmp.w	r5, #4294967295
 800445a:	d11e      	bne.n	800449a <HAL_SPI_TransmitReceive+0x1dc>
    while ((hspi->TxXferCount > 0U) || (hspi->RxXferCount > 0U))
 800445c:	8ee3      	ldrh	r3, [r4, #54]	; 0x36
 800445e:	b29b      	uxth	r3, r3
 8004460:	b913      	cbnz	r3, 8004468 <HAL_SPI_TransmitReceive+0x1aa>
 8004462:	8fe3      	ldrh	r3, [r4, #62]	; 0x3e
 8004464:	b29b      	uxth	r3, r3
 8004466:	b1eb      	cbz	r3, 80044a4 <HAL_SPI_TransmitReceive+0x1e6>
      if ((__HAL_SPI_GET_FLAG(hspi, SPI_FLAG_TXE)) && (hspi->TxXferCount > 0U) && (txallowed == 1U))
 8004468:	6823      	ldr	r3, [r4, #0]
 800446a:	689a      	ldr	r2, [r3, #8]
 800446c:	f012 0f02 	tst.w	r2, #2
 8004470:	d0d9      	beq.n	8004426 <HAL_SPI_TransmitReceive+0x168>
 8004472:	8ee2      	ldrh	r2, [r4, #54]	; 0x36
 8004474:	b292      	uxth	r2, r2
 8004476:	2a00      	cmp	r2, #0
 8004478:	d0d5      	beq.n	8004426 <HAL_SPI_TransmitReceive+0x168>
 800447a:	2f01      	cmp	r7, #1
 800447c:	d1d3      	bne.n	8004426 <HAL_SPI_TransmitReceive+0x168>
        *(__IO uint8_t *)&hspi->Instance->DR = (*hspi->pTxBuffPtr);
 800447e:	6b22      	ldr	r2, [r4, #48]	; 0x30
 8004480:	7812      	ldrb	r2, [r2, #0]
 8004482:	731a      	strb	r2, [r3, #12]
        hspi->pTxBuffPtr++;
 8004484:	6b23      	ldr	r3, [r4, #48]	; 0x30
 8004486:	3301      	adds	r3, #1
 8004488:	6323      	str	r3, [r4, #48]	; 0x30
        hspi->TxXferCount--;
 800448a:	8ee3      	ldrh	r3, [r4, #54]	; 0x36
 800448c:	3b01      	subs	r3, #1
 800448e:	b29b      	uxth	r3, r3
 8004490:	86e3      	strh	r3, [r4, #54]	; 0x36
        txallowed = 0U;
 8004492:	4647      	mov	r7, r8
 8004494:	e7c7      	b.n	8004426 <HAL_SPI_TransmitReceive+0x168>
      if ((((HAL_GetTick() - tickstart) >=  Timeout) && ((Timeout != HAL_MAX_DELAY))) || (Timeout == 0U))
 8004496:	2d00      	cmp	r5, #0
 8004498:	d1e0      	bne.n	800445c <HAL_SPI_TransmitReceive+0x19e>
        hspi->State = HAL_SPI_STATE_READY;
 800449a:	2301      	movs	r3, #1
 800449c:	f884 3051 	strb.w	r3, [r4, #81]	; 0x51
        errorcode = HAL_TIMEOUT;
 80044a0:	2003      	movs	r0, #3
        goto error;
 80044a2:	e019      	b.n	80044d8 <HAL_SPI_TransmitReceive+0x21a>
  if (SPI_EndRxTxTransaction(hspi, Timeout, tickstart) != HAL_OK)
 80044a4:	4632      	mov	r2, r6
 80044a6:	4629      	mov	r1, r5
 80044a8:	4620      	mov	r0, r4
 80044aa:	f7ff fd81 	bl	8003fb0 <SPI_EndRxTxTransaction>
 80044ae:	b970      	cbnz	r0, 80044ce <HAL_SPI_TransmitReceive+0x210>
  if (hspi->Init.Direction == SPI_DIRECTION_2LINES)
 80044b0:	68a3      	ldr	r3, [r4, #8]
 80044b2:	b933      	cbnz	r3, 80044c2 <HAL_SPI_TransmitReceive+0x204>
    __HAL_SPI_CLEAR_OVRFLAG(hspi);
 80044b4:	9301      	str	r3, [sp, #4]
 80044b6:	6823      	ldr	r3, [r4, #0]
 80044b8:	68da      	ldr	r2, [r3, #12]
 80044ba:	9201      	str	r2, [sp, #4]
 80044bc:	689b      	ldr	r3, [r3, #8]
 80044be:	9301      	str	r3, [sp, #4]
 80044c0:	9b01      	ldr	r3, [sp, #4]
  if (hspi->ErrorCode != HAL_SPI_ERROR_NONE)
 80044c2:	6d63      	ldr	r3, [r4, #84]	; 0x54
 80044c4:	b9c3      	cbnz	r3, 80044f8 <HAL_SPI_TransmitReceive+0x23a>
    hspi->State = HAL_SPI_STATE_READY;
 80044c6:	2301      	movs	r3, #1
 80044c8:	f884 3051 	strb.w	r3, [r4, #81]	; 0x51
 80044cc:	e004      	b.n	80044d8 <HAL_SPI_TransmitReceive+0x21a>
    hspi->ErrorCode = HAL_SPI_ERROR_FLAG;
 80044ce:	2320      	movs	r3, #32
 80044d0:	6563      	str	r3, [r4, #84]	; 0x54
    errorcode = HAL_ERROR;
 80044d2:	2001      	movs	r0, #1
    goto error;
 80044d4:	e000      	b.n	80044d8 <HAL_SPI_TransmitReceive+0x21a>
    errorcode = HAL_BUSY;
 80044d6:	2002      	movs	r0, #2
  __HAL_UNLOCK(hspi);
 80044d8:	2300      	movs	r3, #0
 80044da:	f884 3050 	strb.w	r3, [r4, #80]	; 0x50
}
 80044de:	b003      	add	sp, #12
 80044e0:	e8bd 83f0 	ldmia.w	sp!, {r4, r5, r6, r7, r8, r9, pc}
    errorcode = HAL_BUSY;
 80044e4:	2002      	movs	r0, #2
 80044e6:	e7f7      	b.n	80044d8 <HAL_SPI_TransmitReceive+0x21a>
 80044e8:	2002      	movs	r0, #2
 80044ea:	e7f5      	b.n	80044d8 <HAL_SPI_TransmitReceive+0x21a>
    errorcode = HAL_ERROR;
 80044ec:	2001      	movs	r0, #1
 80044ee:	e7f3      	b.n	80044d8 <HAL_SPI_TransmitReceive+0x21a>
 80044f0:	2001      	movs	r0, #1
 80044f2:	e7f1      	b.n	80044d8 <HAL_SPI_TransmitReceive+0x21a>
 80044f4:	2001      	movs	r0, #1
 80044f6:	e7ef      	b.n	80044d8 <HAL_SPI_TransmitReceive+0x21a>
    errorcode = HAL_ERROR;
 80044f8:	2001      	movs	r0, #1
 80044fa:	e7ed      	b.n	80044d8 <HAL_SPI_TransmitReceive+0x21a>
  __HAL_LOCK(hspi);
 80044fc:	2002      	movs	r0, #2
 80044fe:	e7ee      	b.n	80044de <HAL_SPI_TransmitReceive+0x220>

08004500 <HAL_SPI_Receive>:
{
 8004500:	e92d 43f0 	stmdb	sp!, {r4, r5, r6, r7, r8, r9, lr}
 8004504:	b083      	sub	sp, #12
 8004506:	4604      	mov	r4, r0
  if (hspi->State != HAL_SPI_STATE_READY)
 8004508:	f890 5051 	ldrb.w	r5, [r0, #81]	; 0x51
 800450c:	b2ed      	uxtb	r5, r5
 800450e:	2d01      	cmp	r5, #1
 8004510:	f040 80b7 	bne.w	8004682 <HAL_SPI_Receive+0x182>
 8004514:	4688      	mov	r8, r1
 8004516:	4691      	mov	r9, r2
 8004518:	461e      	mov	r6, r3
  if ((hspi->Init.Mode == SPI_MODE_MASTER) && (hspi->Init.Direction == SPI_DIRECTION_2LINES))
 800451a:	6843      	ldr	r3, [r0, #4]
 800451c:	f5b3 7f82 	cmp.w	r3, #260	; 0x104
 8004520:	d045      	beq.n	80045ae <HAL_SPI_Receive+0xae>
  __HAL_LOCK(hspi);
 8004522:	f894 3050 	ldrb.w	r3, [r4, #80]	; 0x50
 8004526:	2b01      	cmp	r3, #1
 8004528:	f000 80b3 	beq.w	8004692 <HAL_SPI_Receive+0x192>
 800452c:	2301      	movs	r3, #1
 800452e:	f884 3050 	strb.w	r3, [r4, #80]	; 0x50
  tickstart = HAL_GetTick();
 8004532:	f7fe f849 	bl	80025c8 <HAL_GetTick>
 8004536:	4607      	mov	r7, r0
  if ((pData == NULL) || (Size == 0U))
 8004538:	f1b8 0f00 	cmp.w	r8, #0
 800453c:	f000 80a2 	beq.w	8004684 <HAL_SPI_Receive+0x184>
 8004540:	f1b9 0f00 	cmp.w	r9, #0
 8004544:	f000 809e 	beq.w	8004684 <HAL_SPI_Receive+0x184>
  hspi->State       = HAL_SPI_STATE_BUSY_RX;
 8004548:	2304      	movs	r3, #4
 800454a:	f884 3051 	strb.w	r3, [r4, #81]	; 0x51
  hspi->ErrorCode   = HAL_SPI_ERROR_NONE;
 800454e:	2300      	movs	r3, #0
 8004550:	6563      	str	r3, [r4, #84]	; 0x54
  hspi->pRxBuffPtr  = (uint8_t *)pData;
 8004552:	f8c4 8038 	str.w	r8, [r4, #56]	; 0x38
  hspi->RxXferSize  = Size;
 8004556:	f8a4 903c 	strh.w	r9, [r4, #60]	; 0x3c
  hspi->RxXferCount = Size;
 800455a:	f8a4 903e 	strh.w	r9, [r4, #62]	; 0x3e
  hspi->pTxBuffPtr  = (uint8_t *)NULL;
 800455e:	6323      	str	r3, [r4, #48]	; 0x30
  hspi->TxXferSize  = 0U;
 8004560:	86a3      	strh	r3, [r4, #52]	; 0x34
  hspi->TxXferCount = 0U;
 8004562:	86e3      	strh	r3, [r4, #54]	; 0x36
  hspi->RxISR       = NULL;
 8004564:	6423      	str	r3, [r4, #64]	; 0x40
  hspi->TxISR       = NULL;
 8004566:	6463      	str	r3, [r4, #68]	; 0x44
  if (hspi->Init.Direction == SPI_DIRECTION_1LINE)
 8004568:	68a3      	ldr	r3, [r4, #8]
 800456a:	f5b3 4f00 	cmp.w	r3, #32768	; 0x8000
 800456e:	d02b      	beq.n	80045c8 <HAL_SPI_Receive+0xc8>
  if ((hspi->Instance->CR1 & SPI_CR1_SPE) != SPI_CR1_SPE)
 8004570:	6823      	ldr	r3, [r4, #0]
 8004572:	681a      	ldr	r2, [r3, #0]
 8004574:	f012 0f40 	tst.w	r2, #64	; 0x40
 8004578:	d103      	bne.n	8004582 <HAL_SPI_Receive+0x82>
    __HAL_SPI_ENABLE(hspi);
 800457a:	681a      	ldr	r2, [r3, #0]
 800457c:	f042 0240 	orr.w	r2, r2, #64	; 0x40
 8004580:	601a      	str	r2, [r3, #0]
  if (hspi->Init.DataSize == SPI_DATASIZE_8BIT)
 8004582:	68e3      	ldr	r3, [r4, #12]
 8004584:	b35b      	cbz	r3, 80045de <HAL_SPI_Receive+0xde>
    while (hspi->RxXferCount > 0U)
 8004586:	8fe3      	ldrh	r3, [r4, #62]	; 0x3e
 8004588:	b29b      	uxth	r3, r3
 800458a:	2b00      	cmp	r3, #0
 800458c:	d15e      	bne.n	800464c <HAL_SPI_Receive+0x14c>
  if (SPI_EndRxTransaction(hspi, Timeout, tickstart) != HAL_OK)
 800458e:	463a      	mov	r2, r7
 8004590:	4631      	mov	r1, r6
 8004592:	4620      	mov	r0, r4
 8004594:	f7ff fd1e 	bl	8003fd4 <SPI_EndRxTransaction>
 8004598:	b108      	cbz	r0, 800459e <HAL_SPI_Receive+0x9e>
    hspi->ErrorCode = HAL_SPI_ERROR_FLAG;
 800459a:	2320      	movs	r3, #32
 800459c:	6563      	str	r3, [r4, #84]	; 0x54
  if (hspi->ErrorCode != HAL_SPI_ERROR_NONE)
 800459e:	6d63      	ldr	r3, [r4, #84]	; 0x54
 80045a0:	2b00      	cmp	r3, #0
 80045a2:	d16f      	bne.n	8004684 <HAL_SPI_Receive+0x184>
    hspi->State = HAL_SPI_STATE_READY;
 80045a4:	2301      	movs	r3, #1
 80045a6:	f884 3051 	strb.w	r3, [r4, #81]	; 0x51
  HAL_StatusTypeDef errorcode = HAL_OK;
 80045aa:	2500      	movs	r5, #0
 80045ac:	e06a      	b.n	8004684 <HAL_SPI_Receive+0x184>
  if ((hspi->Init.Mode == SPI_MODE_MASTER) && (hspi->Init.Direction == SPI_DIRECTION_2LINES))
 80045ae:	6883      	ldr	r3, [r0, #8]
 80045b0:	2b00      	cmp	r3, #0
 80045b2:	d1b6      	bne.n	8004522 <HAL_SPI_Receive+0x22>
    hspi->State = HAL_SPI_STATE_BUSY_RX;
 80045b4:	2304      	movs	r3, #4
 80045b6:	f880 3051 	strb.w	r3, [r0, #81]	; 0x51
    return HAL_SPI_TransmitReceive(hspi, pData, pData, Size, Timeout);
 80045ba:	9600      	str	r6, [sp, #0]
 80045bc:	4613      	mov	r3, r2
 80045be:	460a      	mov	r2, r1
 80045c0:	f7ff fe7d 	bl	80042be <HAL_SPI_TransmitReceive>
 80045c4:	4605      	mov	r5, r0
 80045c6:	e060      	b.n	800468a <HAL_SPI_Receive+0x18a>
    __HAL_SPI_DISABLE(hspi);
 80045c8:	6822      	ldr	r2, [r4, #0]
 80045ca:	6813      	ldr	r3, [r2, #0]
 80045cc:	f023 0340 	bic.w	r3, r3, #64	; 0x40
 80045d0:	6013      	str	r3, [r2, #0]
    SPI_1LINE_RX(hspi);
 80045d2:	6822      	ldr	r2, [r4, #0]
 80045d4:	6813      	ldr	r3, [r2, #0]
 80045d6:	f423 4380 	bic.w	r3, r3, #16384	; 0x4000
 80045da:	6013      	str	r3, [r2, #0]
 80045dc:	e7c8      	b.n	8004570 <HAL_SPI_Receive+0x70>
    while (hspi->RxXferCount > 0U)
 80045de:	8fe3      	ldrh	r3, [r4, #62]	; 0x3e
 80045e0:	b29b      	uxth	r3, r3
 80045e2:	b963      	cbnz	r3, 80045fe <HAL_SPI_Receive+0xfe>
 80045e4:	e7d3      	b.n	800458e <HAL_SPI_Receive+0x8e>
        if ((((HAL_GetTick() - tickstart) >=  Timeout) && (Timeout != HAL_MAX_DELAY)) || (Timeout == 0U))
 80045e6:	f7fd ffef 	bl	80025c8 <HAL_GetTick>
 80045ea:	1bc0      	subs	r0, r0, r7
 80045ec:	42b0      	cmp	r0, r6
 80045ee:	d31a      	bcc.n	8004626 <HAL_SPI_Receive+0x126>
 80045f0:	f1b6 3fff 	cmp.w	r6, #4294967295
 80045f4:	d119      	bne.n	800462a <HAL_SPI_Receive+0x12a>
    while (hspi->RxXferCount > 0U)
 80045f6:	8fe3      	ldrh	r3, [r4, #62]	; 0x3e
 80045f8:	b29b      	uxth	r3, r3
 80045fa:	2b00      	cmp	r3, #0
 80045fc:	d0c7      	beq.n	800458e <HAL_SPI_Receive+0x8e>
      if (__HAL_SPI_GET_FLAG(hspi, SPI_FLAG_RXNE))
 80045fe:	6823      	ldr	r3, [r4, #0]
 8004600:	689a      	ldr	r2, [r3, #8]
 8004602:	f012 0f01 	tst.w	r2, #1
 8004606:	d0ee      	beq.n	80045e6 <HAL_SPI_Receive+0xe6>
        (* (uint8_t *)hspi->pRxBuffPtr) = *(__IO uint8_t *)&hspi->Instance->DR;
 8004608:	6ba2      	ldr	r2, [r4, #56]	; 0x38
 800460a:	7b1b      	ldrb	r3, [r3, #12]
 800460c:	7013      	strb	r3, [r2, #0]
        hspi->pRxBuffPtr += sizeof(uint8_t);
 800460e:	6ba3      	ldr	r3, [r4, #56]	; 0x38
 8004610:	3301      	adds	r3, #1
 8004612:	63a3      	str	r3, [r4, #56]	; 0x38
        hspi->RxXferCount--;
 8004614:	f8b4 c03e 	ldrh.w	ip, [r4, #62]	; 0x3e
 8004618:	f10c 3cff 	add.w	ip, ip, #4294967295
 800461c:	fa1f fc8c 	uxth.w	ip, ip
 8004620:	f8a4 c03e 	strh.w	ip, [r4, #62]	; 0x3e
 8004624:	e7e7      	b.n	80045f6 <HAL_SPI_Receive+0xf6>
        if ((((HAL_GetTick() - tickstart) >=  Timeout) && (Timeout != HAL_MAX_DELAY)) || (Timeout == 0U))
 8004626:	2e00      	cmp	r6, #0
 8004628:	d1e5      	bne.n	80045f6 <HAL_SPI_Receive+0xf6>
          hspi->State = HAL_SPI_STATE_READY;
 800462a:	2301      	movs	r3, #1
 800462c:	f884 3051 	strb.w	r3, [r4, #81]	; 0x51
          errorcode = HAL_TIMEOUT;
 8004630:	2503      	movs	r5, #3
          goto error;
 8004632:	e027      	b.n	8004684 <HAL_SPI_Receive+0x184>
        if ((((HAL_GetTick() - tickstart) >=  Timeout) && (Timeout != HAL_MAX_DELAY)) || (Timeout == 0U))
 8004634:	f7fd ffc8 	bl	80025c8 <HAL_GetTick>
 8004638:	1bc0      	subs	r0, r0, r7
 800463a:	42b0      	cmp	r0, r6
 800463c:	d31a      	bcc.n	8004674 <HAL_SPI_Receive+0x174>
 800463e:	f1b6 3fff 	cmp.w	r6, #4294967295
 8004642:	d119      	bne.n	8004678 <HAL_SPI_Receive+0x178>
    while (hspi->RxXferCount > 0U)
 8004644:	8fe3      	ldrh	r3, [r4, #62]	; 0x3e
 8004646:	b29b      	uxth	r3, r3
 8004648:	2b00      	cmp	r3, #0
 800464a:	d0a0      	beq.n	800458e <HAL_SPI_Receive+0x8e>
      if (__HAL_SPI_GET_FLAG(hspi, SPI_FLAG_RXNE))
 800464c:	6823      	ldr	r3, [r4, #0]
 800464e:	689a      	ldr	r2, [r3, #8]
 8004650:	f012 0f01 	tst.w	r2, #1
 8004654:	d0ee      	beq.n	8004634 <HAL_SPI_Receive+0x134>
        *((uint16_t *)hspi->pRxBuffPtr) = (uint16_t)hspi->Instance->DR;
 8004656:	68da      	ldr	r2, [r3, #12]
 8004658:	6ba3      	ldr	r3, [r4, #56]	; 0x38
 800465a:	801a      	strh	r2, [r3, #0]
        hspi->pRxBuffPtr += sizeof(uint16_t);
 800465c:	6ba3      	ldr	r3, [r4, #56]	; 0x38
 800465e:	3302      	adds	r3, #2
 8004660:	63a3      	str	r3, [r4, #56]	; 0x38
        hspi->RxXferCount--;
 8004662:	f8b4 c03e 	ldrh.w	ip, [r4, #62]	; 0x3e
 8004666:	f10c 3cff 	add.w	ip, ip, #4294967295
 800466a:	fa1f fc8c 	uxth.w	ip, ip
 800466e:	f8a4 c03e 	strh.w	ip, [r4, #62]	; 0x3e
 8004672:	e7e7      	b.n	8004644 <HAL_SPI_Receive+0x144>
        if ((((HAL_GetTick() - tickstart) >=  Timeout) && (Timeout != HAL_MAX_DELAY)) || (Timeout == 0U))
 8004674:	2e00      	cmp	r6, #0
 8004676:	d1e5      	bne.n	8004644 <HAL_SPI_Receive+0x144>
          hspi->State = HAL_SPI_STATE_READY;
 8004678:	2301      	movs	r3, #1
 800467a:	f884 3051 	strb.w	r3, [r4, #81]	; 0x51
          errorcode = HAL_TIMEOUT;
 800467e:	2503      	movs	r5, #3
          goto error;
 8004680:	e000      	b.n	8004684 <HAL_SPI_Receive+0x184>
    errorcode = HAL_BUSY;
 8004682:	2502      	movs	r5, #2
  __HAL_UNLOCK(hspi);
 8004684:	2300      	movs	r3, #0
 8004686:	f884 3050 	strb.w	r3, [r4, #80]	; 0x50
}
 800468a:	4628      	mov	r0, r5
 800468c:	b003      	add	sp, #12
 800468e:	e8bd 83f0 	ldmia.w	sp!, {r4, r5, r6, r7, r8, r9, pc}
  __HAL_LOCK(hspi);
 8004692:	2502      	movs	r5, #2
 8004694:	e7f9      	b.n	800468a <HAL_SPI_Receive+0x18a>
	...

08004698 <TIM_OC1_SetConfig>:
  * @param  TIMx to select the TIM peripheral
  * @param  OC_Config The output configuration structure
  * @retval None
  */
static void TIM_OC1_SetConfig(TIM_TypeDef *TIMx, const TIM_OC_InitTypeDef *OC_Config)
{
 8004698:	b470      	push	{r4, r5, r6}
  uint32_t tmpccmrx;
  uint32_t tmpccer;
  uint32_t tmpcr2;

  /* Get the TIMx CCER register value */
  tmpccer = TIMx->CCER;
 800469a:	6a03      	ldr	r3, [r0, #32]

  /* Disable the Channel 1: Reset the CC1E Bit */
  TIMx->CCER &= ~TIM_CCER_CC1E;
 800469c:	6a02      	ldr	r2, [r0, #32]
 800469e:	f022 0201 	bic.w	r2, r2, #1
 80046a2:	6202      	str	r2, [r0, #32]

  /* Get the TIMx CR2 register value */
  tmpcr2 =  TIMx->CR2;
 80046a4:	6844      	ldr	r4, [r0, #4]

  /* Get the TIMx CCMR1 register value */
  tmpccmrx = TIMx->CCMR1;
 80046a6:	6982      	ldr	r2, [r0, #24]

  /* Reset the Output Compare Mode Bits */
  tmpccmrx &= ~TIM_CCMR1_OC1M;
  tmpccmrx &= ~TIM_CCMR1_CC1S;
 80046a8:	f022 0273 	bic.w	r2, r2, #115	; 0x73
  /* Select the Output Compare Mode */
  tmpccmrx |= OC_Config->OCMode;
 80046ac:	680d      	ldr	r5, [r1, #0]
 80046ae:	432a      	orrs	r2, r5

  /* Reset the Output Polarity level */
  tmpccer &= ~TIM_CCER_CC1P;
 80046b0:	f023 0302 	bic.w	r3, r3, #2
  /* Set the Output Compare Polarity */
  tmpccer |= OC_Config->OCPolarity;
 80046b4:	688d      	ldr	r5, [r1, #8]
 80046b6:	432b      	orrs	r3, r5

  if (IS_TIM_CCXN_INSTANCE(TIMx, TIM_CHANNEL_1))
 80046b8:	4d0b      	ldr	r5, [pc, #44]	; (80046e8 <TIM_OC1_SetConfig+0x50>)
 80046ba:	42a8      	cmp	r0, r5
 80046bc:	d006      	beq.n	80046cc <TIM_OC1_SetConfig+0x34>
    /* Set the Output N Idle state */
    tmpcr2 |= OC_Config->OCNIdleState;
  }

  /* Write to TIMx CR2 */
  TIMx->CR2 = tmpcr2;
 80046be:	6044      	str	r4, [r0, #4]

  /* Write to TIMx CCMR1 */
  TIMx->CCMR1 = tmpccmrx;
 80046c0:	6182      	str	r2, [r0, #24]

  /* Set the Capture Compare Register value */
  TIMx->CCR1 = OC_Config->Pulse;
 80046c2:	684a      	ldr	r2, [r1, #4]
 80046c4:	6342      	str	r2, [r0, #52]	; 0x34

  /* Write to TIMx CCER */
  TIMx->CCER = tmpccer;
 80046c6:	6203      	str	r3, [r0, #32]
}
 80046c8:	bc70      	pop	{r4, r5, r6}
 80046ca:	4770      	bx	lr
    tmpccer &= ~TIM_CCER_CC1NP;
 80046cc:	f023 0308 	bic.w	r3, r3, #8
    tmpccer |= OC_Config->OCNPolarity;
 80046d0:	68cd      	ldr	r5, [r1, #12]
 80046d2:	432b      	orrs	r3, r5
    tmpccer &= ~TIM_CCER_CC1NE;
 80046d4:	f023 0304 	bic.w	r3, r3, #4
    tmpcr2 &= ~TIM_CR2_OIS1N;
 80046d8:	f424 7440 	bic.w	r4, r4, #768	; 0x300
    tmpcr2 |= OC_Config->OCNIdleState;
 80046dc:	694d      	ldr	r5, [r1, #20]
 80046de:	698e      	ldr	r6, [r1, #24]
 80046e0:	4335      	orrs	r5, r6
 80046e2:	432c      	orrs	r4, r5
 80046e4:	e7eb      	b.n	80046be <TIM_OC1_SetConfig+0x26>
 80046e6:	bf00      	nop
 80046e8:	40012c00 	.word	0x40012c00

080046ec <TIM_OC3_SetConfig>:
  * @param  TIMx to select the TIM peripheral
  * @param  OC_Config The output configuration structure
  * @retval None
  */
static void TIM_OC3_SetConfig(TIM_TypeDef *TIMx, const TIM_OC_InitTypeDef *OC_Config)
{
 80046ec:	b470      	push	{r4, r5, r6}
  uint32_t tmpccmrx;
  uint32_t tmpccer;
  uint32_t tmpcr2;

  /* Get the TIMx CCER register value */
  tmpccer = TIMx->CCER;
 80046ee:	6a03      	ldr	r3, [r0, #32]

  /* Disable the Channel 3: Reset the CC2E Bit */
  TIMx->CCER &= ~TIM_CCER_CC3E;
 80046f0:	6a02      	ldr	r2, [r0, #32]
 80046f2:	f422 7280 	bic.w	r2, r2, #256	; 0x100
 80046f6:	6202      	str	r2, [r0, #32]

  /* Get the TIMx CR2 register value */
  tmpcr2 =  TIMx->CR2;
 80046f8:	6844      	ldr	r4, [r0, #4]

  /* Get the TIMx CCMR2 register value */
  tmpccmrx = TIMx->CCMR2;
 80046fa:	69c2      	ldr	r2, [r0, #28]

  /* Reset the Output Compare mode and Capture/Compare selection Bits */
  tmpccmrx &= ~TIM_CCMR2_OC3M;
  tmpccmrx &= ~TIM_CCMR2_CC3S;
 80046fc:	f022 0273 	bic.w	r2, r2, #115	; 0x73
  /* Select the Output Compare Mode */
  tmpccmrx |= OC_Config->OCMode;
 8004700:	680d      	ldr	r5, [r1, #0]
 8004702:	432a      	orrs	r2, r5

  /* Reset the Output Polarity level */
  tmpccer &= ~TIM_CCER_CC3P;
 8004704:	f423 7300 	bic.w	r3, r3, #512	; 0x200
  /* Set the Output Compare Polarity */
  tmpccer |= (OC_Config->OCPolarity << 8U);
 8004708:	688d      	ldr	r5, [r1, #8]
 800470a:	ea43 2305 	orr.w	r3, r3, r5, lsl #8

  if (IS_TIM_CCXN_INSTANCE(TIMx, TIM_CHANNEL_3))
 800470e:	4d0c      	ldr	r5, [pc, #48]	; (8004740 <TIM_OC3_SetConfig+0x54>)
 8004710:	42a8      	cmp	r0, r5
 8004712:	d006      	beq.n	8004722 <TIM_OC3_SetConfig+0x36>
    /* Set the Output N Idle state */
    tmpcr2 |= (OC_Config->OCNIdleState << 4U);
  }

  /* Write to TIMx CR2 */
  TIMx->CR2 = tmpcr2;
 8004714:	6044      	str	r4, [r0, #4]

  /* Write to TIMx CCMR2 */
  TIMx->CCMR2 = tmpccmrx;
 8004716:	61c2      	str	r2, [r0, #28]

  /* Set the Capture Compare Register value */
  TIMx->CCR3 = OC_Config->Pulse;
 8004718:	684a      	ldr	r2, [r1, #4]
 800471a:	63c2      	str	r2, [r0, #60]	; 0x3c

  /* Write to TIMx CCER */
  TIMx->CCER = tmpccer;
 800471c:	6203      	str	r3, [r0, #32]
}
 800471e:	bc70      	pop	{r4, r5, r6}
 8004720:	4770      	bx	lr
    tmpccer &= ~TIM_CCER_CC3NP;
 8004722:	f423 6300 	bic.w	r3, r3, #2048	; 0x800
    tmpccer |= (OC_Config->OCNPolarity << 8U);
 8004726:	68cd      	ldr	r5, [r1, #12]
 8004728:	ea43 2305 	orr.w	r3, r3, r5, lsl #8
    tmpccer &= ~TIM_CCER_CC3NE;
 800472c:	f423 6380 	bic.w	r3, r3, #1024	; 0x400
    tmpcr2 &= ~TIM_CR2_OIS3N;
 8004730:	f424 5440 	bic.w	r4, r4, #12288	; 0x3000
    tmpcr2 |= (OC_Config->OCIdleState << 4U);
 8004734:	694d      	ldr	r5, [r1, #20]
    tmpcr2 |= (OC_Config->OCNIdleState << 4U);
 8004736:	698e      	ldr	r6, [r1, #24]
 8004738:	4335      	orrs	r5, r6
 800473a:	ea44 1405 	orr.w	r4, r4, r5, lsl #4
 800473e:	e7e9      	b.n	8004714 <TIM_OC3_SetConfig+0x28>
 8004740:	40012c00 	.word	0x40012c00

08004744 <TIM_OC4_SetConfig>:
  * @param  TIMx to select the TIM peripheral
  * @param  OC_Config The output configuration structure
  * @retval None
  */
static void TIM_OC4_SetConfig(TIM_TypeDef *TIMx, const TIM_OC_InitTypeDef *OC_Config)
{
 8004744:	b430      	push	{r4, r5}
  uint32_t tmpccmrx;
  uint32_t tmpccer;
  uint32_t tmpcr2;

  /* Get the TIMx CCER register value */
  tmpccer = TIMx->CCER;
 8004746:	6a03      	ldr	r3, [r0, #32]

  /* Disable the Channel 4: Reset the CC4E Bit */
  TIMx->CCER &= ~TIM_CCER_CC4E;
 8004748:	6a02      	ldr	r2, [r0, #32]
 800474a:	f422 5280 	bic.w	r2, r2, #4096	; 0x1000
 800474e:	6202      	str	r2, [r0, #32]

  /* Get the TIMx CR2 register value */
  tmpcr2 =  TIMx->CR2;
 8004750:	6844      	ldr	r4, [r0, #4]

  /* Get the TIMx CCMR2 register value */
  tmpccmrx = TIMx->CCMR2;
 8004752:	69c2      	ldr	r2, [r0, #28]

  /* Reset the Output Compare mode and Capture/Compare selection Bits */
  tmpccmrx &= ~TIM_CCMR2_OC4M;
  tmpccmrx &= ~TIM_CCMR2_CC4S;
 8004754:	f422 42e6 	bic.w	r2, r2, #29440	; 0x7300

  /* Select the Output Compare Mode */
  tmpccmrx |= (OC_Config->OCMode << 8U);
 8004758:	680d      	ldr	r5, [r1, #0]
 800475a:	ea42 2205 	orr.w	r2, r2, r5, lsl #8

  /* Reset the Output Polarity level */
  tmpccer &= ~TIM_CCER_CC4P;
 800475e:	f423 5300 	bic.w	r3, r3, #8192	; 0x2000
  /* Set the Output Compare Polarity */
  tmpccer |= (OC_Config->OCPolarity << 12U);
 8004762:	688d      	ldr	r5, [r1, #8]
 8004764:	ea43 3305 	orr.w	r3, r3, r5, lsl #12

  if (IS_TIM_BREAK_INSTANCE(TIMx))
 8004768:	4d07      	ldr	r5, [pc, #28]	; (8004788 <TIM_OC4_SetConfig+0x44>)
 800476a:	42a8      	cmp	r0, r5
 800476c:	d006      	beq.n	800477c <TIM_OC4_SetConfig+0x38>
    /* Set the Output Idle state */
    tmpcr2 |= (OC_Config->OCIdleState << 6U);
  }

  /* Write to TIMx CR2 */
  TIMx->CR2 = tmpcr2;
 800476e:	6044      	str	r4, [r0, #4]

  /* Write to TIMx CCMR2 */
  TIMx->CCMR2 = tmpccmrx;
 8004770:	61c2      	str	r2, [r0, #28]

  /* Set the Capture Compare Register value */
  TIMx->CCR4 = OC_Config->Pulse;
 8004772:	684a      	ldr	r2, [r1, #4]
 8004774:	6402      	str	r2, [r0, #64]	; 0x40

  /* Write to TIMx CCER */
  TIMx->CCER = tmpccer;
 8004776:	6203      	str	r3, [r0, #32]
}
 8004778:	bc30      	pop	{r4, r5}
 800477a:	4770      	bx	lr
    tmpcr2 &= ~TIM_CR2_OIS4;
 800477c:	f424 4480 	bic.w	r4, r4, #16384	; 0x4000
    tmpcr2 |= (OC_Config->OCIdleState << 6U);
 8004780:	694d      	ldr	r5, [r1, #20]
 8004782:	ea44 1485 	orr.w	r4, r4, r5, lsl #6
 8004786:	e7f2      	b.n	800476e <TIM_OC4_SetConfig+0x2a>
 8004788:	40012c00 	.word	0x40012c00

0800478c <HAL_TIM_Base_Start_IT>:
  if (htim->State != HAL_TIM_STATE_READY)
 800478c:	f890 303d 	ldrb.w	r3, [r0, #61]	; 0x3d
 8004790:	b2db      	uxtb	r3, r3
 8004792:	2b01      	cmp	r3, #1
 8004794:	d127      	bne.n	80047e6 <HAL_TIM_Base_Start_IT+0x5a>
  htim->State = HAL_TIM_STATE_BUSY;
 8004796:	2302      	movs	r3, #2
 8004798:	f880 303d 	strb.w	r3, [r0, #61]	; 0x3d
  __HAL_TIM_ENABLE_IT(htim, TIM_IT_UPDATE);
 800479c:	6802      	ldr	r2, [r0, #0]
 800479e:	68d3      	ldr	r3, [r2, #12]
 80047a0:	f043 0301 	orr.w	r3, r3, #1
 80047a4:	60d3      	str	r3, [r2, #12]
  if (IS_TIM_SLAVE_INSTANCE(htim->Instance))
 80047a6:	6803      	ldr	r3, [r0, #0]
 80047a8:	4a11      	ldr	r2, [pc, #68]	; (80047f0 <HAL_TIM_Base_Start_IT+0x64>)
 80047aa:	4293      	cmp	r3, r2
 80047ac:	d010      	beq.n	80047d0 <HAL_TIM_Base_Start_IT+0x44>
 80047ae:	f1b3 4f80 	cmp.w	r3, #1073741824	; 0x40000000
 80047b2:	d00d      	beq.n	80047d0 <HAL_TIM_Base_Start_IT+0x44>
 80047b4:	f5a2 3294 	sub.w	r2, r2, #75776	; 0x12800
 80047b8:	4293      	cmp	r3, r2
 80047ba:	d009      	beq.n	80047d0 <HAL_TIM_Base_Start_IT+0x44>
 80047bc:	f502 6280 	add.w	r2, r2, #1024	; 0x400
 80047c0:	4293      	cmp	r3, r2
 80047c2:	d005      	beq.n	80047d0 <HAL_TIM_Base_Start_IT+0x44>
    __HAL_TIM_ENABLE(htim);
 80047c4:	681a      	ldr	r2, [r3, #0]
 80047c6:	f042 0201 	orr.w	r2, r2, #1
 80047ca:	601a      	str	r2, [r3, #0]
  return HAL_OK;
 80047cc:	2000      	movs	r0, #0
 80047ce:	4770      	bx	lr
    tmpsmcr = htim->Instance->SMCR & TIM_SMCR_SMS;
 80047d0:	689a      	ldr	r2, [r3, #8]
 80047d2:	f002 0207 	and.w	r2, r2, #7
    if (!IS_TIM_SLAVEMODE_TRIGGER_ENABLED(tmpsmcr))
 80047d6:	2a06      	cmp	r2, #6
 80047d8:	d007      	beq.n	80047ea <HAL_TIM_Base_Start_IT+0x5e>
      __HAL_TIM_ENABLE(htim);
 80047da:	681a      	ldr	r2, [r3, #0]
 80047dc:	f042 0201 	orr.w	r2, r2, #1
 80047e0:	601a      	str	r2, [r3, #0]
  return HAL_OK;
 80047e2:	2000      	movs	r0, #0
 80047e4:	4770      	bx	lr
    return HAL_ERROR;
 80047e6:	2001      	movs	r0, #1
 80047e8:	4770      	bx	lr
  return HAL_OK;
 80047ea:	2000      	movs	r0, #0
}
 80047ec:	4770      	bx	lr
 80047ee:	bf00      	nop
 80047f0:	40012c00 	.word	0x40012c00

080047f4 <HAL_TIM_Base_Stop_IT>:
  __HAL_TIM_DISABLE_IT(htim, TIM_IT_UPDATE);
 80047f4:	6802      	ldr	r2, [r0, #0]
 80047f6:	68d3      	ldr	r3, [r2, #12]
 80047f8:	f023 0301 	bic.w	r3, r3, #1
 80047fc:	60d3      	str	r3, [r2, #12]
  __HAL_TIM_DISABLE(htim);
 80047fe:	6803      	ldr	r3, [r0, #0]
 8004800:	6a19      	ldr	r1, [r3, #32]
 8004802:	f241 1211 	movw	r2, #4369	; 0x1111
 8004806:	4211      	tst	r1, r2
 8004808:	d108      	bne.n	800481c <HAL_TIM_Base_Stop_IT+0x28>
 800480a:	6a19      	ldr	r1, [r3, #32]
 800480c:	f240 4244 	movw	r2, #1092	; 0x444
 8004810:	4211      	tst	r1, r2
 8004812:	d103      	bne.n	800481c <HAL_TIM_Base_Stop_IT+0x28>
 8004814:	681a      	ldr	r2, [r3, #0]
 8004816:	f022 0201 	bic.w	r2, r2, #1
 800481a:	601a      	str	r2, [r3, #0]
  htim->State = HAL_TIM_STATE_READY;
 800481c:	2301      	movs	r3, #1
 800481e:	f880 303d 	strb.w	r3, [r0, #61]	; 0x3d
}
 8004822:	2000      	movs	r0, #0
 8004824:	4770      	bx	lr

08004826 <HAL_TIM_PWM_MspInit>:
}
 8004826:	4770      	bx	lr

08004828 <HAL_TIM_OC_DelayElapsedCallback>:
}
 8004828:	4770      	bx	lr

0800482a <HAL_TIM_IC_CaptureCallback>:
}
 800482a:	4770      	bx	lr

0800482c <HAL_TIM_PWM_PulseFinishedCallback>:
}
 800482c:	4770      	bx	lr

0800482e <HAL_TIM_TriggerCallback>:
}
 800482e:	4770      	bx	lr

08004830 <HAL_TIM_IRQHandler>:
{
 8004830:	b510      	push	{r4, lr}
 8004832:	4604      	mov	r4, r0
  if (__HAL_TIM_GET_FLAG(htim, TIM_FLAG_CC1) != RESET)
 8004834:	6803      	ldr	r3, [r0, #0]
 8004836:	691a      	ldr	r2, [r3, #16]
 8004838:	f012 0f02 	tst.w	r2, #2
 800483c:	d011      	beq.n	8004862 <HAL_TIM_IRQHandler+0x32>
    if (__HAL_TIM_GET_IT_SOURCE(htim, TIM_IT_CC1) != RESET)
 800483e:	68da      	ldr	r2, [r3, #12]
 8004840:	f012 0f02 	tst.w	r2, #2
 8004844:	d00d      	beq.n	8004862 <HAL_TIM_IRQHandler+0x32>
        __HAL_TIM_CLEAR_IT(htim, TIM_IT_CC1);
 8004846:	f06f 0202 	mvn.w	r2, #2
 800484a:	611a      	str	r2, [r3, #16]
        htim->Channel = HAL_TIM_ACTIVE_CHANNEL_1;
 800484c:	2301      	movs	r3, #1
 800484e:	7703      	strb	r3, [r0, #28]
        if ((htim->Instance->CCMR1 & TIM_CCMR1_CC1S) != 0x00U)
 8004850:	6803      	ldr	r3, [r0, #0]
 8004852:	699b      	ldr	r3, [r3, #24]
 8004854:	f013 0f03 	tst.w	r3, #3
 8004858:	d070      	beq.n	800493c <HAL_TIM_IRQHandler+0x10c>
          HAL_TIM_IC_CaptureCallback(htim);
 800485a:	f7ff ffe6 	bl	800482a <HAL_TIM_IC_CaptureCallback>
        htim->Channel = HAL_TIM_ACTIVE_CHANNEL_CLEARED;
 800485e:	2300      	movs	r3, #0
 8004860:	7723      	strb	r3, [r4, #28]
  if (__HAL_TIM_GET_FLAG(htim, TIM_FLAG_CC2) != RESET)
 8004862:	6823      	ldr	r3, [r4, #0]
 8004864:	691a      	ldr	r2, [r3, #16]
 8004866:	f012 0f04 	tst.w	r2, #4
 800486a:	d012      	beq.n	8004892 <HAL_TIM_IRQHandler+0x62>
    if (__HAL_TIM_GET_IT_SOURCE(htim, TIM_IT_CC2) != RESET)
 800486c:	68da      	ldr	r2, [r3, #12]
 800486e:	f012 0f04 	tst.w	r2, #4
 8004872:	d00e      	beq.n	8004892 <HAL_TIM_IRQHandler+0x62>
      __HAL_TIM_CLEAR_IT(htim, TIM_IT_CC2);
 8004874:	f06f 0204 	mvn.w	r2, #4
 8004878:	611a      	str	r2, [r3, #16]
      htim->Channel = HAL_TIM_ACTIVE_CHANNEL_2;
 800487a:	2302      	movs	r3, #2
 800487c:	7723      	strb	r3, [r4, #28]
      if ((htim->Instance->CCMR1 & TIM_CCMR1_CC2S) != 0x00U)
 800487e:	6823      	ldr	r3, [r4, #0]
 8004880:	699b      	ldr	r3, [r3, #24]
 8004882:	f413 7f40 	tst.w	r3, #768	; 0x300
 8004886:	d05f      	beq.n	8004948 <HAL_TIM_IRQHandler+0x118>
        HAL_TIM_IC_CaptureCallback(htim);
 8004888:	4620      	mov	r0, r4
 800488a:	f7ff ffce 	bl	800482a <HAL_TIM_IC_CaptureCallback>
      htim->Channel = HAL_TIM_ACTIVE_CHANNEL_CLEARED;
 800488e:	2300      	movs	r3, #0
 8004890:	7723      	strb	r3, [r4, #28]
  if (__HAL_TIM_GET_FLAG(htim, TIM_FLAG_CC3) != RESET)
 8004892:	6823      	ldr	r3, [r4, #0]
 8004894:	691a      	ldr	r2, [r3, #16]
 8004896:	f012 0f08 	tst.w	r2, #8
 800489a:	d012      	beq.n	80048c2 <HAL_TIM_IRQHandler+0x92>
    if (__HAL_TIM_GET_IT_SOURCE(htim, TIM_IT_CC3) != RESET)
 800489c:	68da      	ldr	r2, [r3, #12]
 800489e:	f012 0f08 	tst.w	r2, #8
 80048a2:	d00e      	beq.n	80048c2 <HAL_TIM_IRQHandler+0x92>
      __HAL_TIM_CLEAR_IT(htim, TIM_IT_CC3);
 80048a4:	f06f 0208 	mvn.w	r2, #8
 80048a8:	611a      	str	r2, [r3, #16]
      htim->Channel = HAL_TIM_ACTIVE_CHANNEL_3;
 80048aa:	2304      	movs	r3, #4
 80048ac:	7723      	strb	r3, [r4, #28]
      if ((htim->Instance->CCMR2 & TIM_CCMR2_CC3S) != 0x00U)
 80048ae:	6823      	ldr	r3, [r4, #0]
 80048b0:	69db      	ldr	r3, [r3, #28]
 80048b2:	f013 0f03 	tst.w	r3, #3
 80048b6:	d04e      	beq.n	8004956 <HAL_TIM_IRQHandler+0x126>
        HAL_TIM_IC_CaptureCallback(htim);
 80048b8:	4620      	mov	r0, r4
 80048ba:	f7ff ffb6 	bl	800482a <HAL_TIM_IC_CaptureCallback>
      htim->Channel = HAL_TIM_ACTIVE_CHANNEL_CLEARED;
 80048be:	2300      	movs	r3, #0
 80048c0:	7723      	strb	r3, [r4, #28]
  if (__HAL_TIM_GET_FLAG(htim, TIM_FLAG_CC4) != RESET)
 80048c2:	6823      	ldr	r3, [r4, #0]
 80048c4:	691a      	ldr	r2, [r3, #16]
 80048c6:	f012 0f10 	tst.w	r2, #16
 80048ca:	d012      	beq.n	80048f2 <HAL_TIM_IRQHandler+0xc2>
    if (__HAL_TIM_GET_IT_SOURCE(htim, TIM_IT_CC4) != RESET)
 80048cc:	68da      	ldr	r2, [r3, #12]
 80048ce:	f012 0f10 	tst.w	r2, #16
 80048d2:	d00e      	beq.n	80048f2 <HAL_TIM_IRQHandler+0xc2>
      __HAL_TIM_CLEAR_IT(htim, TIM_IT_CC4);
 80048d4:	f06f 0210 	mvn.w	r2, #16
 80048d8:	611a      	str	r2, [r3, #16]
      htim->Channel = HAL_TIM_ACTIVE_CHANNEL_4;
 80048da:	2308      	movs	r3, #8
 80048dc:	7723      	strb	r3, [r4, #28]
      if ((htim->Instance->CCMR2 & TIM_CCMR2_CC4S) != 0x00U)
 80048de:	6823      	ldr	r3, [r4, #0]
 80048e0:	69db      	ldr	r3, [r3, #28]
 80048e2:	f413 7f40 	tst.w	r3, #768	; 0x300
 80048e6:	d03d      	beq.n	8004964 <HAL_TIM_IRQHandler+0x134>
        HAL_TIM_IC_CaptureCallback(htim);
 80048e8:	4620      	mov	r0, r4
 80048ea:	f7ff ff9e 	bl	800482a <HAL_TIM_IC_CaptureCallback>
      htim->Channel = HAL_TIM_ACTIVE_CHANNEL_CLEARED;
 80048ee:	2300      	movs	r3, #0
 80048f0:	7723      	strb	r3, [r4, #28]
  if (__HAL_TIM_GET_FLAG(htim, TIM_FLAG_UPDATE) != RESET)
 80048f2:	6823      	ldr	r3, [r4, #0]
 80048f4:	691a      	ldr	r2, [r3, #16]
 80048f6:	f012 0f01 	tst.w	r2, #1
 80048fa:	d003      	beq.n	8004904 <HAL_TIM_IRQHandler+0xd4>
    if (__HAL_TIM_GET_IT_SOURCE(htim, TIM_IT_UPDATE) != RESET)
 80048fc:	68da      	ldr	r2, [r3, #12]
 80048fe:	f012 0f01 	tst.w	r2, #1
 8004902:	d136      	bne.n	8004972 <HAL_TIM_IRQHandler+0x142>
  if (__HAL_TIM_GET_FLAG(htim, TIM_FLAG_BREAK) != RESET)
 8004904:	6823      	ldr	r3, [r4, #0]
 8004906:	691a      	ldr	r2, [r3, #16]
 8004908:	f012 0f80 	tst.w	r2, #128	; 0x80
 800490c:	d003      	beq.n	8004916 <HAL_TIM_IRQHandler+0xe6>
    if (__HAL_TIM_GET_IT_SOURCE(htim, TIM_IT_BREAK) != RESET)
 800490e:	68da      	ldr	r2, [r3, #12]
 8004910:	f012 0f80 	tst.w	r2, #128	; 0x80
 8004914:	d134      	bne.n	8004980 <HAL_TIM_IRQHandler+0x150>
  if (__HAL_TIM_GET_FLAG(htim, TIM_FLAG_TRIGGER) != RESET)
 8004916:	6823      	ldr	r3, [r4, #0]
 8004918:	691a      	ldr	r2, [r3, #16]
 800491a:	f012 0f40 	tst.w	r2, #64	; 0x40
 800491e:	d003      	beq.n	8004928 <HAL_TIM_IRQHandler+0xf8>
    if (__HAL_TIM_GET_IT_SOURCE(htim, TIM_IT_TRIGGER) != RESET)
 8004920:	68da      	ldr	r2, [r3, #12]
 8004922:	f012 0f40 	tst.w	r2, #64	; 0x40
 8004926:	d132      	bne.n	800498e <HAL_TIM_IRQHandler+0x15e>
  if (__HAL_TIM_GET_FLAG(htim, TIM_FLAG_COM) != RESET)
 8004928:	6823      	ldr	r3, [r4, #0]
 800492a:	691a      	ldr	r2, [r3, #16]
 800492c:	f012 0f20 	tst.w	r2, #32
 8004930:	d003      	beq.n	800493a <HAL_TIM_IRQHandler+0x10a>
    if (__HAL_TIM_GET_IT_SOURCE(htim, TIM_IT_COM) != RESET)
 8004932:	68da      	ldr	r2, [r3, #12]
 8004934:	f012 0f20 	tst.w	r2, #32
 8004938:	d130      	bne.n	800499c <HAL_TIM_IRQHandler+0x16c>
}
 800493a:	bd10      	pop	{r4, pc}
          HAL_TIM_OC_DelayElapsedCallback(htim);
 800493c:	f7ff ff74 	bl	8004828 <HAL_TIM_OC_DelayElapsedCallback>
          HAL_TIM_PWM_PulseFinishedCallback(htim);
 8004940:	4620      	mov	r0, r4
 8004942:	f7ff ff73 	bl	800482c <HAL_TIM_PWM_PulseFinishedCallback>
 8004946:	e78a      	b.n	800485e <HAL_TIM_IRQHandler+0x2e>
        HAL_TIM_OC_DelayElapsedCallback(htim);
 8004948:	4620      	mov	r0, r4
 800494a:	f7ff ff6d 	bl	8004828 <HAL_TIM_OC_DelayElapsedCallback>
        HAL_TIM_PWM_PulseFinishedCallback(htim);
 800494e:	4620      	mov	r0, r4
 8004950:	f7ff ff6c 	bl	800482c <HAL_TIM_PWM_PulseFinishedCallback>
 8004954:	e79b      	b.n	800488e <HAL_TIM_IRQHandler+0x5e>
        HAL_TIM_OC_DelayElapsedCallback(htim);
 8004956:	4620      	mov	r0, r4
 8004958:	f7ff ff66 	bl	8004828 <HAL_TIM_OC_DelayElapsedCallback>
        HAL_TIM_PWM_PulseFinishedCallback(htim);
 800495c:	4620      	mov	r0, r4
 800495e:	f7ff ff65 	bl	800482c <HAL_TIM_PWM_PulseFinishedCallback>
 8004962:	e7ac      	b.n	80048be <HAL_TIM_IRQHandler+0x8e>
        HAL_TIM_OC_DelayElapsedCallback(htim);
 8004964:	4620      	mov	r0, r4
 8004966:	f7ff ff5f 	bl	8004828 <HAL_TIM_OC_DelayElapsedCallback>
        HAL_TIM_PWM_PulseFinishedCallback(htim);
 800496a:	4620      	mov	r0, r4
 800496c:	f7ff ff5e 	bl	800482c <HAL_TIM_PWM_PulseFinishedCallback>
 8004970:	e7bd      	b.n	80048ee <HAL_TIM_IRQHandler+0xbe>
      __HAL_TIM_CLEAR_IT(htim, TIM_IT_UPDATE);
 8004972:	f06f 0201 	mvn.w	r2, #1
 8004976:	611a      	str	r2, [r3, #16]
      HAL_TIM_PeriodElapsedCallback(htim);
 8004978:	4620      	mov	r0, r4
 800497a:	f7fc f9bd 	bl	8000cf8 <HAL_TIM_PeriodElapsedCallback>
 800497e:	e7c1      	b.n	8004904 <HAL_TIM_IRQHandler+0xd4>
      __HAL_TIM_CLEAR_IT(htim, TIM_IT_BREAK);
 8004980:	f06f 0280 	mvn.w	r2, #128	; 0x80
 8004984:	611a      	str	r2, [r3, #16]
      HAL_TIMEx_BreakCallback(htim);
 8004986:	4620      	mov	r0, r4
 8004988:	f000 fafd 	bl	8004f86 <HAL_TIMEx_BreakCallback>
 800498c:	e7c3      	b.n	8004916 <HAL_TIM_IRQHandler+0xe6>
      __HAL_TIM_CLEAR_IT(htim, TIM_IT_TRIGGER);
 800498e:	f06f 0240 	mvn.w	r2, #64	; 0x40
 8004992:	611a      	str	r2, [r3, #16]
      HAL_TIM_TriggerCallback(htim);
 8004994:	4620      	mov	r0, r4
 8004996:	f7ff ff4a 	bl	800482e <HAL_TIM_TriggerCallback>
 800499a:	e7c5      	b.n	8004928 <HAL_TIM_IRQHandler+0xf8>
      __HAL_TIM_CLEAR_IT(htim, TIM_FLAG_COM);
 800499c:	f06f 0220 	mvn.w	r2, #32
 80049a0:	611a      	str	r2, [r3, #16]
      HAL_TIMEx_CommutCallback(htim);
 80049a2:	4620      	mov	r0, r4
 80049a4:	f000 faee 	bl	8004f84 <HAL_TIMEx_CommutCallback>
}
 80049a8:	e7c7      	b.n	800493a <HAL_TIM_IRQHandler+0x10a>
	...

080049ac <TIM_Base_SetConfig>:
  tmpcr1 = TIMx->CR1;
 80049ac:	6803      	ldr	r3, [r0, #0]
  if (IS_TIM_COUNTER_MODE_SELECT_INSTANCE(TIMx))
 80049ae:	4a25      	ldr	r2, [pc, #148]	; (8004a44 <TIM_Base_SetConfig+0x98>)
 80049b0:	4290      	cmp	r0, r2
 80049b2:	d014      	beq.n	80049de <TIM_Base_SetConfig+0x32>
 80049b4:	f1b0 4f80 	cmp.w	r0, #1073741824	; 0x40000000
 80049b8:	d026      	beq.n	8004a08 <TIM_Base_SetConfig+0x5c>
 80049ba:	f5a2 3294 	sub.w	r2, r2, #75776	; 0x12800
 80049be:	4290      	cmp	r0, r2
 80049c0:	d036      	beq.n	8004a30 <TIM_Base_SetConfig+0x84>
 80049c2:	f502 6280 	add.w	r2, r2, #1024	; 0x400
 80049c6:	4290      	cmp	r0, r2
 80049c8:	d037      	beq.n	8004a3a <TIM_Base_SetConfig+0x8e>
  MODIFY_REG(tmpcr1, TIM_CR1_ARPE, Structure->AutoReloadPreload);
 80049ca:	f023 0380 	bic.w	r3, r3, #128	; 0x80
 80049ce:	694a      	ldr	r2, [r1, #20]
 80049d0:	4313      	orrs	r3, r2
  TIMx->CR1 = tmpcr1;
 80049d2:	6003      	str	r3, [r0, #0]
  TIMx->ARR = (uint32_t)Structure->Period ;
 80049d4:	688b      	ldr	r3, [r1, #8]
 80049d6:	62c3      	str	r3, [r0, #44]	; 0x2c
  TIMx->PSC = Structure->Prescaler;
 80049d8:	680b      	ldr	r3, [r1, #0]
 80049da:	6283      	str	r3, [r0, #40]	; 0x28
  if (IS_TIM_REPETITION_COUNTER_INSTANCE(TIMx))
 80049dc:	e025      	b.n	8004a2a <TIM_Base_SetConfig+0x7e>
    tmpcr1 &= ~(TIM_CR1_DIR | TIM_CR1_CMS);
 80049de:	f023 0370 	bic.w	r3, r3, #112	; 0x70
    tmpcr1 |= Structure->CounterMode;
 80049e2:	684a      	ldr	r2, [r1, #4]
 80049e4:	4313      	orrs	r3, r2
    tmpcr1 &= ~TIM_CR1_CKD;
 80049e6:	f423 7340 	bic.w	r3, r3, #768	; 0x300
    tmpcr1 |= (uint32_t)Structure->ClockDivision;
 80049ea:	68ca      	ldr	r2, [r1, #12]
 80049ec:	4313      	orrs	r3, r2
  MODIFY_REG(tmpcr1, TIM_CR1_ARPE, Structure->AutoReloadPreload);
 80049ee:	f023 0380 	bic.w	r3, r3, #128	; 0x80
 80049f2:	694a      	ldr	r2, [r1, #20]
 80049f4:	4313      	orrs	r3, r2
  TIMx->CR1 = tmpcr1;
 80049f6:	6003      	str	r3, [r0, #0]
  TIMx->ARR = (uint32_t)Structure->Period ;
 80049f8:	688b      	ldr	r3, [r1, #8]
 80049fa:	62c3      	str	r3, [r0, #44]	; 0x2c
  TIMx->PSC = Structure->Prescaler;
 80049fc:	680b      	ldr	r3, [r1, #0]
 80049fe:	6283      	str	r3, [r0, #40]	; 0x28
    TIMx->RCR = Structure->RepetitionCounter;
 8004a00:	690a      	ldr	r2, [r1, #16]
 8004a02:	4b10      	ldr	r3, [pc, #64]	; (8004a44 <TIM_Base_SetConfig+0x98>)
 8004a04:	631a      	str	r2, [r3, #48]	; 0x30
 8004a06:	e010      	b.n	8004a2a <TIM_Base_SetConfig+0x7e>
    tmpcr1 &= ~(TIM_CR1_DIR | TIM_CR1_CMS);
 8004a08:	f023 0370 	bic.w	r3, r3, #112	; 0x70
    tmpcr1 |= Structure->CounterMode;
 8004a0c:	684a      	ldr	r2, [r1, #4]
 8004a0e:	4313      	orrs	r3, r2
    tmpcr1 &= ~TIM_CR1_CKD;
 8004a10:	f423 7340 	bic.w	r3, r3, #768	; 0x300
    tmpcr1 |= (uint32_t)Structure->ClockDivision;
 8004a14:	68ca      	ldr	r2, [r1, #12]
 8004a16:	4313      	orrs	r3, r2
  MODIFY_REG(tmpcr1, TIM_CR1_ARPE, Structure->AutoReloadPreload);
 8004a18:	f023 0380 	bic.w	r3, r3, #128	; 0x80
 8004a1c:	694a      	ldr	r2, [r1, #20]
 8004a1e:	4313      	orrs	r3, r2
  TIMx->CR1 = tmpcr1;
 8004a20:	6003      	str	r3, [r0, #0]
  TIMx->ARR = (uint32_t)Structure->Period ;
 8004a22:	688b      	ldr	r3, [r1, #8]
 8004a24:	62c3      	str	r3, [r0, #44]	; 0x2c
  TIMx->PSC = Structure->Prescaler;
 8004a26:	680b      	ldr	r3, [r1, #0]
 8004a28:	6283      	str	r3, [r0, #40]	; 0x28
  TIMx->EGR = TIM_EGR_UG;
 8004a2a:	2301      	movs	r3, #1
 8004a2c:	6143      	str	r3, [r0, #20]
}
 8004a2e:	4770      	bx	lr
    tmpcr1 &= ~(TIM_CR1_DIR | TIM_CR1_CMS);
 8004a30:	f023 0370 	bic.w	r3, r3, #112	; 0x70
    tmpcr1 |= Structure->CounterMode;
 8004a34:	684a      	ldr	r2, [r1, #4]
 8004a36:	4313      	orrs	r3, r2
  if (IS_TIM_CLOCK_DIVISION_INSTANCE(TIMx))
 8004a38:	e7ea      	b.n	8004a10 <TIM_Base_SetConfig+0x64>
    tmpcr1 &= ~(TIM_CR1_DIR | TIM_CR1_CMS);
 8004a3a:	f023 0370 	bic.w	r3, r3, #112	; 0x70
    tmpcr1 |= Structure->CounterMode;
 8004a3e:	684a      	ldr	r2, [r1, #4]
 8004a40:	4313      	orrs	r3, r2
  if (IS_TIM_CLOCK_DIVISION_INSTANCE(TIMx))
 8004a42:	e7e5      	b.n	8004a10 <TIM_Base_SetConfig+0x64>
 8004a44:	40012c00 	.word	0x40012c00

08004a48 <HAL_TIM_Base_Init>:
  if (htim == NULL)
 8004a48:	b340      	cbz	r0, 8004a9c <HAL_TIM_Base_Init+0x54>
{
 8004a4a:	b510      	push	{r4, lr}
 8004a4c:	4604      	mov	r4, r0
  if (htim->State == HAL_TIM_STATE_RESET)
 8004a4e:	f890 303d 	ldrb.w	r3, [r0, #61]	; 0x3d
 8004a52:	b1f3      	cbz	r3, 8004a92 <HAL_TIM_Base_Init+0x4a>
  htim->State = HAL_TIM_STATE_BUSY;
 8004a54:	2302      	movs	r3, #2
 8004a56:	f884 303d 	strb.w	r3, [r4, #61]	; 0x3d
  TIM_Base_SetConfig(htim->Instance, &htim->Init);
 8004a5a:	4621      	mov	r1, r4
 8004a5c:	f851 0b04 	ldr.w	r0, [r1], #4
 8004a60:	f7ff ffa4 	bl	80049ac <TIM_Base_SetConfig>
  htim->DMABurstState = HAL_DMA_BURST_STATE_READY;
 8004a64:	2301      	movs	r3, #1
 8004a66:	f884 3046 	strb.w	r3, [r4, #70]	; 0x46
  TIM_CHANNEL_STATE_SET_ALL(htim, HAL_TIM_CHANNEL_STATE_READY);
 8004a6a:	f884 303e 	strb.w	r3, [r4, #62]	; 0x3e
 8004a6e:	f884 303f 	strb.w	r3, [r4, #63]	; 0x3f
 8004a72:	f884 3040 	strb.w	r3, [r4, #64]	; 0x40
 8004a76:	f884 3041 	strb.w	r3, [r4, #65]	; 0x41
  TIM_CHANNEL_N_STATE_SET_ALL(htim, HAL_TIM_CHANNEL_STATE_READY);
 8004a7a:	f884 3042 	strb.w	r3, [r4, #66]	; 0x42
 8004a7e:	f884 3043 	strb.w	r3, [r4, #67]	; 0x43
 8004a82:	f884 3044 	strb.w	r3, [r4, #68]	; 0x44
 8004a86:	f884 3045 	strb.w	r3, [r4, #69]	; 0x45
  htim->State = HAL_TIM_STATE_READY;
 8004a8a:	f884 303d 	strb.w	r3, [r4, #61]	; 0x3d
  return HAL_OK;
 8004a8e:	2000      	movs	r0, #0
}
 8004a90:	bd10      	pop	{r4, pc}
    htim->Lock = HAL_UNLOCKED;
 8004a92:	f880 303c 	strb.w	r3, [r0, #60]	; 0x3c
    HAL_TIM_Base_MspInit(htim);
 8004a96:	f7fd fc35 	bl	8002304 <HAL_TIM_Base_MspInit>
 8004a9a:	e7db      	b.n	8004a54 <HAL_TIM_Base_Init+0xc>
    return HAL_ERROR;
 8004a9c:	2001      	movs	r0, #1
}
 8004a9e:	4770      	bx	lr

08004aa0 <HAL_TIM_PWM_Init>:
  if (htim == NULL)
 8004aa0:	b340      	cbz	r0, 8004af4 <HAL_TIM_PWM_Init+0x54>
{
 8004aa2:	b510      	push	{r4, lr}
 8004aa4:	4604      	mov	r4, r0
  if (htim->State == HAL_TIM_STATE_RESET)
 8004aa6:	f890 303d 	ldrb.w	r3, [r0, #61]	; 0x3d
 8004aaa:	b1f3      	cbz	r3, 8004aea <HAL_TIM_PWM_Init+0x4a>
  htim->State = HAL_TIM_STATE_BUSY;
 8004aac:	2302      	movs	r3, #2
 8004aae:	f884 303d 	strb.w	r3, [r4, #61]	; 0x3d
  TIM_Base_SetConfig(htim->Instance, &htim->Init);
 8004ab2:	4621      	mov	r1, r4
 8004ab4:	f851 0b04 	ldr.w	r0, [r1], #4
 8004ab8:	f7ff ff78 	bl	80049ac <TIM_Base_SetConfig>
  htim->DMABurstState = HAL_DMA_BURST_STATE_READY;
 8004abc:	2301      	movs	r3, #1
 8004abe:	f884 3046 	strb.w	r3, [r4, #70]	; 0x46
  TIM_CHANNEL_STATE_SET_ALL(htim, HAL_TIM_CHANNEL_STATE_READY);
 8004ac2:	f884 303e 	strb.w	r3, [r4, #62]	; 0x3e
 8004ac6:	f884 303f 	strb.w	r3, [r4, #63]	; 0x3f
 8004aca:	f884 3040 	strb.w	r3, [r4, #64]	; 0x40
 8004ace:	f884 3041 	strb.w	r3, [r4, #65]	; 0x41
  TIM_CHANNEL_N_STATE_SET_ALL(htim, HAL_TIM_CHANNEL_STATE_READY);
 8004ad2:	f884 3042 	strb.w	r3, [r4, #66]	; 0x42
 8004ad6:	f884 3043 	strb.w	r3, [r4, #67]	; 0x43
 8004ada:	f884 3044 	strb.w	r3, [r4, #68]	; 0x44
 8004ade:	f884 3045 	strb.w	r3, [r4, #69]	; 0x45
  htim->State = HAL_TIM_STATE_READY;
 8004ae2:	f884 303d 	strb.w	r3, [r4, #61]	; 0x3d
  return HAL_OK;
 8004ae6:	2000      	movs	r0, #0
}
 8004ae8:	bd10      	pop	{r4, pc}
    htim->Lock = HAL_UNLOCKED;
 8004aea:	f880 303c 	strb.w	r3, [r0, #60]	; 0x3c
    HAL_TIM_PWM_MspInit(htim);
 8004aee:	f7ff fe9a 	bl	8004826 <HAL_TIM_PWM_MspInit>
 8004af2:	e7db      	b.n	8004aac <HAL_TIM_PWM_Init+0xc>
    return HAL_ERROR;
 8004af4:	2001      	movs	r0, #1
}
 8004af6:	4770      	bx	lr

08004af8 <TIM_OC2_SetConfig>:
{
 8004af8:	b470      	push	{r4, r5, r6}
  tmpccer = TIMx->CCER;
 8004afa:	6a03      	ldr	r3, [r0, #32]
  TIMx->CCER &= ~TIM_CCER_CC2E;
 8004afc:	6a02      	ldr	r2, [r0, #32]
 8004afe:	f022 0210 	bic.w	r2, r2, #16
 8004b02:	6202      	str	r2, [r0, #32]
  tmpcr2 =  TIMx->CR2;
 8004b04:	6844      	ldr	r4, [r0, #4]
  tmpccmrx = TIMx->CCMR1;
 8004b06:	6982      	ldr	r2, [r0, #24]
  tmpccmrx &= ~TIM_CCMR1_CC2S;
 8004b08:	f422 42e6 	bic.w	r2, r2, #29440	; 0x7300
  tmpccmrx |= (OC_Config->OCMode << 8U);
 8004b0c:	680d      	ldr	r5, [r1, #0]
 8004b0e:	ea42 2205 	orr.w	r2, r2, r5, lsl #8
  tmpccer &= ~TIM_CCER_CC2P;
 8004b12:	f023 0320 	bic.w	r3, r3, #32
  tmpccer |= (OC_Config->OCPolarity << 4U);
 8004b16:	688d      	ldr	r5, [r1, #8]
 8004b18:	ea43 1305 	orr.w	r3, r3, r5, lsl #4
  if (IS_TIM_CCXN_INSTANCE(TIMx, TIM_CHANNEL_2))
 8004b1c:	4d0c      	ldr	r5, [pc, #48]	; (8004b50 <TIM_OC2_SetConfig+0x58>)
 8004b1e:	42a8      	cmp	r0, r5
 8004b20:	d006      	beq.n	8004b30 <TIM_OC2_SetConfig+0x38>
  TIMx->CR2 = tmpcr2;
 8004b22:	6044      	str	r4, [r0, #4]
  TIMx->CCMR1 = tmpccmrx;
 8004b24:	6182      	str	r2, [r0, #24]
  TIMx->CCR2 = OC_Config->Pulse;
 8004b26:	684a      	ldr	r2, [r1, #4]
 8004b28:	6382      	str	r2, [r0, #56]	; 0x38
  TIMx->CCER = tmpccer;
 8004b2a:	6203      	str	r3, [r0, #32]
}
 8004b2c:	bc70      	pop	{r4, r5, r6}
 8004b2e:	4770      	bx	lr
    tmpccer &= ~TIM_CCER_CC2NP;
 8004b30:	f023 0380 	bic.w	r3, r3, #128	; 0x80
    tmpccer |= (OC_Config->OCNPolarity << 4U);
 8004b34:	68cd      	ldr	r5, [r1, #12]
 8004b36:	ea43 1305 	orr.w	r3, r3, r5, lsl #4
    tmpccer &= ~TIM_CCER_CC2NE;
 8004b3a:	f023 0340 	bic.w	r3, r3, #64	; 0x40
    tmpcr2 &= ~TIM_CR2_OIS2N;
 8004b3e:	f424 6440 	bic.w	r4, r4, #3072	; 0xc00
    tmpcr2 |= (OC_Config->OCIdleState << 2U);
 8004b42:	694d      	ldr	r5, [r1, #20]
    tmpcr2 |= (OC_Config->OCNIdleState << 2U);
 8004b44:	698e      	ldr	r6, [r1, #24]
 8004b46:	4335      	orrs	r5, r6
 8004b48:	ea44 0485 	orr.w	r4, r4, r5, lsl #2
 8004b4c:	e7e9      	b.n	8004b22 <TIM_OC2_SetConfig+0x2a>
 8004b4e:	bf00      	nop
 8004b50:	40012c00 	.word	0x40012c00

08004b54 <HAL_TIM_PWM_ConfigChannel>:
{
 8004b54:	b538      	push	{r3, r4, r5, lr}
  __HAL_LOCK(htim);
 8004b56:	f890 303c 	ldrb.w	r3, [r0, #60]	; 0x3c
 8004b5a:	2b01      	cmp	r3, #1
 8004b5c:	d066      	beq.n	8004c2c <HAL_TIM_PWM_ConfigChannel+0xd8>
 8004b5e:	4604      	mov	r4, r0
 8004b60:	460d      	mov	r5, r1
 8004b62:	2301      	movs	r3, #1
 8004b64:	f880 303c 	strb.w	r3, [r0, #60]	; 0x3c
  switch (Channel)
 8004b68:	2a0c      	cmp	r2, #12
 8004b6a:	d85a      	bhi.n	8004c22 <HAL_TIM_PWM_ConfigChannel+0xce>
 8004b6c:	e8df f002 	tbb	[pc, r2]
 8004b70:	59595907 	.word	0x59595907
 8004b74:	5959591b 	.word	0x5959591b
 8004b78:	59595930 	.word	0x59595930
 8004b7c:	44          	.byte	0x44
 8004b7d:	00          	.byte	0x00
      TIM_OC1_SetConfig(htim->Instance, sConfig);
 8004b7e:	6800      	ldr	r0, [r0, #0]
 8004b80:	f7ff fd8a 	bl	8004698 <TIM_OC1_SetConfig>
      htim->Instance->CCMR1 |= TIM_CCMR1_OC1PE;
 8004b84:	6822      	ldr	r2, [r4, #0]
 8004b86:	6993      	ldr	r3, [r2, #24]
 8004b88:	f043 0308 	orr.w	r3, r3, #8
 8004b8c:	6193      	str	r3, [r2, #24]
      htim->Instance->CCMR1 &= ~TIM_CCMR1_OC1FE;
 8004b8e:	6822      	ldr	r2, [r4, #0]
 8004b90:	6993      	ldr	r3, [r2, #24]
 8004b92:	f023 0304 	bic.w	r3, r3, #4
 8004b96:	6193      	str	r3, [r2, #24]
      htim->Instance->CCMR1 |= sConfig->OCFastMode;
 8004b98:	6822      	ldr	r2, [r4, #0]
 8004b9a:	6993      	ldr	r3, [r2, #24]
 8004b9c:	6929      	ldr	r1, [r5, #16]
 8004b9e:	430b      	orrs	r3, r1
 8004ba0:	6193      	str	r3, [r2, #24]
  HAL_StatusTypeDef status = HAL_OK;
 8004ba2:	2000      	movs	r0, #0
      break;
 8004ba4:	e03e      	b.n	8004c24 <HAL_TIM_PWM_ConfigChannel+0xd0>
      TIM_OC2_SetConfig(htim->Instance, sConfig);
 8004ba6:	6800      	ldr	r0, [r0, #0]
 8004ba8:	f7ff ffa6 	bl	8004af8 <TIM_OC2_SetConfig>
      htim->Instance->CCMR1 |= TIM_CCMR1_OC2PE;
 8004bac:	6822      	ldr	r2, [r4, #0]
 8004bae:	6993      	ldr	r3, [r2, #24]
 8004bb0:	f443 6300 	orr.w	r3, r3, #2048	; 0x800
 8004bb4:	6193      	str	r3, [r2, #24]
      htim->Instance->CCMR1 &= ~TIM_CCMR1_OC2FE;
 8004bb6:	6822      	ldr	r2, [r4, #0]
 8004bb8:	6993      	ldr	r3, [r2, #24]
 8004bba:	f423 6380 	bic.w	r3, r3, #1024	; 0x400
 8004bbe:	6193      	str	r3, [r2, #24]
      htim->Instance->CCMR1 |= sConfig->OCFastMode << 8U;
 8004bc0:	6822      	ldr	r2, [r4, #0]
 8004bc2:	6993      	ldr	r3, [r2, #24]
 8004bc4:	6929      	ldr	r1, [r5, #16]
 8004bc6:	ea43 2301 	orr.w	r3, r3, r1, lsl #8
 8004bca:	6193      	str	r3, [r2, #24]
  HAL_StatusTypeDef status = HAL_OK;
 8004bcc:	2000      	movs	r0, #0
      break;
 8004bce:	e029      	b.n	8004c24 <HAL_TIM_PWM_ConfigChannel+0xd0>
      TIM_OC3_SetConfig(htim->Instance, sConfig);
 8004bd0:	6800      	ldr	r0, [r0, #0]
 8004bd2:	f7ff fd8b 	bl	80046ec <TIM_OC3_SetConfig>
      htim->Instance->CCMR2 |= TIM_CCMR2_OC3PE;
 8004bd6:	6822      	ldr	r2, [r4, #0]
 8004bd8:	69d3      	ldr	r3, [r2, #28]
 8004bda:	f043 0308 	orr.w	r3, r3, #8
 8004bde:	61d3      	str	r3, [r2, #28]
      htim->Instance->CCMR2 &= ~TIM_CCMR2_OC3FE;
 8004be0:	6822      	ldr	r2, [r4, #0]
 8004be2:	69d3      	ldr	r3, [r2, #28]
 8004be4:	f023 0304 	bic.w	r3, r3, #4
 8004be8:	61d3      	str	r3, [r2, #28]
      htim->Instance->CCMR2 |= sConfig->OCFastMode;
 8004bea:	6822      	ldr	r2, [r4, #0]
 8004bec:	69d3      	ldr	r3, [r2, #28]
 8004bee:	6929      	ldr	r1, [r5, #16]
 8004bf0:	430b      	orrs	r3, r1
 8004bf2:	61d3      	str	r3, [r2, #28]
  HAL_StatusTypeDef status = HAL_OK;
 8004bf4:	2000      	movs	r0, #0
      break;
 8004bf6:	e015      	b.n	8004c24 <HAL_TIM_PWM_ConfigChannel+0xd0>
      TIM_OC4_SetConfig(htim->Instance, sConfig);
 8004bf8:	6800      	ldr	r0, [r0, #0]
 8004bfa:	f7ff fda3 	bl	8004744 <TIM_OC4_SetConfig>
      htim->Instance->CCMR2 |= TIM_CCMR2_OC4PE;
 8004bfe:	6822      	ldr	r2, [r4, #0]
 8004c00:	69d3      	ldr	r3, [r2, #28]
 8004c02:	f443 6300 	orr.w	r3, r3, #2048	; 0x800
 8004c06:	61d3      	str	r3, [r2, #28]
      htim->Instance->CCMR2 &= ~TIM_CCMR2_OC4FE;
 8004c08:	6822      	ldr	r2, [r4, #0]
 8004c0a:	69d3      	ldr	r3, [r2, #28]
 8004c0c:	f423 6380 	bic.w	r3, r3, #1024	; 0x400
 8004c10:	61d3      	str	r3, [r2, #28]
      htim->Instance->CCMR2 |= sConfig->OCFastMode << 8U;
 8004c12:	6822      	ldr	r2, [r4, #0]
 8004c14:	69d3      	ldr	r3, [r2, #28]
 8004c16:	6929      	ldr	r1, [r5, #16]
 8004c18:	ea43 2301 	orr.w	r3, r3, r1, lsl #8
 8004c1c:	61d3      	str	r3, [r2, #28]
  HAL_StatusTypeDef status = HAL_OK;
 8004c1e:	2000      	movs	r0, #0
      break;
 8004c20:	e000      	b.n	8004c24 <HAL_TIM_PWM_ConfigChannel+0xd0>
  switch (Channel)
 8004c22:	2001      	movs	r0, #1
  __HAL_UNLOCK(htim);
 8004c24:	2300      	movs	r3, #0
 8004c26:	f884 303c 	strb.w	r3, [r4, #60]	; 0x3c
}
 8004c2a:	bd38      	pop	{r3, r4, r5, pc}
  __HAL_LOCK(htim);
 8004c2c:	2002      	movs	r0, #2
 8004c2e:	e7fc      	b.n	8004c2a <HAL_TIM_PWM_ConfigChannel+0xd6>

08004c30 <TIM_ETR_SetConfig>:
  *          This parameter must be a value between 0x00 and 0x0F
  * @retval None
  */
void TIM_ETR_SetConfig(TIM_TypeDef *TIMx, uint32_t TIM_ExtTRGPrescaler,
                       uint32_t TIM_ExtTRGPolarity, uint32_t ExtTRGFilter)
{
 8004c30:	b410      	push	{r4}
  uint32_t tmpsmcr;

  tmpsmcr = TIMx->SMCR;
 8004c32:	6884      	ldr	r4, [r0, #8]

  /* Reset the ETR Bits */
  tmpsmcr &= ~(TIM_SMCR_ETF | TIM_SMCR_ETPS | TIM_SMCR_ECE | TIM_SMCR_ETP);
 8004c34:	f424 4c7f 	bic.w	ip, r4, #65280	; 0xff00

  /* Set the Prescaler, the Filter value and the Polarity */
  tmpsmcr |= (uint32_t)(TIM_ExtTRGPrescaler | (TIM_ExtTRGPolarity | (ExtTRGFilter << 8U)));
 8004c38:	430a      	orrs	r2, r1
 8004c3a:	ea42 2203 	orr.w	r2, r2, r3, lsl #8
 8004c3e:	ea42 020c 	orr.w	r2, r2, ip

  /* Write to TIMx SMCR */
  TIMx->SMCR = tmpsmcr;
 8004c42:	6082      	str	r2, [r0, #8]
}
 8004c44:	bc10      	pop	{r4}
 8004c46:	4770      	bx	lr

08004c48 <HAL_TIM_ConfigClockSource>:
{
 8004c48:	b538      	push	{r3, r4, r5, lr}
  __HAL_LOCK(htim);
 8004c4a:	f890 303c 	ldrb.w	r3, [r0, #60]	; 0x3c
 8004c4e:	2b01      	cmp	r3, #1
 8004c50:	f000 80ad 	beq.w	8004dae <HAL_TIM_ConfigClockSource+0x166>
 8004c54:	4604      	mov	r4, r0
 8004c56:	2301      	movs	r3, #1
 8004c58:	f880 303c 	strb.w	r3, [r0, #60]	; 0x3c
  htim->State = HAL_TIM_STATE_BUSY;
 8004c5c:	2302      	movs	r3, #2
 8004c5e:	f880 303d 	strb.w	r3, [r0, #61]	; 0x3d
  tmpsmcr = htim->Instance->SMCR;
 8004c62:	6802      	ldr	r2, [r0, #0]
 8004c64:	6893      	ldr	r3, [r2, #8]
  tmpsmcr &= ~(TIM_SMCR_ETF | TIM_SMCR_ETPS | TIM_SMCR_ECE | TIM_SMCR_ETP);
 8004c66:	f423 437f 	bic.w	r3, r3, #65280	; 0xff00
 8004c6a:	f023 0377 	bic.w	r3, r3, #119	; 0x77
  htim->Instance->SMCR = tmpsmcr;
 8004c6e:	6093      	str	r3, [r2, #8]
  switch (sClockSourceConfig->ClockSource)
 8004c70:	680b      	ldr	r3, [r1, #0]
 8004c72:	2b60      	cmp	r3, #96	; 0x60
 8004c74:	d060      	beq.n	8004d38 <HAL_TIM_ConfigClockSource+0xf0>
 8004c76:	d83d      	bhi.n	8004cf4 <HAL_TIM_ConfigClockSource+0xac>
 8004c78:	2b40      	cmp	r3, #64	; 0x40
 8004c7a:	d079      	beq.n	8004d70 <HAL_TIM_ConfigClockSource+0x128>
 8004c7c:	d91c      	bls.n	8004cb8 <HAL_TIM_ConfigClockSource+0x70>
 8004c7e:	2b50      	cmp	r3, #80	; 0x50
 8004c80:	d136      	bne.n	8004cf0 <HAL_TIM_ConfigClockSource+0xa8>
      TIM_TI1_ConfigInputStage(htim->Instance,
 8004c82:	6803      	ldr	r3, [r0, #0]
                               sClockSourceConfig->ClockPolarity,
 8004c84:	6848      	ldr	r0, [r1, #4]
                               sClockSourceConfig->ClockFilter);
 8004c86:	68cd      	ldr	r5, [r1, #12]
  tmpccer = TIMx->CCER;
 8004c88:	6a19      	ldr	r1, [r3, #32]
  TIMx->CCER &= ~TIM_CCER_CC1E;
 8004c8a:	6a1a      	ldr	r2, [r3, #32]
 8004c8c:	f022 0201 	bic.w	r2, r2, #1
 8004c90:	621a      	str	r2, [r3, #32]
  tmpccmr1 = TIMx->CCMR1;
 8004c92:	699a      	ldr	r2, [r3, #24]
  tmpccmr1 &= ~TIM_CCMR1_IC1F;
 8004c94:	f022 02f0 	bic.w	r2, r2, #240	; 0xf0
  tmpccmr1 |= (TIM_ICFilter << 4U);
 8004c98:	ea42 1205 	orr.w	r2, r2, r5, lsl #4
  tmpccer &= ~(TIM_CCER_CC1P | TIM_CCER_CC1NP);
 8004c9c:	f021 010a 	bic.w	r1, r1, #10
  tmpccer |= TIM_ICPolarity;
 8004ca0:	4301      	orrs	r1, r0
  TIMx->CCMR1 = tmpccmr1;
 8004ca2:	619a      	str	r2, [r3, #24]
  TIMx->CCER = tmpccer;
 8004ca4:	6219      	str	r1, [r3, #32]
      TIM_ITRx_SetConfig(htim->Instance, TIM_CLOCKSOURCE_TI1);
 8004ca6:	6822      	ldr	r2, [r4, #0]
  tmpsmcr = TIMx->SMCR;
 8004ca8:	6893      	ldr	r3, [r2, #8]
  tmpsmcr &= ~TIM_SMCR_TS;
 8004caa:	f023 0370 	bic.w	r3, r3, #112	; 0x70
  tmpsmcr |= (InputTriggerSource | TIM_SLAVEMODE_EXTERNAL1);
 8004cae:	f043 0357 	orr.w	r3, r3, #87	; 0x57
  TIMx->SMCR = tmpsmcr;
 8004cb2:	6093      	str	r3, [r2, #8]
  HAL_StatusTypeDef status = HAL_OK;
 8004cb4:	2000      	movs	r0, #0
}
 8004cb6:	e012      	b.n	8004cde <HAL_TIM_ConfigClockSource+0x96>
  switch (sClockSourceConfig->ClockSource)
 8004cb8:	2b20      	cmp	r3, #32
 8004cba:	d002      	beq.n	8004cc2 <HAL_TIM_ConfigClockSource+0x7a>
 8004cbc:	d90b      	bls.n	8004cd6 <HAL_TIM_ConfigClockSource+0x8e>
 8004cbe:	2b30      	cmp	r3, #48	; 0x30
 8004cc0:	d114      	bne.n	8004cec <HAL_TIM_ConfigClockSource+0xa4>
      TIM_ITRx_SetConfig(htim->Instance, sClockSourceConfig->ClockSource);
 8004cc2:	6821      	ldr	r1, [r4, #0]
  tmpsmcr = TIMx->SMCR;
 8004cc4:	688a      	ldr	r2, [r1, #8]
  tmpsmcr &= ~TIM_SMCR_TS;
 8004cc6:	f022 0270 	bic.w	r2, r2, #112	; 0x70
  tmpsmcr |= (InputTriggerSource | TIM_SLAVEMODE_EXTERNAL1);
 8004cca:	4313      	orrs	r3, r2
 8004ccc:	f043 0307 	orr.w	r3, r3, #7
  TIMx->SMCR = tmpsmcr;
 8004cd0:	608b      	str	r3, [r1, #8]
  HAL_StatusTypeDef status = HAL_OK;
 8004cd2:	2000      	movs	r0, #0
}
 8004cd4:	e003      	b.n	8004cde <HAL_TIM_ConfigClockSource+0x96>
  switch (sClockSourceConfig->ClockSource)
 8004cd6:	f033 0210 	bics.w	r2, r3, #16
 8004cda:	d0f2      	beq.n	8004cc2 <HAL_TIM_ConfigClockSource+0x7a>
 8004cdc:	2001      	movs	r0, #1
  htim->State = HAL_TIM_STATE_READY;
 8004cde:	2301      	movs	r3, #1
 8004ce0:	f884 303d 	strb.w	r3, [r4, #61]	; 0x3d
  __HAL_UNLOCK(htim);
 8004ce4:	2300      	movs	r3, #0
 8004ce6:	f884 303c 	strb.w	r3, [r4, #60]	; 0x3c
}
 8004cea:	bd38      	pop	{r3, r4, r5, pc}
  switch (sClockSourceConfig->ClockSource)
 8004cec:	2001      	movs	r0, #1
 8004cee:	e7f6      	b.n	8004cde <HAL_TIM_ConfigClockSource+0x96>
 8004cf0:	2001      	movs	r0, #1
 8004cf2:	e7f4      	b.n	8004cde <HAL_TIM_ConfigClockSource+0x96>
 8004cf4:	f5b3 5f80 	cmp.w	r3, #4096	; 0x1000
 8004cf8:	d055      	beq.n	8004da6 <HAL_TIM_ConfigClockSource+0x15e>
 8004cfa:	f5b3 5f00 	cmp.w	r3, #8192	; 0x2000
 8004cfe:	d10c      	bne.n	8004d1a <HAL_TIM_ConfigClockSource+0xd2>
      TIM_ETR_SetConfig(htim->Instance,
 8004d00:	68cb      	ldr	r3, [r1, #12]
 8004d02:	684a      	ldr	r2, [r1, #4]
 8004d04:	6889      	ldr	r1, [r1, #8]
 8004d06:	6800      	ldr	r0, [r0, #0]
 8004d08:	f7ff ff92 	bl	8004c30 <TIM_ETR_SetConfig>
      htim->Instance->SMCR |= TIM_SMCR_ECE;
 8004d0c:	6822      	ldr	r2, [r4, #0]
 8004d0e:	6893      	ldr	r3, [r2, #8]
 8004d10:	f443 4380 	orr.w	r3, r3, #16384	; 0x4000
 8004d14:	6093      	str	r3, [r2, #8]
  HAL_StatusTypeDef status = HAL_OK;
 8004d16:	2000      	movs	r0, #0
      break;
 8004d18:	e7e1      	b.n	8004cde <HAL_TIM_ConfigClockSource+0x96>
  switch (sClockSourceConfig->ClockSource)
 8004d1a:	2b70      	cmp	r3, #112	; 0x70
 8004d1c:	d145      	bne.n	8004daa <HAL_TIM_ConfigClockSource+0x162>
      TIM_ETR_SetConfig(htim->Instance,
 8004d1e:	68cb      	ldr	r3, [r1, #12]
 8004d20:	684a      	ldr	r2, [r1, #4]
 8004d22:	6889      	ldr	r1, [r1, #8]
 8004d24:	6800      	ldr	r0, [r0, #0]
 8004d26:	f7ff ff83 	bl	8004c30 <TIM_ETR_SetConfig>
      tmpsmcr = htim->Instance->SMCR;
 8004d2a:	6822      	ldr	r2, [r4, #0]
 8004d2c:	6893      	ldr	r3, [r2, #8]
      tmpsmcr |= (TIM_SLAVEMODE_EXTERNAL1 | TIM_CLOCKSOURCE_ETRMODE1);
 8004d2e:	f043 0377 	orr.w	r3, r3, #119	; 0x77
      htim->Instance->SMCR = tmpsmcr;
 8004d32:	6093      	str	r3, [r2, #8]
  HAL_StatusTypeDef status = HAL_OK;
 8004d34:	2000      	movs	r0, #0
      break;
 8004d36:	e7d2      	b.n	8004cde <HAL_TIM_ConfigClockSource+0x96>
      TIM_TI2_ConfigInputStage(htim->Instance,
 8004d38:	6803      	ldr	r3, [r0, #0]
                               sClockSourceConfig->ClockPolarity,
 8004d3a:	6848      	ldr	r0, [r1, #4]
                               sClockSourceConfig->ClockFilter);
 8004d3c:	68cd      	ldr	r5, [r1, #12]
  tmpccer = TIMx->CCER;
 8004d3e:	6a1a      	ldr	r2, [r3, #32]
  TIMx->CCER &= ~TIM_CCER_CC2E;
 8004d40:	6a19      	ldr	r1, [r3, #32]
 8004d42:	f021 0110 	bic.w	r1, r1, #16
 8004d46:	6219      	str	r1, [r3, #32]
  tmpccmr1 = TIMx->CCMR1;
 8004d48:	6999      	ldr	r1, [r3, #24]
  tmpccmr1 &= ~TIM_CCMR1_IC2F;
 8004d4a:	f421 4170 	bic.w	r1, r1, #61440	; 0xf000
  tmpccmr1 |= (TIM_ICFilter << 12U);
 8004d4e:	ea41 3105 	orr.w	r1, r1, r5, lsl #12
  tmpccer &= ~(TIM_CCER_CC2P | TIM_CCER_CC2NP);
 8004d52:	f022 02a0 	bic.w	r2, r2, #160	; 0xa0
  tmpccer |= (TIM_ICPolarity << 4U);
 8004d56:	ea42 1200 	orr.w	r2, r2, r0, lsl #4
  TIMx->CCMR1 = tmpccmr1 ;
 8004d5a:	6199      	str	r1, [r3, #24]
  TIMx->CCER = tmpccer;
 8004d5c:	621a      	str	r2, [r3, #32]
      TIM_ITRx_SetConfig(htim->Instance, TIM_CLOCKSOURCE_TI2);
 8004d5e:	6822      	ldr	r2, [r4, #0]
  tmpsmcr = TIMx->SMCR;
 8004d60:	6893      	ldr	r3, [r2, #8]
  tmpsmcr &= ~TIM_SMCR_TS;
 8004d62:	f023 0370 	bic.w	r3, r3, #112	; 0x70
  tmpsmcr |= (InputTriggerSource | TIM_SLAVEMODE_EXTERNAL1);
 8004d66:	f043 0367 	orr.w	r3, r3, #103	; 0x67
  TIMx->SMCR = tmpsmcr;
 8004d6a:	6093      	str	r3, [r2, #8]
  HAL_StatusTypeDef status = HAL_OK;
 8004d6c:	2000      	movs	r0, #0
}
 8004d6e:	e7b6      	b.n	8004cde <HAL_TIM_ConfigClockSource+0x96>
      TIM_TI1_ConfigInputStage(htim->Instance,
 8004d70:	6803      	ldr	r3, [r0, #0]
                               sClockSourceConfig->ClockPolarity,
 8004d72:	6848      	ldr	r0, [r1, #4]
                               sClockSourceConfig->ClockFilter);
 8004d74:	68cd      	ldr	r5, [r1, #12]
  tmpccer = TIMx->CCER;
 8004d76:	6a19      	ldr	r1, [r3, #32]
  TIMx->CCER &= ~TIM_CCER_CC1E;
 8004d78:	6a1a      	ldr	r2, [r3, #32]
 8004d7a:	f022 0201 	bic.w	r2, r2, #1
 8004d7e:	621a      	str	r2, [r3, #32]
  tmpccmr1 = TIMx->CCMR1;
 8004d80:	699a      	ldr	r2, [r3, #24]
  tmpccmr1 &= ~TIM_CCMR1_IC1F;
 8004d82:	f022 02f0 	bic.w	r2, r2, #240	; 0xf0
  tmpccmr1 |= (TIM_ICFilter << 4U);
 8004d86:	ea42 1205 	orr.w	r2, r2, r5, lsl #4
  tmpccer &= ~(TIM_CCER_CC1P | TIM_CCER_CC1NP);
 8004d8a:	f021 010a 	bic.w	r1, r1, #10
  tmpccer |= TIM_ICPolarity;
 8004d8e:	4301      	orrs	r1, r0
  TIMx->CCMR1 = tmpccmr1;
 8004d90:	619a      	str	r2, [r3, #24]
  TIMx->CCER = tmpccer;
 8004d92:	6219      	str	r1, [r3, #32]
      TIM_ITRx_SetConfig(htim->Instance, TIM_CLOCKSOURCE_TI1ED);
 8004d94:	6822      	ldr	r2, [r4, #0]
  tmpsmcr = TIMx->SMCR;
 8004d96:	6893      	ldr	r3, [r2, #8]
  tmpsmcr &= ~TIM_SMCR_TS;
 8004d98:	f023 0370 	bic.w	r3, r3, #112	; 0x70
  tmpsmcr |= (InputTriggerSource | TIM_SLAVEMODE_EXTERNAL1);
 8004d9c:	f043 0347 	orr.w	r3, r3, #71	; 0x47
  TIMx->SMCR = tmpsmcr;
 8004da0:	6093      	str	r3, [r2, #8]
  HAL_StatusTypeDef status = HAL_OK;
 8004da2:	2000      	movs	r0, #0
}
 8004da4:	e79b      	b.n	8004cde <HAL_TIM_ConfigClockSource+0x96>
  HAL_StatusTypeDef status = HAL_OK;
 8004da6:	2000      	movs	r0, #0
 8004da8:	e799      	b.n	8004cde <HAL_TIM_ConfigClockSource+0x96>
  switch (sClockSourceConfig->ClockSource)
 8004daa:	2001      	movs	r0, #1
 8004dac:	e797      	b.n	8004cde <HAL_TIM_ConfigClockSource+0x96>
  __HAL_LOCK(htim);
 8004dae:	2002      	movs	r0, #2
 8004db0:	e79b      	b.n	8004cea <HAL_TIM_ConfigClockSource+0xa2>

08004db2 <TIM_CCxChannelCmd>:

  /* Check the parameters */
  assert_param(IS_TIM_CC1_INSTANCE(TIMx));
  assert_param(IS_TIM_CHANNELS(Channel));

  tmp = TIM_CCER_CC1E << (Channel & 0x1FU); /* 0x1FU = 31 bits max shift */
 8004db2:	f001 011f 	and.w	r1, r1, #31

  /* Reset the CCxE Bit */
  TIMx->CCER &= ~tmp;
 8004db6:	6a03      	ldr	r3, [r0, #32]
  tmp = TIM_CCER_CC1E << (Channel & 0x1FU); /* 0x1FU = 31 bits max shift */
 8004db8:	f04f 0c01 	mov.w	ip, #1
 8004dbc:	fa0c fc01 	lsl.w	ip, ip, r1
  TIMx->CCER &= ~tmp;
 8004dc0:	ea23 030c 	bic.w	r3, r3, ip
 8004dc4:	6203      	str	r3, [r0, #32]

  /* Set or reset the CCxE Bit */
  TIMx->CCER |= (uint32_t)(ChannelState << (Channel & 0x1FU)); /* 0x1FU = 31 bits max shift */
 8004dc6:	6a03      	ldr	r3, [r0, #32]
 8004dc8:	408a      	lsls	r2, r1
 8004dca:	431a      	orrs	r2, r3
 8004dcc:	6202      	str	r2, [r0, #32]
}
 8004dce:	4770      	bx	lr

08004dd0 <HAL_TIM_PWM_Start>:
{
 8004dd0:	b510      	push	{r4, lr}
 8004dd2:	4604      	mov	r4, r0
  if (TIM_CHANNEL_STATE_GET(htim, Channel) != HAL_TIM_CHANNEL_STATE_READY)
 8004dd4:	4608      	mov	r0, r1
 8004dd6:	bb01      	cbnz	r1, 8004e1a <HAL_TIM_PWM_Start+0x4a>
 8004dd8:	f894 303e 	ldrb.w	r3, [r4, #62]	; 0x3e
 8004ddc:	b2db      	uxtb	r3, r3
 8004dde:	2b01      	cmp	r3, #1
 8004de0:	d152      	bne.n	8004e88 <HAL_TIM_PWM_Start+0xb8>
  TIM_CHANNEL_STATE_SET(htim, Channel, HAL_TIM_CHANNEL_STATE_BUSY);
 8004de2:	2302      	movs	r3, #2
 8004de4:	f884 303e 	strb.w	r3, [r4, #62]	; 0x3e
  TIM_CCxChannelCmd(htim->Instance, Channel, TIM_CCx_ENABLE);
 8004de8:	2201      	movs	r2, #1
 8004dea:	4601      	mov	r1, r0
 8004dec:	6820      	ldr	r0, [r4, #0]
 8004dee:	f7ff ffe0 	bl	8004db2 <TIM_CCxChannelCmd>
  if (IS_TIM_BREAK_INSTANCE(htim->Instance) != RESET)
 8004df2:	6823      	ldr	r3, [r4, #0]
 8004df4:	4a26      	ldr	r2, [pc, #152]	; (8004e90 <HAL_TIM_PWM_Start+0xc0>)
 8004df6:	4293      	cmp	r3, r2
 8004df8:	d034      	beq.n	8004e64 <HAL_TIM_PWM_Start+0x94>
  if (IS_TIM_SLAVE_INSTANCE(htim->Instance))
 8004dfa:	f1b3 4f80 	cmp.w	r3, #1073741824	; 0x40000000
 8004dfe:	d038      	beq.n	8004e72 <HAL_TIM_PWM_Start+0xa2>
 8004e00:	4a24      	ldr	r2, [pc, #144]	; (8004e94 <HAL_TIM_PWM_Start+0xc4>)
 8004e02:	4293      	cmp	r3, r2
 8004e04:	d035      	beq.n	8004e72 <HAL_TIM_PWM_Start+0xa2>
 8004e06:	f502 6280 	add.w	r2, r2, #1024	; 0x400
 8004e0a:	4293      	cmp	r3, r2
 8004e0c:	d031      	beq.n	8004e72 <HAL_TIM_PWM_Start+0xa2>
    __HAL_TIM_ENABLE(htim);
 8004e0e:	681a      	ldr	r2, [r3, #0]
 8004e10:	f042 0201 	orr.w	r2, r2, #1
 8004e14:	601a      	str	r2, [r3, #0]
  return HAL_OK;
 8004e16:	2000      	movs	r0, #0
 8004e18:	e035      	b.n	8004e86 <HAL_TIM_PWM_Start+0xb6>
  if (TIM_CHANNEL_STATE_GET(htim, Channel) != HAL_TIM_CHANNEL_STATE_READY)
 8004e1a:	2904      	cmp	r1, #4
 8004e1c:	d00c      	beq.n	8004e38 <HAL_TIM_PWM_Start+0x68>
 8004e1e:	2908      	cmp	r1, #8
 8004e20:	bf0c      	ite	eq
 8004e22:	f894 3040 	ldrbeq.w	r3, [r4, #64]	; 0x40
 8004e26:	f894 3041 	ldrbne.w	r3, [r4, #65]	; 0x41
 8004e2a:	b2db      	uxtb	r3, r3
 8004e2c:	3b01      	subs	r3, #1
 8004e2e:	bf18      	it	ne
 8004e30:	2301      	movne	r3, #1
 8004e32:	b143      	cbz	r3, 8004e46 <HAL_TIM_PWM_Start+0x76>
    return HAL_ERROR;
 8004e34:	2001      	movs	r0, #1
 8004e36:	e026      	b.n	8004e86 <HAL_TIM_PWM_Start+0xb6>
  if (TIM_CHANNEL_STATE_GET(htim, Channel) != HAL_TIM_CHANNEL_STATE_READY)
 8004e38:	f894 303f 	ldrb.w	r3, [r4, #63]	; 0x3f
 8004e3c:	b2db      	uxtb	r3, r3
 8004e3e:	3b01      	subs	r3, #1
 8004e40:	bf18      	it	ne
 8004e42:	2301      	movne	r3, #1
 8004e44:	e7f5      	b.n	8004e32 <HAL_TIM_PWM_Start+0x62>
  TIM_CHANNEL_STATE_SET(htim, Channel, HAL_TIM_CHANNEL_STATE_BUSY);
 8004e46:	2804      	cmp	r0, #4
 8004e48:	d008      	beq.n	8004e5c <HAL_TIM_PWM_Start+0x8c>
 8004e4a:	2808      	cmp	r0, #8
 8004e4c:	f04f 0302 	mov.w	r3, #2
 8004e50:	bf0c      	ite	eq
 8004e52:	f884 3040 	strbeq.w	r3, [r4, #64]	; 0x40
 8004e56:	f884 3041 	strbne.w	r3, [r4, #65]	; 0x41
 8004e5a:	e7c5      	b.n	8004de8 <HAL_TIM_PWM_Start+0x18>
 8004e5c:	2302      	movs	r3, #2
 8004e5e:	f884 303f 	strb.w	r3, [r4, #63]	; 0x3f
 8004e62:	e7c1      	b.n	8004de8 <HAL_TIM_PWM_Start+0x18>
    __HAL_TIM_MOE_ENABLE(htim);
 8004e64:	6c53      	ldr	r3, [r2, #68]	; 0x44
 8004e66:	f443 4300 	orr.w	r3, r3, #32768	; 0x8000
 8004e6a:	6453      	str	r3, [r2, #68]	; 0x44
  if (IS_TIM_SLAVE_INSTANCE(htim->Instance))
 8004e6c:	6823      	ldr	r3, [r4, #0]
 8004e6e:	4293      	cmp	r3, r2
 8004e70:	d1c3      	bne.n	8004dfa <HAL_TIM_PWM_Start+0x2a>
    tmpsmcr = htim->Instance->SMCR & TIM_SMCR_SMS;
 8004e72:	689a      	ldr	r2, [r3, #8]
 8004e74:	f002 0207 	and.w	r2, r2, #7
    if (!IS_TIM_SLAVEMODE_TRIGGER_ENABLED(tmpsmcr))
 8004e78:	2a06      	cmp	r2, #6
 8004e7a:	d007      	beq.n	8004e8c <HAL_TIM_PWM_Start+0xbc>
      __HAL_TIM_ENABLE(htim);
 8004e7c:	681a      	ldr	r2, [r3, #0]
 8004e7e:	f042 0201 	orr.w	r2, r2, #1
 8004e82:	601a      	str	r2, [r3, #0]
  return HAL_OK;
 8004e84:	2000      	movs	r0, #0
}
 8004e86:	bd10      	pop	{r4, pc}
    return HAL_ERROR;
 8004e88:	2001      	movs	r0, #1
 8004e8a:	e7fc      	b.n	8004e86 <HAL_TIM_PWM_Start+0xb6>
  return HAL_OK;
 8004e8c:	2000      	movs	r0, #0
 8004e8e:	e7fa      	b.n	8004e86 <HAL_TIM_PWM_Start+0xb6>
 8004e90:	40012c00 	.word	0x40012c00
 8004e94:	40000400 	.word	0x40000400

08004e98 <HAL_TIM_PWM_Stop>:
{
 8004e98:	b538      	push	{r3, r4, r5, lr}
 8004e9a:	4604      	mov	r4, r0
 8004e9c:	460d      	mov	r5, r1
  TIM_CCxChannelCmd(htim->Instance, Channel, TIM_CCx_DISABLE);
 8004e9e:	2200      	movs	r2, #0
 8004ea0:	6800      	ldr	r0, [r0, #0]
 8004ea2:	f7ff ff86 	bl	8004db2 <TIM_CCxChannelCmd>
  if (IS_TIM_BREAK_INSTANCE(htim->Instance) != RESET)
 8004ea6:	6822      	ldr	r2, [r4, #0]
 8004ea8:	4b1b      	ldr	r3, [pc, #108]	; (8004f18 <HAL_TIM_PWM_Stop+0x80>)
 8004eaa:	429a      	cmp	r2, r3
 8004eac:	d014      	beq.n	8004ed8 <HAL_TIM_PWM_Stop+0x40>
  __HAL_TIM_DISABLE(htim);
 8004eae:	6823      	ldr	r3, [r4, #0]
 8004eb0:	6a19      	ldr	r1, [r3, #32]
 8004eb2:	f241 1211 	movw	r2, #4369	; 0x1111
 8004eb6:	4211      	tst	r1, r2
 8004eb8:	d108      	bne.n	8004ecc <HAL_TIM_PWM_Stop+0x34>
 8004eba:	6a19      	ldr	r1, [r3, #32]
 8004ebc:	f240 4244 	movw	r2, #1092	; 0x444
 8004ec0:	4211      	tst	r1, r2
 8004ec2:	d103      	bne.n	8004ecc <HAL_TIM_PWM_Stop+0x34>
 8004ec4:	681a      	ldr	r2, [r3, #0]
 8004ec6:	f022 0201 	bic.w	r2, r2, #1
 8004eca:	601a      	str	r2, [r3, #0]
  TIM_CHANNEL_STATE_SET(htim, Channel, HAL_TIM_CHANNEL_STATE_READY);
 8004ecc:	b9ad      	cbnz	r5, 8004efa <HAL_TIM_PWM_Stop+0x62>
 8004ece:	2301      	movs	r3, #1
 8004ed0:	f884 303e 	strb.w	r3, [r4, #62]	; 0x3e
}
 8004ed4:	2000      	movs	r0, #0
 8004ed6:	bd38      	pop	{r3, r4, r5, pc}
    __HAL_TIM_MOE_DISABLE(htim);
 8004ed8:	6a1a      	ldr	r2, [r3, #32]
 8004eda:	f241 1311 	movw	r3, #4369	; 0x1111
 8004ede:	421a      	tst	r2, r3
 8004ee0:	d1e5      	bne.n	8004eae <HAL_TIM_PWM_Stop+0x16>
 8004ee2:	4b0d      	ldr	r3, [pc, #52]	; (8004f18 <HAL_TIM_PWM_Stop+0x80>)
 8004ee4:	6a1a      	ldr	r2, [r3, #32]
 8004ee6:	f240 4344 	movw	r3, #1092	; 0x444
 8004eea:	421a      	tst	r2, r3
 8004eec:	d1df      	bne.n	8004eae <HAL_TIM_PWM_Stop+0x16>
 8004eee:	4a0a      	ldr	r2, [pc, #40]	; (8004f18 <HAL_TIM_PWM_Stop+0x80>)
 8004ef0:	6c53      	ldr	r3, [r2, #68]	; 0x44
 8004ef2:	f423 4300 	bic.w	r3, r3, #32768	; 0x8000
 8004ef6:	6453      	str	r3, [r2, #68]	; 0x44
 8004ef8:	e7d9      	b.n	8004eae <HAL_TIM_PWM_Stop+0x16>
  TIM_CHANNEL_STATE_SET(htim, Channel, HAL_TIM_CHANNEL_STATE_READY);
 8004efa:	2d04      	cmp	r5, #4
 8004efc:	d008      	beq.n	8004f10 <HAL_TIM_PWM_Stop+0x78>
 8004efe:	2d08      	cmp	r5, #8
 8004f00:	f04f 0301 	mov.w	r3, #1
 8004f04:	bf0c      	ite	eq
 8004f06:	f884 3040 	strbeq.w	r3, [r4, #64]	; 0x40
 8004f0a:	f884 3041 	strbne.w	r3, [r4, #65]	; 0x41
 8004f0e:	e7e1      	b.n	8004ed4 <HAL_TIM_PWM_Stop+0x3c>
 8004f10:	2301      	movs	r3, #1
 8004f12:	f884 303f 	strb.w	r3, [r4, #63]	; 0x3f
 8004f16:	e7dd      	b.n	8004ed4 <HAL_TIM_PWM_Stop+0x3c>
 8004f18:	40012c00 	.word	0x40012c00

08004f1c <HAL_TIMEx_MasterConfigSynchronization>:
  assert_param(IS_TIM_MASTER_INSTANCE(htim->Instance));
  assert_param(IS_TIM_TRGO_SOURCE(sMasterConfig->MasterOutputTrigger));
  assert_param(IS_TIM_MSM_STATE(sMasterConfig->MasterSlaveMode));

  /* Check input state */
  __HAL_LOCK(htim);
 8004f1c:	f890 203c 	ldrb.w	r2, [r0, #60]	; 0x3c
 8004f20:	2a01      	cmp	r2, #1
 8004f22:	d02b      	beq.n	8004f7c <HAL_TIMEx_MasterConfigSynchronization+0x60>
{
 8004f24:	b430      	push	{r4, r5}
 8004f26:	4603      	mov	r3, r0
  __HAL_LOCK(htim);
 8004f28:	2201      	movs	r2, #1
 8004f2a:	f880 203c 	strb.w	r2, [r0, #60]	; 0x3c

  /* Change the handler state */
  htim->State = HAL_TIM_STATE_BUSY;
 8004f2e:	2202      	movs	r2, #2
 8004f30:	f880 203d 	strb.w	r2, [r0, #61]	; 0x3d

  /* Get the TIMx CR2 register value */
  tmpcr2 = htim->Instance->CR2;
 8004f34:	6804      	ldr	r4, [r0, #0]
 8004f36:	6862      	ldr	r2, [r4, #4]

  /* Get the TIMx SMCR register value */
  tmpsmcr = htim->Instance->SMCR;
 8004f38:	68a0      	ldr	r0, [r4, #8]

  /* Reset the MMS Bits */
  tmpcr2 &= ~TIM_CR2_MMS;
 8004f3a:	f022 0270 	bic.w	r2, r2, #112	; 0x70
  /* Select the TRGO source */
  tmpcr2 |=  sMasterConfig->MasterOutputTrigger;
 8004f3e:	680d      	ldr	r5, [r1, #0]
 8004f40:	432a      	orrs	r2, r5

  /* Update TIMx CR2 */
  htim->Instance->CR2 = tmpcr2;
 8004f42:	6062      	str	r2, [r4, #4]

  if (IS_TIM_SLAVE_INSTANCE(htim->Instance))
 8004f44:	681a      	ldr	r2, [r3, #0]
 8004f46:	4c0e      	ldr	r4, [pc, #56]	; (8004f80 <HAL_TIMEx_MasterConfigSynchronization+0x64>)
 8004f48:	42a2      	cmp	r2, r4
 8004f4a:	d00a      	beq.n	8004f62 <HAL_TIMEx_MasterConfigSynchronization+0x46>
 8004f4c:	f1b2 4f80 	cmp.w	r2, #1073741824	; 0x40000000
 8004f50:	d007      	beq.n	8004f62 <HAL_TIMEx_MasterConfigSynchronization+0x46>
 8004f52:	f5a4 3494 	sub.w	r4, r4, #75776	; 0x12800
 8004f56:	42a2      	cmp	r2, r4
 8004f58:	d003      	beq.n	8004f62 <HAL_TIMEx_MasterConfigSynchronization+0x46>
 8004f5a:	f504 6480 	add.w	r4, r4, #1024	; 0x400
 8004f5e:	42a2      	cmp	r2, r4
 8004f60:	d104      	bne.n	8004f6c <HAL_TIMEx_MasterConfigSynchronization+0x50>
  {
    /* Reset the MSM Bit */
    tmpsmcr &= ~TIM_SMCR_MSM;
 8004f62:	f020 0080 	bic.w	r0, r0, #128	; 0x80
    /* Set master mode */
    tmpsmcr |= sMasterConfig->MasterSlaveMode;
 8004f66:	6849      	ldr	r1, [r1, #4]
 8004f68:	4308      	orrs	r0, r1

    /* Update TIMx SMCR */
    htim->Instance->SMCR = tmpsmcr;
 8004f6a:	6090      	str	r0, [r2, #8]
  }

  /* Change the htim state */
  htim->State = HAL_TIM_STATE_READY;
 8004f6c:	2201      	movs	r2, #1
 8004f6e:	f883 203d 	strb.w	r2, [r3, #61]	; 0x3d

  __HAL_UNLOCK(htim);
 8004f72:	2000      	movs	r0, #0
 8004f74:	f883 003c 	strb.w	r0, [r3, #60]	; 0x3c

  return HAL_OK;
}
 8004f78:	bc30      	pop	{r4, r5}
 8004f7a:	4770      	bx	lr
  __HAL_LOCK(htim);
 8004f7c:	2002      	movs	r0, #2
}
 8004f7e:	4770      	bx	lr
 8004f80:	40012c00 	.word	0x40012c00

08004f84 <HAL_TIMEx_CommutCallback>:
  UNUSED(htim);

  /* NOTE : This function should not be modified, when the callback is needed,
            the HAL_TIMEx_CommutCallback could be implemented in the user file
   */
}
 8004f84:	4770      	bx	lr

08004f86 <HAL_TIMEx_BreakCallback>:
  UNUSED(htim);

  /* NOTE : This function should not be modified, when the callback is needed,
            the HAL_TIMEx_BreakCallback could be implemented in the user file
   */
}
 8004f86:	4770      	bx	lr

08004f88 <osKernelInitialize>:
 */
__STATIC_FORCEINLINE uint32_t __get_IPSR(void)
{
  uint32_t result;

  __ASM volatile ("MRS %0, ipsr" : "=r" (result) );
 8004f88:	f3ef 8305 	mrs	r3, IPSR
/*---------------------------------------------------------------------------*/

osStatus_t osKernelInitialize (void) {
  osStatus_t stat;

  if (IS_IRQ()) {
 8004f8c:	b9a3      	cbnz	r3, 8004fb8 <osKernelInitialize+0x30>
 */
__STATIC_FORCEINLINE uint32_t __get_PRIMASK(void)
{
  uint32_t result;

  __ASM volatile ("MRS %0, primask" : "=r" (result) :: "memory");
 8004f8e:	f3ef 8310 	mrs	r3, PRIMASK
 8004f92:	b9a3      	cbnz	r3, 8004fbe <osKernelInitialize+0x36>
 8004f94:	4b0d      	ldr	r3, [pc, #52]	; (8004fcc <osKernelInitialize+0x44>)
 8004f96:	6818      	ldr	r0, [r3, #0]
 8004f98:	2802      	cmp	r0, #2
 8004f9a:	d004      	beq.n	8004fa6 <osKernelInitialize+0x1e>
    stat = osErrorISR;
  }
  else {
    if (KernelState == osKernelInactive) {
 8004f9c:	b990      	cbnz	r0, 8004fc4 <osKernelInitialize+0x3c>
      #if defined(USE_FreeRTOS_HEAP_5)
        vPortDefineHeapRegions (xHeapRegions);
      #endif
      KernelState = osKernelReady;
 8004f9e:	4b0b      	ldr	r3, [pc, #44]	; (8004fcc <osKernelInitialize+0x44>)
 8004fa0:	2201      	movs	r2, #1
 8004fa2:	601a      	str	r2, [r3, #0]
      stat = osOK;
 8004fa4:	4770      	bx	lr
 */
__STATIC_FORCEINLINE uint32_t __get_BASEPRI(void)
{
  uint32_t result;

  __ASM volatile ("MRS %0, basepri" : "=r" (result) );
 8004fa6:	f3ef 8311 	mrs	r3, BASEPRI
    } else {
      stat = osError;
 8004faa:	2b00      	cmp	r3, #0
 8004fac:	bf14      	ite	ne
 8004fae:	f06f 0005 	mvnne.w	r0, #5
 8004fb2:	f04f 30ff 	moveq.w	r0, #4294967295
 8004fb6:	4770      	bx	lr
    stat = osErrorISR;
 8004fb8:	f06f 0005 	mvn.w	r0, #5
 8004fbc:	4770      	bx	lr
 8004fbe:	f06f 0005 	mvn.w	r0, #5
 8004fc2:	4770      	bx	lr
      stat = osError;
 8004fc4:	f04f 30ff 	mov.w	r0, #4294967295
    }
  }

  return (stat);
}
 8004fc8:	4770      	bx	lr
 8004fca:	bf00      	nop
 8004fcc:	20001010 	.word	0x20001010

08004fd0 <osKernelStart>:
  }

  return (state);
}

osStatus_t osKernelStart (void) {
 8004fd0:	b508      	push	{r3, lr}
  __ASM volatile ("MRS %0, ipsr" : "=r" (result) );
 8004fd2:	f3ef 8305 	mrs	r3, IPSR
  osStatus_t stat;

  if (IS_IRQ()) {
 8004fd6:	b9c3      	cbnz	r3, 800500a <osKernelStart+0x3a>
  __ASM volatile ("MRS %0, primask" : "=r" (result) :: "memory");
 8004fd8:	f3ef 8310 	mrs	r3, PRIMASK
 8004fdc:	b9c3      	cbnz	r3, 8005010 <osKernelStart+0x40>
 8004fde:	4b0f      	ldr	r3, [pc, #60]	; (800501c <osKernelStart+0x4c>)
 8004fe0:	681b      	ldr	r3, [r3, #0]
 8004fe2:	2b02      	cmp	r3, #2
 8004fe4:	d008      	beq.n	8004ff8 <osKernelStart+0x28>
    stat = osErrorISR;
  }
  else {
    if (KernelState == osKernelReady) {
 8004fe6:	2b01      	cmp	r3, #1
 8004fe8:	d115      	bne.n	8005016 <osKernelStart+0x46>
      KernelState = osKernelRunning;
 8004fea:	4b0c      	ldr	r3, [pc, #48]	; (800501c <osKernelStart+0x4c>)
 8004fec:	2202      	movs	r2, #2
 8004fee:	601a      	str	r2, [r3, #0]
      vTaskStartScheduler();
 8004ff0:	f001 fc20 	bl	8006834 <vTaskStartScheduler>
      stat = osOK;
 8004ff4:	2000      	movs	r0, #0
      stat = osError;
    }
  }

  return (stat);
}
 8004ff6:	bd08      	pop	{r3, pc}
  __ASM volatile ("MRS %0, basepri" : "=r" (result) );
 8004ff8:	f3ef 8311 	mrs	r3, BASEPRI
      stat = osError;
 8004ffc:	2b00      	cmp	r3, #0
 8004ffe:	bf14      	ite	ne
 8005000:	f06f 0005 	mvnne.w	r0, #5
 8005004:	f04f 30ff 	moveq.w	r0, #4294967295
 8005008:	e7f5      	b.n	8004ff6 <osKernelStart+0x26>
    stat = osErrorISR;
 800500a:	f06f 0005 	mvn.w	r0, #5
 800500e:	e7f2      	b.n	8004ff6 <osKernelStart+0x26>
 8005010:	f06f 0005 	mvn.w	r0, #5
 8005014:	e7ef      	b.n	8004ff6 <osKernelStart+0x26>
      stat = osError;
 8005016:	f04f 30ff 	mov.w	r0, #4294967295
  return (stat);
 800501a:	e7ec      	b.n	8004ff6 <osKernelStart+0x26>
 800501c:	20001010 	.word	0x20001010

08005020 <osThreadNew>:
  return (configCPU_CLOCK_HZ);
}

/*---------------------------------------------------------------------------*/

osThreadId_t osThreadNew (osThreadFunc_t func, void *argument, const osThreadAttr_t *attr) {
 8005020:	b5f0      	push	{r4, r5, r6, r7, lr}
 8005022:	b087      	sub	sp, #28
  uint32_t stack;
  TaskHandle_t hTask;
  UBaseType_t prio;
  int32_t mem;

  hTask = NULL;
 8005024:	2400      	movs	r4, #0
 8005026:	9404      	str	r4, [sp, #16]
  __ASM volatile ("MRS %0, ipsr" : "=r" (result) );
 8005028:	f3ef 8405 	mrs	r4, IPSR

  if (!IS_IRQ() && (func != NULL)) {
 800502c:	b9d4      	cbnz	r4, 8005064 <osThreadNew+0x44>
  __ASM volatile ("MRS %0, primask" : "=r" (result) :: "memory");
 800502e:	f3ef 8310 	mrs	r3, PRIMASK
 8005032:	b9bb      	cbnz	r3, 8005064 <osThreadNew+0x44>
 8005034:	4b2c      	ldr	r3, [pc, #176]	; (80050e8 <osThreadNew+0xc8>)
 8005036:	681b      	ldr	r3, [r3, #0]
 8005038:	2b02      	cmp	r3, #2
 800503a:	d00f      	beq.n	800505c <osThreadNew+0x3c>
 800503c:	b190      	cbz	r0, 8005064 <osThreadNew+0x44>
    stack = configMINIMAL_STACK_SIZE;
    prio  = (UBaseType_t)osPriorityNormal;

    empty = '\0';
 800503e:	2300      	movs	r3, #0
 8005040:	f88d 3017 	strb.w	r3, [sp, #23]
    name  = &empty;
    mem   = -1;

    if (attr != NULL) {
 8005044:	2a00      	cmp	r2, #0
 8005046:	d03a      	beq.n	80050be <osThreadNew+0x9e>
      if (attr->name != NULL) {
 8005048:	6814      	ldr	r4, [r2, #0]
 800504a:	b174      	cbz	r4, 800506a <osThreadNew+0x4a>
        name = attr->name;
      }
      if (attr->priority != osPriorityNone) {
 800504c:	6993      	ldr	r3, [r2, #24]
 800504e:	b17b      	cbz	r3, 8005070 <osThreadNew+0x50>
        prio = (UBaseType_t)attr->priority;
 8005050:	461d      	mov	r5, r3
      }

      if ((prio < osPriorityIdle) || (prio > osPriorityISR) || ((attr->attr_bits & osThreadJoinable) == osThreadJoinable)) {
 8005052:	3b01      	subs	r3, #1
 8005054:	2b37      	cmp	r3, #55	; 0x37
 8005056:	d90c      	bls.n	8005072 <osThreadNew+0x52>
        return (NULL);
 8005058:	2000      	movs	r0, #0
 800505a:	e004      	b.n	8005066 <osThreadNew+0x46>
  __ASM volatile ("MRS %0, basepri" : "=r" (result) );
 800505c:	f3ef 8311 	mrs	r3, BASEPRI
  if (!IS_IRQ() && (func != NULL)) {
 8005060:	2b00      	cmp	r3, #0
 8005062:	d0eb      	beq.n	800503c <osThreadNew+0x1c>
        }
      }
    }
  }

  return ((osThreadId_t)hTask);
 8005064:	9804      	ldr	r0, [sp, #16]
}
 8005066:	b007      	add	sp, #28
 8005068:	bdf0      	pop	{r4, r5, r6, r7, pc}
    name  = &empty;
 800506a:	f10d 0417 	add.w	r4, sp, #23
 800506e:	e7ed      	b.n	800504c <osThreadNew+0x2c>
 8005070:	2518      	movs	r5, #24
      if ((prio < osPriorityIdle) || (prio > osPriorityISR) || ((attr->attr_bits & osThreadJoinable) == osThreadJoinable)) {
 8005072:	6853      	ldr	r3, [r2, #4]
 8005074:	f013 0f01 	tst.w	r3, #1
 8005078:	d134      	bne.n	80050e4 <osThreadNew+0xc4>
      if (attr->stack_size > 0U) {
 800507a:	6953      	ldr	r3, [r2, #20]
 800507c:	b113      	cbz	r3, 8005084 <osThreadNew+0x64>
        stack = attr->stack_size / sizeof(StackType_t);
 800507e:	ea4f 0c93 	mov.w	ip, r3, lsr #2
 8005082:	e001      	b.n	8005088 <osThreadNew+0x68>
    stack = configMINIMAL_STACK_SIZE;
 8005084:	f04f 0c80 	mov.w	ip, #128	; 0x80
      if ((attr->cb_mem    != NULL) && (attr->cb_size    >= sizeof(StaticTask_t)) &&
 8005088:	6896      	ldr	r6, [r2, #8]
 800508a:	b18e      	cbz	r6, 80050b0 <osThreadNew+0x90>
 800508c:	68d7      	ldr	r7, [r2, #12]
 800508e:	2f5f      	cmp	r7, #95	; 0x5f
 8005090:	d9e8      	bls.n	8005064 <osThreadNew+0x44>
          (attr->stack_mem != NULL) && (attr->stack_size >  0U)) {
 8005092:	6912      	ldr	r2, [r2, #16]
      if ((attr->cb_mem    != NULL) && (attr->cb_size    >= sizeof(StaticTask_t)) &&
 8005094:	2a00      	cmp	r2, #0
 8005096:	d0e5      	beq.n	8005064 <osThreadNew+0x44>
          (attr->stack_mem != NULL) && (attr->stack_size >  0U)) {
 8005098:	2b00      	cmp	r3, #0
 800509a:	d0e3      	beq.n	8005064 <osThreadNew+0x44>
      hTask = xTaskCreateStatic ((TaskFunction_t)func, name, stack, argument, prio, (StackType_t  *)attr->stack_mem,
 800509c:	9602      	str	r6, [sp, #8]
 800509e:	9201      	str	r2, [sp, #4]
 80050a0:	9500      	str	r5, [sp, #0]
 80050a2:	460b      	mov	r3, r1
 80050a4:	4662      	mov	r2, ip
 80050a6:	4621      	mov	r1, r4
 80050a8:	f001 fb58 	bl	800675c <xTaskCreateStatic>
 80050ac:	9004      	str	r0, [sp, #16]
 80050ae:	e7d9      	b.n	8005064 <osThreadNew+0x44>
        if ((attr->cb_mem == NULL) && (attr->cb_size == 0U) && (attr->stack_mem == NULL)) {
 80050b0:	68d3      	ldr	r3, [r2, #12]
 80050b2:	2b00      	cmp	r3, #0
 80050b4:	d1d6      	bne.n	8005064 <osThreadNew+0x44>
      if (mem == 0) {
 80050b6:	6913      	ldr	r3, [r2, #16]
 80050b8:	2b00      	cmp	r3, #0
 80050ba:	d1d3      	bne.n	8005064 <osThreadNew+0x44>
 80050bc:	e004      	b.n	80050c8 <osThreadNew+0xa8>
    prio  = (UBaseType_t)osPriorityNormal;
 80050be:	2518      	movs	r5, #24
    stack = configMINIMAL_STACK_SIZE;
 80050c0:	f04f 0c80 	mov.w	ip, #128	; 0x80
    name  = &empty;
 80050c4:	f10d 0417 	add.w	r4, sp, #23
        if (xTaskCreate ((TaskFunction_t)func, name, (uint16_t)stack, argument, prio, &hTask) != pdPASS) {
 80050c8:	ab04      	add	r3, sp, #16
 80050ca:	9301      	str	r3, [sp, #4]
 80050cc:	9500      	str	r5, [sp, #0]
 80050ce:	460b      	mov	r3, r1
 80050d0:	fa1f f28c 	uxth.w	r2, ip
 80050d4:	4621      	mov	r1, r4
 80050d6:	f001 fb7b 	bl	80067d0 <xTaskCreate>
 80050da:	2801      	cmp	r0, #1
          hTask = NULL;
 80050dc:	bf1c      	itt	ne
 80050de:	2300      	movne	r3, #0
 80050e0:	9304      	strne	r3, [sp, #16]
 80050e2:	e7bf      	b.n	8005064 <osThreadNew+0x44>
        return (NULL);
 80050e4:	2000      	movs	r0, #0
 80050e6:	e7be      	b.n	8005066 <osThreadNew+0x46>
 80050e8:	20001010 	.word	0x20001010

080050ec <osEventFlagsNew>:
  __ASM volatile ("MRS %0, ipsr" : "=r" (result) );
 80050ec:	f3ef 8205 	mrs	r2, IPSR
  EventGroupHandle_t hEventGroup;
  int32_t mem;

  hEventGroup = NULL;

  if (!IS_IRQ()) {
 80050f0:	b9f2      	cbnz	r2, 8005130 <osEventFlagsNew+0x44>
osEventFlagsId_t osEventFlagsNew (const osEventFlagsAttr_t *attr) {
 80050f2:	b508      	push	{r3, lr}
 80050f4:	4603      	mov	r3, r0
  __ASM volatile ("MRS %0, primask" : "=r" (result) :: "memory");
 80050f6:	f3ef 8210 	mrs	r2, PRIMASK
  if (!IS_IRQ()) {
 80050fa:	b9da      	cbnz	r2, 8005134 <osEventFlagsNew+0x48>
 80050fc:	4a0e      	ldr	r2, [pc, #56]	; (8005138 <osEventFlagsNew+0x4c>)
 80050fe:	6812      	ldr	r2, [r2, #0]
 8005100:	2a02      	cmp	r2, #2
 8005102:	d007      	beq.n	8005114 <osEventFlagsNew+0x28>
    mem = -1;

    if (attr != NULL) {
 8005104:	b173      	cbz	r3, 8005124 <osEventFlagsNew+0x38>
      if ((attr->cb_mem != NULL) && (attr->cb_size >= sizeof(StaticEventGroup_t))) {
 8005106:	6898      	ldr	r0, [r3, #8]
 8005108:	b150      	cbz	r0, 8005120 <osEventFlagsNew+0x34>
 800510a:	68db      	ldr	r3, [r3, #12]
 800510c:	2b1f      	cmp	r3, #31
 800510e:	d80c      	bhi.n	800512a <osEventFlagsNew+0x3e>
  hEventGroup = NULL;
 8005110:	2000      	movs	r0, #0
 8005112:	e009      	b.n	8005128 <osEventFlagsNew+0x3c>
  __ASM volatile ("MRS %0, basepri" : "=r" (result) );
 8005114:	f3ef 8211 	mrs	r2, BASEPRI
  if (!IS_IRQ()) {
 8005118:	2a00      	cmp	r2, #0
 800511a:	d0f3      	beq.n	8005104 <osEventFlagsNew+0x18>
  hEventGroup = NULL;
 800511c:	2000      	movs	r0, #0
        hEventGroup = xEventGroupCreate();
      }
    }
  }

  return ((osEventFlagsId_t)hEventGroup);
 800511e:	e003      	b.n	8005128 <osEventFlagsNew+0x3c>
      if (mem == 0) {
 8005120:	68db      	ldr	r3, [r3, #12]
 8005122:	b90b      	cbnz	r3, 8005128 <osEventFlagsNew+0x3c>
        hEventGroup = xEventGroupCreate();
 8005124:	f000 fb0b 	bl	800573e <xEventGroupCreate>
}
 8005128:	bd08      	pop	{r3, pc}
      hEventGroup = xEventGroupCreateStatic (attr->cb_mem);
 800512a:	f000 fae3 	bl	80056f4 <xEventGroupCreateStatic>
 800512e:	e7fb      	b.n	8005128 <osEventFlagsNew+0x3c>
  hEventGroup = NULL;
 8005130:	2000      	movs	r0, #0
}
 8005132:	4770      	bx	lr
  hEventGroup = NULL;
 8005134:	2000      	movs	r0, #0
 8005136:	e7f7      	b.n	8005128 <osEventFlagsNew+0x3c>
 8005138:	20001010 	.word	0x20001010

0800513c <osEventFlagsSet>:
uint32_t osEventFlagsSet (osEventFlagsId_t ef_id, uint32_t flags) {
  EventGroupHandle_t hEventGroup = (EventGroupHandle_t)ef_id;
  uint32_t rflags;
  BaseType_t yield;

  if ((hEventGroup == NULL) || ((flags & EVENT_FLAGS_INVALID_BITS) != 0U)) {
 800513c:	b370      	cbz	r0, 800519c <osEventFlagsSet+0x60>
uint32_t osEventFlagsSet (osEventFlagsId_t ef_id, uint32_t flags) {
 800513e:	b510      	push	{r4, lr}
 8005140:	b082      	sub	sp, #8
 8005142:	460c      	mov	r4, r1
 8005144:	4603      	mov	r3, r0
  if ((hEventGroup == NULL) || ((flags & EVENT_FLAGS_INVALID_BITS) != 0U)) {
 8005146:	f011 4f7f 	tst.w	r1, #4278190080	; 0xff000000
 800514a:	d12a      	bne.n	80051a2 <osEventFlagsSet+0x66>
  __ASM volatile ("MRS %0, ipsr" : "=r" (result) );
 800514c:	f3ef 8205 	mrs	r2, IPSR
    rflags = (uint32_t)osErrorParameter;
  }
  else if (IS_IRQ()) {
 8005150:	b94a      	cbnz	r2, 8005166 <osEventFlagsSet+0x2a>
  __ASM volatile ("MRS %0, primask" : "=r" (result) :: "memory");
 8005152:	f3ef 8210 	mrs	r2, PRIMASK
 8005156:	b932      	cbnz	r2, 8005166 <osEventFlagsSet+0x2a>
 8005158:	4a16      	ldr	r2, [pc, #88]	; (80051b4 <osEventFlagsSet+0x78>)
 800515a:	6812      	ldr	r2, [r2, #0]
 800515c:	2a02      	cmp	r2, #2
 800515e:	d118      	bne.n	8005192 <osEventFlagsSet+0x56>
  __ASM volatile ("MRS %0, basepri" : "=r" (result) );
 8005160:	f3ef 8211 	mrs	r2, BASEPRI
 8005164:	b1aa      	cbz	r2, 8005192 <osEventFlagsSet+0x56>
    yield = pdFALSE;
 8005166:	2200      	movs	r2, #0
 8005168:	9201      	str	r2, [sp, #4]

    if (xEventGroupSetBitsFromISR (hEventGroup, (EventBits_t)flags, &yield) != pdFAIL) {
 800516a:	aa01      	add	r2, sp, #4
 800516c:	4621      	mov	r1, r4
 800516e:	4618      	mov	r0, r3
 8005170:	f000 fbca 	bl	8005908 <xEventGroupSetBitsFromISR>
 8005174:	b9c8      	cbnz	r0, 80051aa <osEventFlagsSet+0x6e>
      rflags = (uint32_t)osErrorResource;
    } else {
      rflags = flags;
      portYIELD_FROM_ISR (yield);
 8005176:	9b01      	ldr	r3, [sp, #4]
 8005178:	b1d3      	cbz	r3, 80051b0 <osEventFlagsSet+0x74>
 800517a:	f04f 23e0 	mov.w	r3, #3758153728	; 0xe000e000
 800517e:	f04f 5280 	mov.w	r2, #268435456	; 0x10000000
 8005182:	f8c3 2d04 	str.w	r2, [r3, #3332]	; 0xd04
 8005186:	f3bf 8f4f 	dsb	sy
 800518a:	f3bf 8f6f 	isb	sy
      rflags = flags;
 800518e:	4620      	mov	r0, r4
 8005190:	e009      	b.n	80051a6 <osEventFlagsSet+0x6a>
    }
  }
  else {
    rflags = xEventGroupSetBits (hEventGroup, (EventBits_t)flags);
 8005192:	4621      	mov	r1, r4
 8005194:	4618      	mov	r0, r3
 8005196:	f000 fb6a 	bl	800586e <xEventGroupSetBits>
 800519a:	e004      	b.n	80051a6 <osEventFlagsSet+0x6a>
    rflags = (uint32_t)osErrorParameter;
 800519c:	f06f 0003 	mvn.w	r0, #3
  }

  return (rflags);
}
 80051a0:	4770      	bx	lr
    rflags = (uint32_t)osErrorParameter;
 80051a2:	f06f 0003 	mvn.w	r0, #3
}
 80051a6:	b002      	add	sp, #8
 80051a8:	bd10      	pop	{r4, pc}
      rflags = (uint32_t)osErrorResource;
 80051aa:	f06f 0002 	mvn.w	r0, #2
 80051ae:	e7fa      	b.n	80051a6 <osEventFlagsSet+0x6a>
      rflags = flags;
 80051b0:	4620      	mov	r0, r4
  return (rflags);
 80051b2:	e7f8      	b.n	80051a6 <osEventFlagsSet+0x6a>
 80051b4:	20001010 	.word	0x20001010

080051b8 <osEventFlagsWait>:
  EventGroupHandle_t hEventGroup = (EventGroupHandle_t)ef_id;
  BaseType_t wait_all;
  BaseType_t exit_clr;
  uint32_t rflags;

  if ((hEventGroup == NULL) || ((flags & EVENT_FLAGS_INVALID_BITS) != 0U)) {
 80051b8:	2800      	cmp	r0, #0
 80051ba:	d037      	beq.n	800522c <osEventFlagsWait+0x74>
uint32_t osEventFlagsWait (osEventFlagsId_t ef_id, uint32_t flags, uint32_t options, uint32_t timeout) {
 80051bc:	b570      	push	{r4, r5, r6, lr}
 80051be:	b082      	sub	sp, #8
 80051c0:	460c      	mov	r4, r1
 80051c2:	461d      	mov	r5, r3
 80051c4:	4684      	mov	ip, r0
  if ((hEventGroup == NULL) || ((flags & EVENT_FLAGS_INVALID_BITS) != 0U)) {
 80051c6:	f011 4f7f 	tst.w	r1, #4278190080	; 0xff000000
 80051ca:	d132      	bne.n	8005232 <osEventFlagsWait+0x7a>
  __ASM volatile ("MRS %0, ipsr" : "=r" (result) );
 80051cc:	f3ef 8305 	mrs	r3, IPSR
    rflags = (uint32_t)osErrorParameter;
  }
  else if (IS_IRQ()) {
 80051d0:	bb9b      	cbnz	r3, 800523a <osEventFlagsWait+0x82>
  __ASM volatile ("MRS %0, primask" : "=r" (result) :: "memory");
 80051d2:	f3ef 8310 	mrs	r3, PRIMASK
 80051d6:	bb9b      	cbnz	r3, 8005240 <osEventFlagsWait+0x88>
 80051d8:	4b1b      	ldr	r3, [pc, #108]	; (8005248 <osEventFlagsWait+0x90>)
 80051da:	681b      	ldr	r3, [r3, #0]
 80051dc:	2b02      	cmp	r3, #2
 80051de:	d015      	beq.n	800520c <osEventFlagsWait+0x54>
    rflags = (uint32_t)osErrorISR;
  }
  else {
    if (options & osFlagsWaitAll) {
 80051e0:	f002 0601 	and.w	r6, r2, #1
      wait_all = pdTRUE;
    } else {
      wait_all = pdFAIL;
    }

    if (options & osFlagsNoClear) {
 80051e4:	f082 0202 	eor.w	r2, r2, #2
      exit_clr = pdFAIL;
    } else {
      exit_clr = pdTRUE;
    }

    rflags = xEventGroupWaitBits (hEventGroup, (EventBits_t)flags, exit_clr, wait_all, (TickType_t)timeout);
 80051e8:	9500      	str	r5, [sp, #0]
 80051ea:	4633      	mov	r3, r6
 80051ec:	f3c2 0240 	ubfx	r2, r2, #1, #1
 80051f0:	4621      	mov	r1, r4
 80051f2:	4660      	mov	r0, ip
 80051f4:	f000 fab1 	bl	800575a <xEventGroupWaitBits>

    if (options & osFlagsWaitAll) {
 80051f8:	b17e      	cbz	r6, 800521a <osEventFlagsWait+0x62>
      if (flags != rflags) {
 80051fa:	4284      	cmp	r4, r0
 80051fc:	d01b      	beq.n	8005236 <osEventFlagsWait+0x7e>
        if (timeout > 0U) {
          rflags = (uint32_t)osErrorTimeout;
        } else {
          rflags = (uint32_t)osErrorResource;
 80051fe:	2d00      	cmp	r5, #0
 8005200:	bf14      	ite	ne
 8005202:	f06f 0001 	mvnne.w	r0, #1
 8005206:	f06f 0002 	mvneq.w	r0, #2
 800520a:	e014      	b.n	8005236 <osEventFlagsWait+0x7e>
  __ASM volatile ("MRS %0, basepri" : "=r" (result) );
 800520c:	f3ef 8311 	mrs	r3, BASEPRI
  else if (IS_IRQ()) {
 8005210:	2b00      	cmp	r3, #0
 8005212:	d0e5      	beq.n	80051e0 <osEventFlagsWait+0x28>
    rflags = (uint32_t)osErrorISR;
 8005214:	f06f 0005 	mvn.w	r0, #5
 8005218:	e00d      	b.n	8005236 <osEventFlagsWait+0x7e>
        }
      }
    }
    else {
      if ((flags & rflags) == 0U) {
 800521a:	4204      	tst	r4, r0
 800521c:	d10b      	bne.n	8005236 <osEventFlagsWait+0x7e>
        if (timeout > 0U) {
          rflags = (uint32_t)osErrorTimeout;
        } else {
          rflags = (uint32_t)osErrorResource;
 800521e:	2d00      	cmp	r5, #0
 8005220:	bf14      	ite	ne
 8005222:	f06f 0001 	mvnne.w	r0, #1
 8005226:	f06f 0002 	mvneq.w	r0, #2
 800522a:	e004      	b.n	8005236 <osEventFlagsWait+0x7e>
    rflags = (uint32_t)osErrorParameter;
 800522c:	f06f 0003 	mvn.w	r0, #3
      }
    }
  }

  return (rflags);
}
 8005230:	4770      	bx	lr
    rflags = (uint32_t)osErrorParameter;
 8005232:	f06f 0003 	mvn.w	r0, #3
}
 8005236:	b002      	add	sp, #8
 8005238:	bd70      	pop	{r4, r5, r6, pc}
    rflags = (uint32_t)osErrorISR;
 800523a:	f06f 0005 	mvn.w	r0, #5
 800523e:	e7fa      	b.n	8005236 <osEventFlagsWait+0x7e>
 8005240:	f06f 0005 	mvn.w	r0, #5
 8005244:	e7f7      	b.n	8005236 <osEventFlagsWait+0x7e>
 8005246:	bf00      	nop
 8005248:	20001010 	.word	0x20001010

0800524c <osMutexNew>:
  return (stat);
}

/*---------------------------------------------------------------------------*/

osMutexId_t osMutexNew (const osMutexAttr_t *attr) {
 800524c:	b570      	push	{r4, r5, r6, lr}
  __ASM volatile ("MRS %0, ipsr" : "=r" (result) );
 800524e:	f3ef 8305 	mrs	r3, IPSR
  const char *name;
  #endif

  hMutex = NULL;

  if (!IS_IRQ()) {
 8005252:	2b00      	cmp	r3, #0
 8005254:	d145      	bne.n	80052e2 <osMutexNew+0x96>
 8005256:	4604      	mov	r4, r0
  __ASM volatile ("MRS %0, primask" : "=r" (result) :: "memory");
 8005258:	f3ef 8310 	mrs	r3, PRIMASK
 800525c:	461e      	mov	r6, r3
 800525e:	2b00      	cmp	r3, #0
 8005260:	d142      	bne.n	80052e8 <osMutexNew+0x9c>
 8005262:	4b23      	ldr	r3, [pc, #140]	; (80052f0 <osMutexNew+0xa4>)
 8005264:	681b      	ldr	r3, [r3, #0]
 8005266:	2b02      	cmp	r3, #2
 8005268:	d00f      	beq.n	800528a <osMutexNew+0x3e>
    if (attr != NULL) {
 800526a:	2c00      	cmp	r4, #0
 800526c:	d034      	beq.n	80052d8 <osMutexNew+0x8c>
      type = attr->attr_bits;
 800526e:	6863      	ldr	r3, [r4, #4]
      rmtx = 1U;
    } else {
      rmtx = 0U;
    }

    if ((type & osMutexRobust) != osMutexRobust) {
 8005270:	f013 0f08 	tst.w	r3, #8
 8005274:	d13a      	bne.n	80052ec <osMutexNew+0xa0>
    if ((type & osMutexRecursive) == osMutexRecursive) {
 8005276:	f003 0301 	and.w	r3, r3, #1
      rmtx = 1U;
 800527a:	461e      	mov	r6, r3
      mem = -1;

      if (attr != NULL) {
        if ((attr->cb_mem != NULL) && (attr->cb_size >= sizeof(StaticSemaphore_t))) {
 800527c:	68a1      	ldr	r1, [r4, #8]
 800527e:	b151      	cbz	r1, 8005296 <osMutexNew+0x4a>
 8005280:	68e2      	ldr	r2, [r4, #12]
 8005282:	2a4f      	cmp	r2, #79	; 0x4f
 8005284:	d813      	bhi.n	80052ae <osMutexNew+0x62>
  hMutex = NULL;
 8005286:	2500      	movs	r5, #0
 8005288:	e02c      	b.n	80052e4 <osMutexNew+0x98>
  __ASM volatile ("MRS %0, basepri" : "=r" (result) );
 800528a:	f3ef 8311 	mrs	r3, BASEPRI
  if (!IS_IRQ()) {
 800528e:	2b00      	cmp	r3, #0
 8005290:	d0eb      	beq.n	800526a <osMutexNew+0x1e>
  hMutex = NULL;
 8005292:	2500      	movs	r5, #0
 8005294:	e026      	b.n	80052e4 <osMutexNew+0x98>
        else {
          hMutex = xSemaphoreCreateMutexStatic (attr->cb_mem);
        }
      }
      else {
        if (mem == 0) {
 8005296:	68e2      	ldr	r2, [r4, #12]
 8005298:	2a00      	cmp	r2, #0
 800529a:	d1f4      	bne.n	8005286 <osMutexNew+0x3a>
          if (rmtx != 0U) {
 800529c:	b1e3      	cbz	r3, 80052d8 <osMutexNew+0x8c>
            hMutex = xSemaphoreCreateRecursiveMutex ();
 800529e:	2004      	movs	r0, #4
 80052a0:	f000 fde8 	bl	8005e74 <xQueueCreateMutex>
 80052a4:	4605      	mov	r5, r0
          }
        }
      }

      #if (configQUEUE_REGISTRY_SIZE > 0)
      if (hMutex != NULL) {
 80052a6:	2d00      	cmp	r5, #0
 80052a8:	d0ed      	beq.n	8005286 <osMutexNew+0x3a>
        if (attr != NULL) {
 80052aa:	b93c      	cbnz	r4, 80052bc <osMutexNew+0x70>
 80052ac:	e007      	b.n	80052be <osMutexNew+0x72>
        if (rmtx != 0U) {
 80052ae:	b173      	cbz	r3, 80052ce <osMutexNew+0x82>
          hMutex = xSemaphoreCreateRecursiveMutexStatic (attr->cb_mem);
 80052b0:	2004      	movs	r0, #4
 80052b2:	f000 fdea 	bl	8005e8a <xQueueCreateMutexStatic>
 80052b6:	4605      	mov	r5, r0
      if (hMutex != NULL) {
 80052b8:	2d00      	cmp	r5, #0
 80052ba:	d0e4      	beq.n	8005286 <osMutexNew+0x3a>
          name = attr->name;
 80052bc:	6824      	ldr	r4, [r4, #0]
        } else {
          name = NULL;
        }
        vQueueAddToRegistry (hMutex, name);
 80052be:	4621      	mov	r1, r4
 80052c0:	4628      	mov	r0, r5
 80052c2:	f001 f873 	bl	80063ac <vQueueAddToRegistry>
      }
      #endif

      if ((hMutex != NULL) && (rmtx != 0U)) {
 80052c6:	b16e      	cbz	r6, 80052e4 <osMutexNew+0x98>
        hMutex = (SemaphoreHandle_t)((uint32_t)hMutex | 1U);
 80052c8:	f045 0501 	orr.w	r5, r5, #1
 80052cc:	e00a      	b.n	80052e4 <osMutexNew+0x98>
          hMutex = xSemaphoreCreateMutexStatic (attr->cb_mem);
 80052ce:	2001      	movs	r0, #1
 80052d0:	f000 fddb 	bl	8005e8a <xQueueCreateMutexStatic>
 80052d4:	4605      	mov	r5, r0
 80052d6:	e7ef      	b.n	80052b8 <osMutexNew+0x6c>
            hMutex = xSemaphoreCreateMutex ();
 80052d8:	2001      	movs	r0, #1
 80052da:	f000 fdcb 	bl	8005e74 <xQueueCreateMutex>
 80052de:	4605      	mov	r5, r0
 80052e0:	e7e1      	b.n	80052a6 <osMutexNew+0x5a>
  hMutex = NULL;
 80052e2:	2500      	movs	r5, #0
      }
    }
  }

  return ((osMutexId_t)hMutex);
}
 80052e4:	4628      	mov	r0, r5
 80052e6:	bd70      	pop	{r4, r5, r6, pc}
  hMutex = NULL;
 80052e8:	2500      	movs	r5, #0
 80052ea:	e7fb      	b.n	80052e4 <osMutexNew+0x98>
 80052ec:	2500      	movs	r5, #0
  return ((osMutexId_t)hMutex);
 80052ee:	e7f9      	b.n	80052e4 <osMutexNew+0x98>
 80052f0:	20001010 	.word	0x20001010

080052f4 <osMutexAcquire>:
  __ASM volatile ("MRS %0, ipsr" : "=r" (result) );
 80052f4:	f3ef 8205 	mrs	r2, IPSR

  rmtx = (uint32_t)mutex_id & 1U;

  stat = osOK;

  if (IS_IRQ()) {
 80052f8:	bb72      	cbnz	r2, 8005358 <osMutexAcquire+0x64>
osStatus_t osMutexAcquire (osMutexId_t mutex_id, uint32_t timeout) {
 80052fa:	b510      	push	{r4, lr}
 80052fc:	4603      	mov	r3, r0
 80052fe:	460c      	mov	r4, r1
 8005300:	f020 0001 	bic.w	r0, r0, #1
 8005304:	f003 0301 	and.w	r3, r3, #1
  __ASM volatile ("MRS %0, primask" : "=r" (result) :: "memory");
 8005308:	f3ef 8210 	mrs	r2, PRIMASK
  if (IS_IRQ()) {
 800530c:	bb3a      	cbnz	r2, 800535e <osMutexAcquire+0x6a>
 800530e:	4a19      	ldr	r2, [pc, #100]	; (8005374 <osMutexAcquire+0x80>)
 8005310:	6812      	ldr	r2, [r2, #0]
 8005312:	2a02      	cmp	r2, #2
 8005314:	d00d      	beq.n	8005332 <osMutexAcquire+0x3e>
    stat = osErrorISR;
  }
  else if (hMutex == NULL) {
 8005316:	b328      	cbz	r0, 8005364 <osMutexAcquire+0x70>
    stat = osErrorParameter;
  }
  else {
    if (rmtx != 0U) {
 8005318:	b193      	cbz	r3, 8005340 <osMutexAcquire+0x4c>
      if (xSemaphoreTakeRecursive (hMutex, timeout) != pdPASS) {
 800531a:	4621      	mov	r1, r4
 800531c:	f000 ffcf 	bl	80062be <xQueueTakeMutexRecursive>
 8005320:	2801      	cmp	r0, #1
 8005322:	d022      	beq.n	800536a <osMutexAcquire+0x76>
        if (timeout != 0U) {
          stat = osErrorTimeout;
        } else {
          stat = osErrorResource;
 8005324:	2c00      	cmp	r4, #0
 8005326:	bf14      	ite	ne
 8005328:	f06f 0001 	mvnne.w	r0, #1
 800532c:	f06f 0002 	mvneq.w	r0, #2
      }
    }
  }

  return (stat);
}
 8005330:	bd10      	pop	{r4, pc}
  __ASM volatile ("MRS %0, basepri" : "=r" (result) );
 8005332:	f3ef 8211 	mrs	r2, BASEPRI
  if (IS_IRQ()) {
 8005336:	2a00      	cmp	r2, #0
 8005338:	d0ed      	beq.n	8005316 <osMutexAcquire+0x22>
    stat = osErrorISR;
 800533a:	f06f 0005 	mvn.w	r0, #5
 800533e:	e7f7      	b.n	8005330 <osMutexAcquire+0x3c>
      if (xSemaphoreTake (hMutex, timeout) != pdPASS) {
 8005340:	4621      	mov	r1, r4
 8005342:	f000 fee9 	bl	8006118 <xQueueSemaphoreTake>
 8005346:	2801      	cmp	r0, #1
 8005348:	d011      	beq.n	800536e <osMutexAcquire+0x7a>
          stat = osErrorResource;
 800534a:	2c00      	cmp	r4, #0
 800534c:	bf14      	ite	ne
 800534e:	f06f 0001 	mvnne.w	r0, #1
 8005352:	f06f 0002 	mvneq.w	r0, #2
 8005356:	e7eb      	b.n	8005330 <osMutexAcquire+0x3c>
    stat = osErrorISR;
 8005358:	f06f 0005 	mvn.w	r0, #5
}
 800535c:	4770      	bx	lr
    stat = osErrorISR;
 800535e:	f06f 0005 	mvn.w	r0, #5
 8005362:	e7e5      	b.n	8005330 <osMutexAcquire+0x3c>
    stat = osErrorParameter;
 8005364:	f06f 0003 	mvn.w	r0, #3
 8005368:	e7e2      	b.n	8005330 <osMutexAcquire+0x3c>
  stat = osOK;
 800536a:	2000      	movs	r0, #0
 800536c:	e7e0      	b.n	8005330 <osMutexAcquire+0x3c>
 800536e:	2000      	movs	r0, #0
 8005370:	e7de      	b.n	8005330 <osMutexAcquire+0x3c>
 8005372:	bf00      	nop
 8005374:	20001010 	.word	0x20001010

08005378 <osMutexRelease>:
  __ASM volatile ("MRS %0, ipsr" : "=r" (result) );
 8005378:	f3ef 8205 	mrs	r2, IPSR

  rmtx = (uint32_t)mutex_id & 1U;

  stat = osOK;

  if (IS_IRQ()) {
 800537c:	bb42      	cbnz	r2, 80053d0 <osMutexRelease+0x58>
osStatus_t osMutexRelease (osMutexId_t mutex_id) {
 800537e:	b508      	push	{r3, lr}
 8005380:	4603      	mov	r3, r0
 8005382:	f020 0001 	bic.w	r0, r0, #1
 8005386:	f003 0301 	and.w	r3, r3, #1
  __ASM volatile ("MRS %0, primask" : "=r" (result) :: "memory");
 800538a:	f3ef 8210 	mrs	r2, PRIMASK
  if (IS_IRQ()) {
 800538e:	bb12      	cbnz	r2, 80053d6 <osMutexRelease+0x5e>
 8005390:	4a14      	ldr	r2, [pc, #80]	; (80053e4 <osMutexRelease+0x6c>)
 8005392:	6812      	ldr	r2, [r2, #0]
 8005394:	2a02      	cmp	r2, #2
 8005396:	d009      	beq.n	80053ac <osMutexRelease+0x34>
    stat = osErrorISR;
  }
  else if (hMutex == NULL) {
 8005398:	b300      	cbz	r0, 80053dc <osMutexRelease+0x64>
    stat = osErrorParameter;
  }
  else {
    if (rmtx != 0U) {
 800539a:	b173      	cbz	r3, 80053ba <osMutexRelease+0x42>
      if (xSemaphoreGiveRecursive (hMutex) != pdPASS) {
 800539c:	f000 fd84 	bl	8005ea8 <xQueueGiveMutexRecursive>
        stat = osErrorResource;
 80053a0:	2801      	cmp	r0, #1
 80053a2:	bf0c      	ite	eq
 80053a4:	2000      	moveq	r0, #0
 80053a6:	f06f 0002 	mvnne.w	r0, #2
      }
    }
  }

  return (stat);
}
 80053aa:	bd08      	pop	{r3, pc}
  __ASM volatile ("MRS %0, basepri" : "=r" (result) );
 80053ac:	f3ef 8211 	mrs	r2, BASEPRI
  if (IS_IRQ()) {
 80053b0:	2a00      	cmp	r2, #0
 80053b2:	d0f1      	beq.n	8005398 <osMutexRelease+0x20>
    stat = osErrorISR;
 80053b4:	f06f 0005 	mvn.w	r0, #5
 80053b8:	e7f7      	b.n	80053aa <osMutexRelease+0x32>
      if (xSemaphoreGive (hMutex) != pdPASS) {
 80053ba:	2300      	movs	r3, #0
 80053bc:	461a      	mov	r2, r3
 80053be:	4619      	mov	r1, r3
 80053c0:	f000 fc80 	bl	8005cc4 <xQueueGenericSend>
        stat = osErrorResource;
 80053c4:	2801      	cmp	r0, #1
 80053c6:	bf0c      	ite	eq
 80053c8:	2000      	moveq	r0, #0
 80053ca:	f06f 0002 	mvnne.w	r0, #2
 80053ce:	e7ec      	b.n	80053aa <osMutexRelease+0x32>
    stat = osErrorISR;
 80053d0:	f06f 0005 	mvn.w	r0, #5
}
 80053d4:	4770      	bx	lr
    stat = osErrorISR;
 80053d6:	f06f 0005 	mvn.w	r0, #5
 80053da:	e7e6      	b.n	80053aa <osMutexRelease+0x32>
    stat = osErrorParameter;
 80053dc:	f06f 0003 	mvn.w	r0, #3
 80053e0:	e7e3      	b.n	80053aa <osMutexRelease+0x32>
 80053e2:	bf00      	nop
 80053e4:	20001010 	.word	0x20001010

080053e8 <osSemaphoreNew>:
  return (stat);
}

/*---------------------------------------------------------------------------*/

osSemaphoreId_t osSemaphoreNew (uint32_t max_count, uint32_t initial_count, const osSemaphoreAttr_t *attr) {
 80053e8:	b570      	push	{r4, r5, r6, lr}
 80053ea:	b082      	sub	sp, #8
  __ASM volatile ("MRS %0, ipsr" : "=r" (result) );
 80053ec:	f3ef 8305 	mrs	r3, IPSR
  const char *name;
  #endif

  hSemaphore = NULL;

  if (!IS_IRQ() && (max_count > 0U) && (initial_count <= max_count)) {
 80053f0:	2b00      	cmp	r3, #0
 80053f2:	d146      	bne.n	8005482 <osSemaphoreNew+0x9a>
 80053f4:	460e      	mov	r6, r1
 80053f6:	4615      	mov	r5, r2
  __ASM volatile ("MRS %0, primask" : "=r" (result) :: "memory");
 80053f8:	f3ef 8310 	mrs	r3, PRIMASK
 80053fc:	2b00      	cmp	r3, #0
 80053fe:	d144      	bne.n	800548a <osSemaphoreNew+0xa2>
 8005400:	4b32      	ldr	r3, [pc, #200]	; (80054cc <osSemaphoreNew+0xe4>)
 8005402:	681b      	ldr	r3, [r3, #0]
 8005404:	2b02      	cmp	r3, #2
 8005406:	d00c      	beq.n	8005422 <osSemaphoreNew+0x3a>
 8005408:	2800      	cmp	r0, #0
 800540a:	d040      	beq.n	800548e <osSemaphoreNew+0xa6>
 800540c:	42b0      	cmp	r0, r6
 800540e:	d340      	bcc.n	8005492 <osSemaphoreNew+0xaa>
    mem = -1;

    if (attr != NULL) {
 8005410:	2d00      	cmp	r5, #0
 8005412:	d04a      	beq.n	80054aa <osSemaphoreNew+0xc2>
      if ((attr->cb_mem != NULL) && (attr->cb_size >= sizeof(StaticSemaphore_t))) {
 8005414:	68ac      	ldr	r4, [r5, #8]
 8005416:	b154      	cbz	r4, 800542e <osSemaphoreNew+0x46>
 8005418:	68eb      	ldr	r3, [r5, #12]
 800541a:	2b4f      	cmp	r3, #79	; 0x4f
 800541c:	d83b      	bhi.n	8005496 <osSemaphoreNew+0xae>
  hSemaphore = NULL;
 800541e:	2400      	movs	r4, #0
 8005420:	e030      	b.n	8005484 <osSemaphoreNew+0x9c>
  __ASM volatile ("MRS %0, basepri" : "=r" (result) );
 8005422:	f3ef 8311 	mrs	r3, BASEPRI
  if (!IS_IRQ() && (max_count > 0U) && (initial_count <= max_count)) {
 8005426:	2b00      	cmp	r3, #0
 8005428:	d0ee      	beq.n	8005408 <osSemaphoreNew+0x20>
  hSemaphore = NULL;
 800542a:	2400      	movs	r4, #0
 800542c:	e02a      	b.n	8005484 <osSemaphoreNew+0x9c>
        mem = 1;
      }
      else {
        if ((attr->cb_mem == NULL) && (attr->cb_size == 0U)) {
 800542e:	68eb      	ldr	r3, [r5, #12]
 8005430:	bb43      	cbnz	r3, 8005484 <osSemaphoreNew+0x9c>
    else {
      mem = 0;
    }

    if (mem != -1) {
      if (max_count == 1U) {
 8005432:	2801      	cmp	r0, #1
 8005434:	d142      	bne.n	80054bc <osSemaphoreNew+0xd4>
        if (mem == 1) {
          hSemaphore = xSemaphoreCreateBinaryStatic ((StaticSemaphore_t *)attr->cb_mem);
        }
        else {
          hSemaphore = xSemaphoreCreateBinary();
 8005436:	2203      	movs	r2, #3
 8005438:	2100      	movs	r1, #0
 800543a:	2001      	movs	r0, #1
 800543c:	f000 fbd9 	bl	8005bf2 <xQueueGenericCreate>
 8005440:	4604      	mov	r4, r0
        }

        if ((hSemaphore != NULL) && (initial_count != 0U)) {
 8005442:	b1fc      	cbz	r4, 8005484 <osSemaphoreNew+0x9c>
 8005444:	b986      	cbnz	r6, 8005468 <osSemaphoreNew+0x80>
        }
      }

      #if (configQUEUE_REGISTRY_SIZE > 0)
      if (hSemaphore != NULL) {
        if (attr != NULL) {
 8005446:	b105      	cbz	r5, 800544a <osSemaphoreNew+0x62>
          name = attr->name;
 8005448:	682d      	ldr	r5, [r5, #0]
        } else {
          name = NULL;
        }
        vQueueAddToRegistry (hSemaphore, name);
 800544a:	4629      	mov	r1, r5
 800544c:	4620      	mov	r0, r4
 800544e:	f000 ffad 	bl	80063ac <vQueueAddToRegistry>
 8005452:	e017      	b.n	8005484 <osSemaphoreNew+0x9c>
          hSemaphore = xSemaphoreCreateBinaryStatic ((StaticSemaphore_t *)attr->cb_mem);
 8005454:	2303      	movs	r3, #3
 8005456:	9300      	str	r3, [sp, #0]
 8005458:	4623      	mov	r3, r4
 800545a:	2200      	movs	r2, #0
 800545c:	4611      	mov	r1, r2
 800545e:	2001      	movs	r0, #1
 8005460:	f000 fb75 	bl	8005b4e <xQueueGenericCreateStatic>
 8005464:	4604      	mov	r4, r0
 8005466:	e7ec      	b.n	8005442 <osSemaphoreNew+0x5a>
          if (xSemaphoreGive (hSemaphore) != pdPASS) {
 8005468:	2300      	movs	r3, #0
 800546a:	461a      	mov	r2, r3
 800546c:	4619      	mov	r1, r3
 800546e:	4620      	mov	r0, r4
 8005470:	f000 fc28 	bl	8005cc4 <xQueueGenericSend>
 8005474:	2801      	cmp	r0, #1
 8005476:	d0e6      	beq.n	8005446 <osSemaphoreNew+0x5e>
            vSemaphoreDelete (hSemaphore);
 8005478:	4620      	mov	r0, r4
 800547a:	f000 ffc1 	bl	8006400 <vQueueDelete>
            hSemaphore = NULL;
 800547e:	2400      	movs	r4, #0
 8005480:	e000      	b.n	8005484 <osSemaphoreNew+0x9c>
  hSemaphore = NULL;
 8005482:	2400      	movs	r4, #0
      #endif
    }
  }

  return ((osSemaphoreId_t)hSemaphore);
}
 8005484:	4620      	mov	r0, r4
 8005486:	b002      	add	sp, #8
 8005488:	bd70      	pop	{r4, r5, r6, pc}
  hSemaphore = NULL;
 800548a:	2400      	movs	r4, #0
 800548c:	e7fa      	b.n	8005484 <osSemaphoreNew+0x9c>
 800548e:	2400      	movs	r4, #0
 8005490:	e7f8      	b.n	8005484 <osSemaphoreNew+0x9c>
 8005492:	2400      	movs	r4, #0
  return ((osSemaphoreId_t)hSemaphore);
 8005494:	e7f6      	b.n	8005484 <osSemaphoreNew+0x9c>
      if (max_count == 1U) {
 8005496:	2801      	cmp	r0, #1
 8005498:	d0dc      	beq.n	8005454 <osSemaphoreNew+0x6c>
          hSemaphore = xSemaphoreCreateCountingStatic (max_count, initial_count, (StaticSemaphore_t *)attr->cb_mem);
 800549a:	4622      	mov	r2, r4
 800549c:	4631      	mov	r1, r6
 800549e:	f000 fbd0 	bl	8005c42 <xQueueCreateCountingSemaphoreStatic>
      if (hSemaphore != NULL) {
 80054a2:	4604      	mov	r4, r0
 80054a4:	2800      	cmp	r0, #0
 80054a6:	d1cf      	bne.n	8005448 <osSemaphoreNew+0x60>
 80054a8:	e7ec      	b.n	8005484 <osSemaphoreNew+0x9c>
      if (max_count == 1U) {
 80054aa:	2801      	cmp	r0, #1
 80054ac:	d0c3      	beq.n	8005436 <osSemaphoreNew+0x4e>
          hSemaphore = xSemaphoreCreateCounting (max_count, initial_count);
 80054ae:	4631      	mov	r1, r6
 80054b0:	f000 fbea 	bl	8005c88 <xQueueCreateCountingSemaphore>
      if (hSemaphore != NULL) {
 80054b4:	4604      	mov	r4, r0
 80054b6:	2800      	cmp	r0, #0
 80054b8:	d0e4      	beq.n	8005484 <osSemaphoreNew+0x9c>
 80054ba:	e7c6      	b.n	800544a <osSemaphoreNew+0x62>
          hSemaphore = xSemaphoreCreateCounting (max_count, initial_count);
 80054bc:	4631      	mov	r1, r6
 80054be:	f000 fbe3 	bl	8005c88 <xQueueCreateCountingSemaphore>
      if (hSemaphore != NULL) {
 80054c2:	4604      	mov	r4, r0
 80054c4:	2800      	cmp	r0, #0
 80054c6:	d1bf      	bne.n	8005448 <osSemaphoreNew+0x60>
 80054c8:	e7dc      	b.n	8005484 <osSemaphoreNew+0x9c>
 80054ca:	bf00      	nop
 80054cc:	20001010 	.word	0x20001010

080054d0 <osMessageQueueNew>:
  return (stat);
}

/*---------------------------------------------------------------------------*/

osMessageQueueId_t osMessageQueueNew (uint32_t msg_count, uint32_t msg_size, const osMessageQueueAttr_t *attr) {
 80054d0:	b530      	push	{r4, r5, lr}
 80054d2:	b083      	sub	sp, #12
  __ASM volatile ("MRS %0, ipsr" : "=r" (result) );
 80054d4:	f3ef 8305 	mrs	r3, IPSR
  const char *name;
  #endif

  hQueue = NULL;

  if (!IS_IRQ() && (msg_count > 0U) && (msg_size > 0U)) {
 80054d8:	2b00      	cmp	r3, #0
 80054da:	d13e      	bne.n	800555a <osMessageQueueNew+0x8a>
 80054dc:	4615      	mov	r5, r2
  __ASM volatile ("MRS %0, primask" : "=r" (result) :: "memory");
 80054de:	f3ef 8310 	mrs	r3, PRIMASK
 80054e2:	2b00      	cmp	r3, #0
 80054e4:	d13d      	bne.n	8005562 <osMessageQueueNew+0x92>
 80054e6:	4b27      	ldr	r3, [pc, #156]	; (8005584 <osMessageQueueNew+0xb4>)
 80054e8:	681b      	ldr	r3, [r3, #0]
 80054ea:	2b02      	cmp	r3, #2
 80054ec:	d014      	beq.n	8005518 <osMessageQueueNew+0x48>
 80054ee:	2800      	cmp	r0, #0
 80054f0:	d039      	beq.n	8005566 <osMessageQueueNew+0x96>
 80054f2:	2900      	cmp	r1, #0
 80054f4:	d039      	beq.n	800556a <osMessageQueueNew+0x9a>
    mem = -1;

    if (attr != NULL) {
 80054f6:	2d00      	cmp	r5, #0
 80054f8:	d03d      	beq.n	8005576 <osMessageQueueNew+0xa6>
      if ((attr->cb_mem != NULL) && (attr->cb_size >= sizeof(StaticQueue_t)) &&
 80054fa:	68ac      	ldr	r4, [r5, #8]
 80054fc:	b194      	cbz	r4, 8005524 <osMessageQueueNew+0x54>
 80054fe:	68eb      	ldr	r3, [r5, #12]
 8005500:	2b4f      	cmp	r3, #79	; 0x4f
 8005502:	d934      	bls.n	800556e <osMessageQueueNew+0x9e>
          (attr->mq_mem != NULL) && (attr->mq_size >= (msg_count * msg_size))) {
 8005504:	692a      	ldr	r2, [r5, #16]
      if ((attr->cb_mem != NULL) && (attr->cb_size >= sizeof(StaticQueue_t)) &&
 8005506:	b3a2      	cbz	r2, 8005572 <osMessageQueueNew+0xa2>
          (attr->mq_mem != NULL) && (attr->mq_size >= (msg_count * msg_size))) {
 8005508:	fb01 f300 	mul.w	r3, r1, r0
 800550c:	f8d5 c014 	ldr.w	ip, [r5, #20]
 8005510:	459c      	cmp	ip, r3
 8005512:	d219      	bcs.n	8005548 <osMessageQueueNew+0x78>
  hQueue = NULL;
 8005514:	2400      	movs	r4, #0
 8005516:	e021      	b.n	800555c <osMessageQueueNew+0x8c>
  __ASM volatile ("MRS %0, basepri" : "=r" (result) );
 8005518:	f3ef 8311 	mrs	r3, BASEPRI
  if (!IS_IRQ() && (msg_count > 0U) && (msg_size > 0U)) {
 800551c:	2b00      	cmp	r3, #0
 800551e:	d0e6      	beq.n	80054ee <osMessageQueueNew+0x1e>
  hQueue = NULL;
 8005520:	2400      	movs	r4, #0
 8005522:	e01b      	b.n	800555c <osMessageQueueNew+0x8c>
        mem = 1;
      }
      else {
        if ((attr->cb_mem == NULL) && (attr->cb_size == 0U) &&
 8005524:	68eb      	ldr	r3, [r5, #12]
 8005526:	b9cb      	cbnz	r3, 800555c <osMessageQueueNew+0x8c>
            (attr->mq_mem == NULL) && (attr->mq_size == 0U)) {
 8005528:	692a      	ldr	r2, [r5, #16]
        if ((attr->cb_mem == NULL) && (attr->cb_size == 0U) &&
 800552a:	b9ba      	cbnz	r2, 800555c <osMessageQueueNew+0x8c>

    if (mem == 1) {
      hQueue = xQueueCreateStatic (msg_count, msg_size, attr->mq_mem, attr->cb_mem);
    }
    else {
      if (mem == 0) {
 800552c:	696b      	ldr	r3, [r5, #20]
  hQueue = NULL;
 800552e:	4614      	mov	r4, r2
      if (mem == 0) {
 8005530:	b9a3      	cbnz	r3, 800555c <osMessageQueueNew+0x8c>
        hQueue = xQueueCreate (msg_count, msg_size);
 8005532:	2200      	movs	r2, #0
 8005534:	f000 fb5d 	bl	8005bf2 <xQueueGenericCreate>
      }
    }

    #if (configQUEUE_REGISTRY_SIZE > 0)
    if (hQueue != NULL) {
 8005538:	4604      	mov	r4, r0
 800553a:	b178      	cbz	r0, 800555c <osMessageQueueNew+0x8c>
      if (attr != NULL) {
        name = attr->name;
 800553c:	682d      	ldr	r5, [r5, #0]
      } else {
        name = NULL;
      }
      vQueueAddToRegistry (hQueue, name);
 800553e:	4629      	mov	r1, r5
 8005540:	4620      	mov	r0, r4
 8005542:	f000 ff33 	bl	80063ac <vQueueAddToRegistry>
 8005546:	e009      	b.n	800555c <osMessageQueueNew+0x8c>
      hQueue = xQueueCreateStatic (msg_count, msg_size, attr->mq_mem, attr->cb_mem);
 8005548:	2300      	movs	r3, #0
 800554a:	9300      	str	r3, [sp, #0]
 800554c:	4623      	mov	r3, r4
 800554e:	f000 fafe 	bl	8005b4e <xQueueGenericCreateStatic>
    if (hQueue != NULL) {
 8005552:	4604      	mov	r4, r0
 8005554:	2800      	cmp	r0, #0
 8005556:	d1f1      	bne.n	800553c <osMessageQueueNew+0x6c>
 8005558:	e000      	b.n	800555c <osMessageQueueNew+0x8c>
  hQueue = NULL;
 800555a:	2400      	movs	r4, #0
    #endif

  }

  return ((osMessageQueueId_t)hQueue);
}
 800555c:	4620      	mov	r0, r4
 800555e:	b003      	add	sp, #12
 8005560:	bd30      	pop	{r4, r5, pc}
  hQueue = NULL;
 8005562:	2400      	movs	r4, #0
 8005564:	e7fa      	b.n	800555c <osMessageQueueNew+0x8c>
 8005566:	2400      	movs	r4, #0
 8005568:	e7f8      	b.n	800555c <osMessageQueueNew+0x8c>
 800556a:	2400      	movs	r4, #0
 800556c:	e7f6      	b.n	800555c <osMessageQueueNew+0x8c>
 800556e:	2400      	movs	r4, #0
 8005570:	e7f4      	b.n	800555c <osMessageQueueNew+0x8c>
 8005572:	4614      	mov	r4, r2
  return ((osMessageQueueId_t)hQueue);
 8005574:	e7f2      	b.n	800555c <osMessageQueueNew+0x8c>
        hQueue = xQueueCreate (msg_count, msg_size);
 8005576:	2200      	movs	r2, #0
 8005578:	f000 fb3b 	bl	8005bf2 <xQueueGenericCreate>
    if (hQueue != NULL) {
 800557c:	4604      	mov	r4, r0
 800557e:	2800      	cmp	r0, #0
 8005580:	d0ec      	beq.n	800555c <osMessageQueueNew+0x8c>
 8005582:	e7dc      	b.n	800553e <osMessageQueueNew+0x6e>
 8005584:	20001010 	.word	0x20001010

08005588 <osMessageQueuePut>:

osStatus_t osMessageQueuePut (osMessageQueueId_t mq_id, const void *msg_ptr, uint8_t msg_prio, uint32_t timeout) {
 8005588:	b510      	push	{r4, lr}
 800558a:	b082      	sub	sp, #8
 800558c:	461c      	mov	r4, r3
  __ASM volatile ("MRS %0, ipsr" : "=r" (result) );
 800558e:	f3ef 8305 	mrs	r3, IPSR

  (void)msg_prio; /* Message priority is ignored */

  stat = osOK;

  if (IS_IRQ()) {
 8005592:	b9cb      	cbnz	r3, 80055c8 <osMessageQueuePut+0x40>
  __ASM volatile ("MRS %0, primask" : "=r" (result) :: "memory");
 8005594:	f3ef 8310 	mrs	r3, PRIMASK
 8005598:	b9b3      	cbnz	r3, 80055c8 <osMessageQueuePut+0x40>
 800559a:	4b22      	ldr	r3, [pc, #136]	; (8005624 <osMessageQueuePut+0x9c>)
 800559c:	681b      	ldr	r3, [r3, #0]
 800559e:	2b02      	cmp	r3, #2
 80055a0:	d00e      	beq.n	80055c0 <osMessageQueuePut+0x38>
        portYIELD_FROM_ISR (yield);
      }
    }
  }
  else {
    if ((hQueue == NULL) || (msg_ptr == NULL)) {
 80055a2:	b3b0      	cbz	r0, 8005612 <osMessageQueuePut+0x8a>
 80055a4:	b3c1      	cbz	r1, 8005618 <osMessageQueuePut+0x90>
      stat = osErrorParameter;
    }
    else {
      if (xQueueSendToBack (hQueue, msg_ptr, (TickType_t)timeout) != pdPASS) {
 80055a6:	2300      	movs	r3, #0
 80055a8:	4622      	mov	r2, r4
 80055aa:	f000 fb8b 	bl	8005cc4 <xQueueGenericSend>
 80055ae:	2801      	cmp	r0, #1
 80055b0:	d035      	beq.n	800561e <osMessageQueuePut+0x96>
        if (timeout != 0U) {
          stat = osErrorTimeout;
        } else {
          stat = osErrorResource;
 80055b2:	2c00      	cmp	r4, #0
 80055b4:	bf14      	ite	ne
 80055b6:	f06f 0001 	mvnne.w	r0, #1
 80055ba:	f06f 0002 	mvneq.w	r0, #2
 80055be:	e01a      	b.n	80055f6 <osMessageQueuePut+0x6e>
  __ASM volatile ("MRS %0, basepri" : "=r" (result) );
 80055c0:	f3ef 8311 	mrs	r3, BASEPRI
  if (IS_IRQ()) {
 80055c4:	2b00      	cmp	r3, #0
 80055c6:	d0ec      	beq.n	80055a2 <osMessageQueuePut+0x1a>
    if ((hQueue == NULL) || (msg_ptr == NULL) || (timeout != 0U)) {
 80055c8:	b1b8      	cbz	r0, 80055fa <osMessageQueuePut+0x72>
 80055ca:	b1c9      	cbz	r1, 8005600 <osMessageQueuePut+0x78>
 80055cc:	b9dc      	cbnz	r4, 8005606 <osMessageQueuePut+0x7e>
      yield = pdFALSE;
 80055ce:	2300      	movs	r3, #0
 80055d0:	9301      	str	r3, [sp, #4]
      if (xQueueSendToBackFromISR (hQueue, msg_ptr, &yield) != pdTRUE) {
 80055d2:	aa01      	add	r2, sp, #4
 80055d4:	f000 fc88 	bl	8005ee8 <xQueueGenericSendFromISR>
 80055d8:	2801      	cmp	r0, #1
 80055da:	d117      	bne.n	800560c <osMessageQueuePut+0x84>
        portYIELD_FROM_ISR (yield);
 80055dc:	9801      	ldr	r0, [sp, #4]
 80055de:	b150      	cbz	r0, 80055f6 <osMessageQueuePut+0x6e>
 80055e0:	f04f 23e0 	mov.w	r3, #3758153728	; 0xe000e000
 80055e4:	f04f 5280 	mov.w	r2, #268435456	; 0x10000000
 80055e8:	f8c3 2d04 	str.w	r2, [r3, #3332]	; 0xd04
 80055ec:	f3bf 8f4f 	dsb	sy
 80055f0:	f3bf 8f6f 	isb	sy
  stat = osOK;
 80055f4:	2000      	movs	r0, #0
      }
    }
  }

  return (stat);
}
 80055f6:	b002      	add	sp, #8
 80055f8:	bd10      	pop	{r4, pc}
      stat = osErrorParameter;
 80055fa:	f06f 0003 	mvn.w	r0, #3
 80055fe:	e7fa      	b.n	80055f6 <osMessageQueuePut+0x6e>
 8005600:	f06f 0003 	mvn.w	r0, #3
 8005604:	e7f7      	b.n	80055f6 <osMessageQueuePut+0x6e>
 8005606:	f06f 0003 	mvn.w	r0, #3
 800560a:	e7f4      	b.n	80055f6 <osMessageQueuePut+0x6e>
        stat = osErrorResource;
 800560c:	f06f 0002 	mvn.w	r0, #2
 8005610:	e7f1      	b.n	80055f6 <osMessageQueuePut+0x6e>
      stat = osErrorParameter;
 8005612:	f06f 0003 	mvn.w	r0, #3
 8005616:	e7ee      	b.n	80055f6 <osMessageQueuePut+0x6e>
 8005618:	f06f 0003 	mvn.w	r0, #3
 800561c:	e7eb      	b.n	80055f6 <osMessageQueuePut+0x6e>
  stat = osOK;
 800561e:	2000      	movs	r0, #0
 8005620:	e7e9      	b.n	80055f6 <osMessageQueuePut+0x6e>
 8005622:	bf00      	nop
 8005624:	20001010 	.word	0x20001010

08005628 <osMessageQueueGet>:

osStatus_t osMessageQueueGet (osMessageQueueId_t mq_id, void *msg_ptr, uint8_t *msg_prio, uint32_t timeout) {
 8005628:	b510      	push	{r4, lr}
 800562a:	b082      	sub	sp, #8
 800562c:	461c      	mov	r4, r3
  __ASM volatile ("MRS %0, ipsr" : "=r" (result) );
 800562e:	f3ef 8305 	mrs	r3, IPSR

  (void)msg_prio; /* Message priority is ignored */

  stat = osOK;

  if (IS_IRQ()) {
 8005632:	b9c3      	cbnz	r3, 8005666 <osMessageQueueGet+0x3e>
  __ASM volatile ("MRS %0, primask" : "=r" (result) :: "memory");
 8005634:	f3ef 8310 	mrs	r3, PRIMASK
 8005638:	b9ab      	cbnz	r3, 8005666 <osMessageQueueGet+0x3e>
 800563a:	4b21      	ldr	r3, [pc, #132]	; (80056c0 <osMessageQueueGet+0x98>)
 800563c:	681b      	ldr	r3, [r3, #0]
 800563e:	2b02      	cmp	r3, #2
 8005640:	d00d      	beq.n	800565e <osMessageQueueGet+0x36>
        portYIELD_FROM_ISR (yield);
      }
    }
  }
  else {
    if ((hQueue == NULL) || (msg_ptr == NULL)) {
 8005642:	b3a8      	cbz	r0, 80056b0 <osMessageQueueGet+0x88>
 8005644:	b3b9      	cbz	r1, 80056b6 <osMessageQueueGet+0x8e>
      stat = osErrorParameter;
    }
    else {
      if (xQueueReceive (hQueue, msg_ptr, (TickType_t)timeout) != pdPASS) {
 8005646:	4622      	mov	r2, r4
 8005648:	f000 fcb4 	bl	8005fb4 <xQueueReceive>
 800564c:	2801      	cmp	r0, #1
 800564e:	d035      	beq.n	80056bc <osMessageQueueGet+0x94>
        if (timeout != 0U) {
          stat = osErrorTimeout;
        } else {
          stat = osErrorResource;
 8005650:	2c00      	cmp	r4, #0
 8005652:	bf14      	ite	ne
 8005654:	f06f 0001 	mvnne.w	r0, #1
 8005658:	f06f 0002 	mvneq.w	r0, #2
 800565c:	e01a      	b.n	8005694 <osMessageQueueGet+0x6c>
  __ASM volatile ("MRS %0, basepri" : "=r" (result) );
 800565e:	f3ef 8311 	mrs	r3, BASEPRI
  if (IS_IRQ()) {
 8005662:	2b00      	cmp	r3, #0
 8005664:	d0ed      	beq.n	8005642 <osMessageQueueGet+0x1a>
    if ((hQueue == NULL) || (msg_ptr == NULL) || (timeout != 0U)) {
 8005666:	b1b8      	cbz	r0, 8005698 <osMessageQueueGet+0x70>
 8005668:	b1c9      	cbz	r1, 800569e <osMessageQueueGet+0x76>
 800566a:	b9dc      	cbnz	r4, 80056a4 <osMessageQueueGet+0x7c>
      yield = pdFALSE;
 800566c:	2300      	movs	r3, #0
 800566e:	9301      	str	r3, [sp, #4]
      if (xQueueReceiveFromISR (hQueue, msg_ptr, &yield) != pdPASS) {
 8005670:	aa01      	add	r2, sp, #4
 8005672:	f000 fe44 	bl	80062fe <xQueueReceiveFromISR>
 8005676:	2801      	cmp	r0, #1
 8005678:	d117      	bne.n	80056aa <osMessageQueueGet+0x82>
        portYIELD_FROM_ISR (yield);
 800567a:	9801      	ldr	r0, [sp, #4]
 800567c:	b150      	cbz	r0, 8005694 <osMessageQueueGet+0x6c>
 800567e:	f04f 23e0 	mov.w	r3, #3758153728	; 0xe000e000
 8005682:	f04f 5280 	mov.w	r2, #268435456	; 0x10000000
 8005686:	f8c3 2d04 	str.w	r2, [r3, #3332]	; 0xd04
 800568a:	f3bf 8f4f 	dsb	sy
 800568e:	f3bf 8f6f 	isb	sy
  stat = osOK;
 8005692:	2000      	movs	r0, #0
      }
    }
  }

  return (stat);
}
 8005694:	b002      	add	sp, #8
 8005696:	bd10      	pop	{r4, pc}
      stat = osErrorParameter;
 8005698:	f06f 0003 	mvn.w	r0, #3
 800569c:	e7fa      	b.n	8005694 <osMessageQueueGet+0x6c>
 800569e:	f06f 0003 	mvn.w	r0, #3
 80056a2:	e7f7      	b.n	8005694 <osMessageQueueGet+0x6c>
 80056a4:	f06f 0003 	mvn.w	r0, #3
 80056a8:	e7f4      	b.n	8005694 <osMessageQueueGet+0x6c>
        stat = osErrorResource;
 80056aa:	f06f 0002 	mvn.w	r0, #2
 80056ae:	e7f1      	b.n	8005694 <osMessageQueueGet+0x6c>
      stat = osErrorParameter;
 80056b0:	f06f 0003 	mvn.w	r0, #3
 80056b4:	e7ee      	b.n	8005694 <osMessageQueueGet+0x6c>
 80056b6:	f06f 0003 	mvn.w	r0, #3
 80056ba:	e7eb      	b.n	8005694 <osMessageQueueGet+0x6c>
  stat = osOK;
 80056bc:	2000      	movs	r0, #0
 80056be:	e7e9      	b.n	8005694 <osMessageQueueGet+0x6c>
 80056c0:	20001010 	.word	0x20001010

080056c4 <vApplicationGetIdleTaskMemory>:
/*
  vApplicationGetIdleTaskMemory gets called when configSUPPORT_STATIC_ALLOCATION
  equals to 1 and is required for static memory allocation support.
*/
void vApplicationGetIdleTaskMemory (StaticTask_t **ppxIdleTaskTCBBuffer, StackType_t **ppxIdleTaskStackBuffer, uint32_t *pulIdleTaskStackSize) {
  *ppxIdleTaskTCBBuffer   = &Idle_TCB;
 80056c4:	4b03      	ldr	r3, [pc, #12]	; (80056d4 <vApplicationGetIdleTaskMemory+0x10>)
 80056c6:	6003      	str	r3, [r0, #0]
  *ppxIdleTaskStackBuffer = &Idle_Stack[0];
 80056c8:	4b03      	ldr	r3, [pc, #12]	; (80056d8 <vApplicationGetIdleTaskMemory+0x14>)
 80056ca:	600b      	str	r3, [r1, #0]
  *pulIdleTaskStackSize   = (uint32_t)configMINIMAL_STACK_SIZE;
 80056cc:	2380      	movs	r3, #128	; 0x80
 80056ce:	6013      	str	r3, [r2, #0]
}
 80056d0:	4770      	bx	lr
 80056d2:	bf00      	nop
 80056d4:	20000fb0 	.word	0x20000fb0
 80056d8:	20000db0 	.word	0x20000db0

080056dc <vApplicationGetTimerTaskMemory>:
/*
  vApplicationGetTimerTaskMemory gets called when configSUPPORT_STATIC_ALLOCATION
  equals to 1 and is required for static memory allocation support.
*/
void vApplicationGetTimerTaskMemory (StaticTask_t **ppxTimerTaskTCBBuffer, StackType_t **ppxTimerTaskStackBuffer, uint32_t *pulTimerTaskStackSize) {
  *ppxTimerTaskTCBBuffer   = &Timer_TCB;
 80056dc:	4b03      	ldr	r3, [pc, #12]	; (80056ec <vApplicationGetTimerTaskMemory+0x10>)
 80056de:	6003      	str	r3, [r0, #0]
  *ppxTimerTaskStackBuffer = &Timer_Stack[0];
 80056e0:	4b03      	ldr	r3, [pc, #12]	; (80056f0 <vApplicationGetTimerTaskMemory+0x14>)
 80056e2:	600b      	str	r3, [r1, #0]
  *pulTimerTaskStackSize   = (uint32_t)configTIMER_TASK_STACK_DEPTH;
 80056e4:	f44f 7380 	mov.w	r3, #256	; 0x100
 80056e8:	6013      	str	r3, [r2, #0]
}
 80056ea:	4770      	bx	lr
 80056ec:	20001414 	.word	0x20001414
 80056f0:	20001014 	.word	0x20001014

080056f4 <xEventGroupCreateStatic>:
	EventGroupHandle_t xEventGroupCreateStatic( StaticEventGroup_t *pxEventGroupBuffer )
	{
	EventGroup_t *pxEventBits;

		/* A StaticEventGroup_t object must be provided. */
		configASSERT( pxEventGroupBuffer );
 80056f4:	b180      	cbz	r0, 8005718 <xEventGroupCreateStatic+0x24>
	{
 80056f6:	b510      	push	{r4, lr}
 80056f8:	b082      	sub	sp, #8
 80056fa:	4604      	mov	r4, r0
		#if( configASSERT_DEFINED == 1 )
		{
			/* Sanity check that the size of the structure used to declare a
			variable of type StaticEventGroup_t equals the size of the real
			event group structure. */
			volatile size_t xSize = sizeof( StaticEventGroup_t );
 80056fc:	2320      	movs	r3, #32
 80056fe:	9301      	str	r3, [sp, #4]
			configASSERT( xSize == sizeof( EventGroup_t ) );
 8005700:	9b01      	ldr	r3, [sp, #4]
 8005702:	2b20      	cmp	r3, #32
 8005704:	d011      	beq.n	800572a <xEventGroupCreateStatic+0x36>

portFORCE_INLINE static void vPortRaiseBASEPRI( void )
{
uint32_t ulNewBASEPRI;

	__asm volatile
 8005706:	f04f 0350 	mov.w	r3, #80	; 0x50
 800570a:	f383 8811 	msr	BASEPRI, r3
 800570e:	f3bf 8f6f 	isb	sy
 8005712:	f3bf 8f4f 	dsb	sy
 8005716:	e7fe      	b.n	8005716 <xEventGroupCreateStatic+0x22>
 8005718:	f04f 0350 	mov.w	r3, #80	; 0x50
 800571c:	f383 8811 	msr	BASEPRI, r3
 8005720:	f3bf 8f6f 	isb	sy
 8005724:	f3bf 8f4f 	dsb	sy
		configASSERT( pxEventGroupBuffer );
 8005728:	e7fe      	b.n	8005728 <xEventGroupCreateStatic+0x34>
		/* The user has provided a statically allocated event group - use it. */
		pxEventBits = ( EventGroup_t * ) pxEventGroupBuffer; /*lint !e740 EventGroup_t and StaticEventGroup_t are guaranteed to have the same size and alignment requirement - checked by configASSERT(). */

		if( pxEventBits != NULL )
		{
			pxEventBits->uxEventBits = 0;
 800572a:	2300      	movs	r3, #0
 800572c:	f840 3b04 	str.w	r3, [r0], #4
			vListInitialise( &( pxEventBits->xTasksWaitingForBits ) );
 8005730:	f000 f8f4 	bl	800591c <vListInitialise>
			#if( configSUPPORT_DYNAMIC_ALLOCATION == 1 )
			{
				/* Both static and dynamic allocation can be used, so note that
				this event group was created statically in case the event group
				is later deleted. */
				pxEventBits->ucStaticallyAllocated = pdTRUE;
 8005734:	2301      	movs	r3, #1
 8005736:	7723      	strb	r3, [r4, #28]
		{
			traceEVENT_GROUP_CREATE_FAILED();
		}

		return ( EventGroupHandle_t ) pxEventBits;
	}
 8005738:	4620      	mov	r0, r4
 800573a:	b002      	add	sp, #8
 800573c:	bd10      	pop	{r4, pc}

0800573e <xEventGroupCreate>:
/*-----------------------------------------------------------*/

#if( configSUPPORT_DYNAMIC_ALLOCATION == 1 )

	EventGroupHandle_t xEventGroupCreate( void )
	{
 800573e:	b538      	push	{r3, r4, r5, lr}
	EventGroup_t *pxEventBits;

		/* Allocate the event group. */
		pxEventBits = ( EventGroup_t * ) pvPortMalloc( sizeof( EventGroup_t ) );
 8005740:	2020      	movs	r0, #32
 8005742:	f002 f891 	bl	8007868 <pvPortMalloc>

		if( pxEventBits != NULL )
 8005746:	4604      	mov	r4, r0
 8005748:	b128      	cbz	r0, 8005756 <xEventGroupCreate+0x18>
		{
			pxEventBits->uxEventBits = 0;
 800574a:	2500      	movs	r5, #0
 800574c:	f840 5b04 	str.w	r5, [r0], #4
			vListInitialise( &( pxEventBits->xTasksWaitingForBits ) );
 8005750:	f000 f8e4 	bl	800591c <vListInitialise>
			#if( configSUPPORT_STATIC_ALLOCATION == 1 )
			{
				/* Both static and dynamic allocation can be used, so note this
				event group was allocated statically in case the event group is
				later deleted. */
				pxEventBits->ucStaticallyAllocated = pdFALSE;
 8005754:	7725      	strb	r5, [r4, #28]
		{
			traceEVENT_GROUP_CREATE_FAILED();
		}

		return ( EventGroupHandle_t ) pxEventBits;
	}
 8005756:	4620      	mov	r0, r4
 8005758:	bd38      	pop	{r3, r4, r5, pc}

0800575a <xEventGroupWaitBits>:
BaseType_t xWaitConditionMet, xAlreadyYielded;
BaseType_t xTimeoutOccurred = pdFALSE;

	/* Check the user is not attempting to wait on the bits used by the kernel
	itself, and that at least one bit is being requested. */
	configASSERT( xEventGroup );
 800575a:	b188      	cbz	r0, 8005780 <xEventGroupWaitBits+0x26>
{
 800575c:	e92d 41f0 	stmdb	sp!, {r4, r5, r6, r7, r8, lr}
 8005760:	460c      	mov	r4, r1
 8005762:	4616      	mov	r6, r2
 8005764:	461d      	mov	r5, r3
 8005766:	4607      	mov	r7, r0
	configASSERT( ( uxBitsToWaitFor & eventEVENT_BITS_CONTROL_BYTES ) == 0 );
 8005768:	f011 4f7f 	tst.w	r1, #4278190080	; 0xff000000
 800576c:	d011      	beq.n	8005792 <xEventGroupWaitBits+0x38>
 800576e:	f04f 0350 	mov.w	r3, #80	; 0x50
 8005772:	f383 8811 	msr	BASEPRI, r3
 8005776:	f3bf 8f6f 	isb	sy
 800577a:	f3bf 8f4f 	dsb	sy
 800577e:	e7fe      	b.n	800577e <xEventGroupWaitBits+0x24>
 8005780:	f04f 0350 	mov.w	r3, #80	; 0x50
 8005784:	f383 8811 	msr	BASEPRI, r3
 8005788:	f3bf 8f6f 	isb	sy
 800578c:	f3bf 8f4f 	dsb	sy
	configASSERT( xEventGroup );
 8005790:	e7fe      	b.n	8005790 <xEventGroupWaitBits+0x36>
	configASSERT( uxBitsToWaitFor != 0 );
 8005792:	b941      	cbnz	r1, 80057a6 <xEventGroupWaitBits+0x4c>
 8005794:	f04f 0350 	mov.w	r3, #80	; 0x50
 8005798:	f383 8811 	msr	BASEPRI, r3
 800579c:	f3bf 8f6f 	isb	sy
 80057a0:	f3bf 8f4f 	dsb	sy
 80057a4:	e7fe      	b.n	80057a4 <xEventGroupWaitBits+0x4a>
	#if ( ( INCLUDE_xTaskGetSchedulerState == 1 ) || ( configUSE_TIMERS == 1 ) )
	{
		configASSERT( !( ( xTaskGetSchedulerState() == taskSCHEDULER_SUSPENDED ) && ( xTicksToWait != 0 ) ) );
 80057a6:	f001 fb99 	bl	8006edc <xTaskGetSchedulerState>
 80057aa:	b950      	cbnz	r0, 80057c2 <xEventGroupWaitBits+0x68>
 80057ac:	9b06      	ldr	r3, [sp, #24]
 80057ae:	b143      	cbz	r3, 80057c2 <xEventGroupWaitBits+0x68>
 80057b0:	f04f 0350 	mov.w	r3, #80	; 0x50
 80057b4:	f383 8811 	msr	BASEPRI, r3
 80057b8:	f3bf 8f6f 	isb	sy
 80057bc:	f3bf 8f4f 	dsb	sy
 80057c0:	e7fe      	b.n	80057c0 <xEventGroupWaitBits+0x66>
	}
	#endif

	vTaskSuspendAll();
 80057c2:	f001 f87d 	bl	80068c0 <vTaskSuspendAll>
	{
		const EventBits_t uxCurrentEventBits = pxEventBits->uxEventBits;
 80057c6:	f8d7 8000 	ldr.w	r8, [r7]

static BaseType_t prvTestWaitCondition( const EventBits_t uxCurrentEventBits, const EventBits_t uxBitsToWaitFor, const BaseType_t xWaitForAllBits )
{
BaseType_t xWaitConditionMet = pdFALSE;

	if( xWaitForAllBits == pdFALSE )
 80057ca:	bb5d      	cbnz	r5, 8005824 <xEventGroupWaitBits+0xca>
	{
		/* Task only has to wait for one bit within uxBitsToWaitFor to be
		set.  Is one already set? */
		if( ( uxCurrentEventBits & uxBitsToWaitFor ) != ( EventBits_t ) 0 )
 80057cc:	ea14 0f08 	tst.w	r4, r8
 80057d0:	bf14      	ite	ne
 80057d2:	2001      	movne	r0, #1
 80057d4:	2000      	moveq	r0, #0
		if( xWaitConditionMet != pdFALSE )
 80057d6:	bb58      	cbnz	r0, 8005830 <xEventGroupWaitBits+0xd6>
		else if( xTicksToWait == ( TickType_t ) 0 )
 80057d8:	9b06      	ldr	r3, [sp, #24]
 80057da:	b36b      	cbz	r3, 8005838 <xEventGroupWaitBits+0xde>
			if( xClearOnExit != pdFALSE )
 80057dc:	1e31      	subs	r1, r6, #0
 80057de:	bf18      	it	ne
 80057e0:	2101      	movne	r1, #1
 80057e2:	0609      	lsls	r1, r1, #24
			if( xWaitForAllBits != pdFALSE )
 80057e4:	b10d      	cbz	r5, 80057ea <xEventGroupWaitBits+0x90>
				uxControlBits |= eventWAIT_FOR_ALL_BITS;
 80057e6:	f041 6180 	orr.w	r1, r1, #67108864	; 0x4000000
			vTaskPlaceOnUnorderedEventList( &( pxEventBits->xTasksWaitingForBits ), ( uxBitsToWaitFor | uxControlBits ), xTicksToWait );
 80057ea:	9a06      	ldr	r2, [sp, #24]
 80057ec:	4321      	orrs	r1, r4
 80057ee:	1d38      	adds	r0, r7, #4
 80057f0:	f001 fa48 	bl	8006c84 <vTaskPlaceOnUnorderedEventList>
	xAlreadyYielded = xTaskResumeAll();
 80057f4:	f001 f90c 	bl	8006a10 <xTaskResumeAll>
		if( xAlreadyYielded == pdFALSE )
 80057f8:	b948      	cbnz	r0, 800580e <xEventGroupWaitBits+0xb4>
			portYIELD_WITHIN_API();
 80057fa:	f04f 23e0 	mov.w	r3, #3758153728	; 0xe000e000
 80057fe:	f04f 5280 	mov.w	r2, #268435456	; 0x10000000
 8005802:	f8c3 2d04 	str.w	r2, [r3, #3332]	; 0xd04
 8005806:	f3bf 8f4f 	dsb	sy
 800580a:	f3bf 8f6f 	isb	sy
		uxReturn = uxTaskResetEventItemValue();
 800580e:	f001 fc59 	bl	80070c4 <uxTaskResetEventItemValue>
 8005812:	4680      	mov	r8, r0
		if( ( uxReturn & eventUNBLOCKED_DUE_TO_BIT_SET ) == ( EventBits_t ) 0 )
 8005814:	f010 7f00 	tst.w	r0, #33554432	; 0x2000000
 8005818:	d011      	beq.n	800583e <xEventGroupWaitBits+0xe4>
		uxReturn &= ~eventEVENT_BITS_CONTROL_BYTES;
 800581a:	f028 487f 	bic.w	r8, r8, #4278190080	; 0xff000000
}
 800581e:	4640      	mov	r0, r8
 8005820:	e8bd 81f0 	ldmia.w	sp!, {r4, r5, r6, r7, r8, pc}
	}
	else
	{
		/* Task has to wait for all the bits in uxBitsToWaitFor to be set.
		Are they set already? */
		if( ( uxCurrentEventBits & uxBitsToWaitFor ) == uxBitsToWaitFor )
 8005824:	ea34 0308 	bics.w	r3, r4, r8
 8005828:	bf0c      	ite	eq
 800582a:	2001      	moveq	r0, #1
 800582c:	2000      	movne	r0, #0
 800582e:	e7d2      	b.n	80057d6 <xEventGroupWaitBits+0x7c>
			if( xClearOnExit != pdFALSE )
 8005830:	b116      	cbz	r6, 8005838 <xEventGroupWaitBits+0xde>
				pxEventBits->uxEventBits &= ~uxBitsToWaitFor;
 8005832:	ea28 0404 	bic.w	r4, r8, r4
 8005836:	603c      	str	r4, [r7, #0]
	xAlreadyYielded = xTaskResumeAll();
 8005838:	f001 f8ea 	bl	8006a10 <xTaskResumeAll>
	if( xTicksToWait != ( TickType_t ) 0 )
 800583c:	e7ef      	b.n	800581e <xEventGroupWaitBits+0xc4>
			taskENTER_CRITICAL();
 800583e:	f001 fec9 	bl	80075d4 <vPortEnterCritical>
				uxReturn = pxEventBits->uxEventBits;
 8005842:	f8d7 8000 	ldr.w	r8, [r7]
	if( xWaitForAllBits == pdFALSE )
 8005846:	b965      	cbnz	r5, 8005862 <xEventGroupWaitBits+0x108>
		if( ( uxCurrentEventBits & uxBitsToWaitFor ) != ( EventBits_t ) 0 )
 8005848:	ea14 0f08 	tst.w	r4, r8
 800584c:	bf14      	ite	ne
 800584e:	2301      	movne	r3, #1
 8005850:	2300      	moveq	r3, #0
				if( prvTestWaitCondition( uxReturn, uxBitsToWaitFor, xWaitForAllBits ) != pdFALSE )
 8005852:	b11b      	cbz	r3, 800585c <xEventGroupWaitBits+0x102>
					if( xClearOnExit != pdFALSE )
 8005854:	b116      	cbz	r6, 800585c <xEventGroupWaitBits+0x102>
						pxEventBits->uxEventBits &= ~uxBitsToWaitFor;
 8005856:	ea28 0404 	bic.w	r4, r8, r4
 800585a:	603c      	str	r4, [r7, #0]
			taskEXIT_CRITICAL();
 800585c:	f001 fedc 	bl	8007618 <vPortExitCritical>
 8005860:	e7db      	b.n	800581a <xEventGroupWaitBits+0xc0>
		if( ( uxCurrentEventBits & uxBitsToWaitFor ) == uxBitsToWaitFor )
 8005862:	ea34 0308 	bics.w	r3, r4, r8
 8005866:	bf0c      	ite	eq
 8005868:	2301      	moveq	r3, #1
 800586a:	2300      	movne	r3, #0
 800586c:	e7f1      	b.n	8005852 <xEventGroupWaitBits+0xf8>

0800586e <xEventGroupSetBits>:
	configASSERT( xEventGroup );
 800586e:	b178      	cbz	r0, 8005890 <xEventGroupSetBits+0x22>
{
 8005870:	e92d 41f0 	stmdb	sp!, {r4, r5, r6, r7, r8, lr}
 8005874:	460e      	mov	r6, r1
 8005876:	4605      	mov	r5, r0
	configASSERT( ( uxBitsToSet & eventEVENT_BITS_CONTROL_BYTES ) == 0 );
 8005878:	f011 487f 	ands.w	r8, r1, #4278190080	; 0xff000000
 800587c:	d011      	beq.n	80058a2 <xEventGroupSetBits+0x34>
 800587e:	f04f 0350 	mov.w	r3, #80	; 0x50
 8005882:	f383 8811 	msr	BASEPRI, r3
 8005886:	f3bf 8f6f 	isb	sy
 800588a:	f3bf 8f4f 	dsb	sy
 800588e:	e7fe      	b.n	800588e <xEventGroupSetBits+0x20>
 8005890:	f04f 0350 	mov.w	r3, #80	; 0x50
 8005894:	f383 8811 	msr	BASEPRI, r3
 8005898:	f3bf 8f6f 	isb	sy
 800589c:	f3bf 8f4f 	dsb	sy
	configASSERT( xEventGroup );
 80058a0:	e7fe      	b.n	80058a0 <xEventGroupSetBits+0x32>
	pxListEnd = listGET_END_MARKER( pxList ); /*lint !e826 !e740 The mini list structure is used as the list end to save RAM.  This is checked and valid. */
 80058a2:	f100 070c 	add.w	r7, r0, #12
	vTaskSuspendAll();
 80058a6:	f001 f80b 	bl	80068c0 <vTaskSuspendAll>
		pxListItem = listGET_HEAD_ENTRY( pxList );
 80058aa:	692c      	ldr	r4, [r5, #16]
		pxEventBits->uxEventBits |= uxBitsToSet;
 80058ac:	682b      	ldr	r3, [r5, #0]
 80058ae:	4333      	orrs	r3, r6
 80058b0:	602b      	str	r3, [r5, #0]
		while( pxListItem != pxListEnd )
 80058b2:	42a7      	cmp	r7, r4
 80058b4:	d118      	bne.n	80058e8 <xEventGroupSetBits+0x7a>
		pxEventBits->uxEventBits &= ~uxBitsToClear;
 80058b6:	682b      	ldr	r3, [r5, #0]
 80058b8:	ea23 0308 	bic.w	r3, r3, r8
 80058bc:	602b      	str	r3, [r5, #0]
	( void ) xTaskResumeAll();
 80058be:	f001 f8a7 	bl	8006a10 <xTaskResumeAll>
}
 80058c2:	6828      	ldr	r0, [r5, #0]
 80058c4:	e8bd 81f0 	ldmia.w	sp!, {r4, r5, r6, r7, r8, pc}
			else if( ( uxBitsWaitedFor & pxEventBits->uxEventBits ) == uxBitsWaitedFor )
 80058c8:	6829      	ldr	r1, [r5, #0]
 80058ca:	ea32 0101 	bics.w	r1, r2, r1
 80058ce:	d109      	bne.n	80058e4 <xEventGroupSetBits+0x76>
				if( ( uxControlBits & eventCLEAR_EVENTS_ON_EXIT_BIT ) != ( EventBits_t ) 0 )
 80058d0:	f013 7f80 	tst.w	r3, #16777216	; 0x1000000
					uxBitsToClear |= uxBitsWaitedFor;
 80058d4:	bf18      	it	ne
 80058d6:	ea48 0802 	orrne.w	r8, r8, r2
				vTaskRemoveFromUnorderedEventList( pxListItem, pxEventBits->uxEventBits | eventUNBLOCKED_DUE_TO_BIT_SET );
 80058da:	6829      	ldr	r1, [r5, #0]
 80058dc:	f041 7100 	orr.w	r1, r1, #33554432	; 0x2000000
 80058e0:	f001 fa5e 	bl	8006da0 <vTaskRemoveFromUnorderedEventList>
		while( pxListItem != pxListEnd )
 80058e4:	42a7      	cmp	r7, r4
 80058e6:	d0e6      	beq.n	80058b6 <xEventGroupSetBits+0x48>
			pxNext = listGET_NEXT( pxListItem );
 80058e8:	4620      	mov	r0, r4
 80058ea:	6864      	ldr	r4, [r4, #4]
			uxBitsWaitedFor = listGET_LIST_ITEM_VALUE( pxListItem );
 80058ec:	6803      	ldr	r3, [r0, #0]
			uxBitsWaitedFor &= ~eventEVENT_BITS_CONTROL_BYTES;
 80058ee:	f023 427f 	bic.w	r2, r3, #4278190080	; 0xff000000
			if( ( uxControlBits & eventWAIT_FOR_ALL_BITS ) == ( EventBits_t ) 0 )
 80058f2:	f013 6f80 	tst.w	r3, #67108864	; 0x4000000
 80058f6:	d1e7      	bne.n	80058c8 <xEventGroupSetBits+0x5a>
				if( ( uxBitsWaitedFor & pxEventBits->uxEventBits ) != ( EventBits_t ) 0 )
 80058f8:	6829      	ldr	r1, [r5, #0]
 80058fa:	420a      	tst	r2, r1
 80058fc:	d1e8      	bne.n	80058d0 <xEventGroupSetBits+0x62>
 80058fe:	e7f1      	b.n	80058e4 <xEventGroupSetBits+0x76>

08005900 <vEventGroupSetBitsCallback>:
{
 8005900:	b508      	push	{r3, lr}
	( void ) xEventGroupSetBits( pvEventGroup, ( EventBits_t ) ulBitsToSet );
 8005902:	f7ff ffb4 	bl	800586e <xEventGroupSetBits>
}
 8005906:	bd08      	pop	{r3, pc}

08005908 <xEventGroupSetBitsFromISR>:
/*-----------------------------------------------------------*/

#if ( ( configUSE_TRACE_FACILITY == 1 ) && ( INCLUDE_xTimerPendFunctionCall == 1 ) && ( configUSE_TIMERS == 1 ) )

	BaseType_t xEventGroupSetBitsFromISR( EventGroupHandle_t xEventGroup, const EventBits_t uxBitsToSet, BaseType_t *pxHigherPriorityTaskWoken )
	{
 8005908:	b508      	push	{r3, lr}
 800590a:	4613      	mov	r3, r2
	BaseType_t xReturn;

		traceEVENT_GROUP_SET_BITS_FROM_ISR( xEventGroup, uxBitsToSet );
		xReturn = xTimerPendFunctionCallFromISR( vEventGroupSetBitsCallback, ( void * ) xEventGroup, ( uint32_t ) uxBitsToSet, pxHigherPriorityTaskWoken );
 800590c:	460a      	mov	r2, r1
 800590e:	4601      	mov	r1, r0
 8005910:	4801      	ldr	r0, [pc, #4]	; (8005918 <xEventGroupSetBitsFromISR+0x10>)
 8005912:	f001 fdf5 	bl	8007500 <xTimerPendFunctionCallFromISR>

		return xReturn;
	}
 8005916:	bd08      	pop	{r3, pc}
 8005918:	08005901 	.word	0x08005901

0800591c <vListInitialise>:
void vListInitialise( List_t * const pxList )
{
	/* The list structure contains a list item which is used to mark the
	end of the list.  To initialise the list the list end is inserted
	as the only list entry. */
	pxList->pxIndex = ( ListItem_t * ) &( pxList->xListEnd );			/*lint !e826 !e740 The mini list structure is used as the list end to save RAM.  This is checked and valid. */
 800591c:	f100 0308 	add.w	r3, r0, #8
 8005920:	6043      	str	r3, [r0, #4]

	/* The list end value is the highest possible value in the list to
	ensure it remains at the end of the list. */
	pxList->xListEnd.xItemValue = portMAX_DELAY;
 8005922:	f04f 32ff 	mov.w	r2, #4294967295
 8005926:	6082      	str	r2, [r0, #8]

	/* The list end next and previous pointers point to itself so we know
	when the list is empty. */
	pxList->xListEnd.pxNext = ( ListItem_t * ) &( pxList->xListEnd );	/*lint !e826 !e740 The mini list structure is used as the list end to save RAM.  This is checked and valid. */
 8005928:	60c3      	str	r3, [r0, #12]
	pxList->xListEnd.pxPrevious = ( ListItem_t * ) &( pxList->xListEnd );/*lint !e826 !e740 The mini list structure is used as the list end to save RAM.  This is checked and valid. */
 800592a:	6103      	str	r3, [r0, #16]

	pxList->uxNumberOfItems = ( UBaseType_t ) 0U;
 800592c:	2300      	movs	r3, #0
 800592e:	6003      	str	r3, [r0, #0]

	/* Write known values into the list if
	configUSE_LIST_DATA_INTEGRITY_CHECK_BYTES is set to 1. */
	listSET_LIST_INTEGRITY_CHECK_1_VALUE( pxList );
	listSET_LIST_INTEGRITY_CHECK_2_VALUE( pxList );
}
 8005930:	4770      	bx	lr

08005932 <vListInitialiseItem>:
/*-----------------------------------------------------------*/

void vListInitialiseItem( ListItem_t * const pxItem )
{
	/* Make sure the list item is not recorded as being on a list. */
	pxItem->pvContainer = NULL;
 8005932:	2300      	movs	r3, #0
 8005934:	6103      	str	r3, [r0, #16]

	/* Write known values into the list item if
	configUSE_LIST_DATA_INTEGRITY_CHECK_BYTES is set to 1. */
	listSET_FIRST_LIST_ITEM_INTEGRITY_CHECK_VALUE( pxItem );
	listSET_SECOND_LIST_ITEM_INTEGRITY_CHECK_VALUE( pxItem );
}
 8005936:	4770      	bx	lr

08005938 <vListInsertEnd>:
/*-----------------------------------------------------------*/

void vListInsertEnd( List_t * const pxList, ListItem_t * const pxNewListItem )
{
ListItem_t * const pxIndex = pxList->pxIndex;
 8005938:	6843      	ldr	r3, [r0, #4]
	listTEST_LIST_ITEM_INTEGRITY( pxNewListItem );

	/* Insert a new list item into pxList, but rather than sort the list,
	makes the new list item the last item to be removed by a call to
	listGET_OWNER_OF_NEXT_ENTRY(). */
	pxNewListItem->pxNext = pxIndex;
 800593a:	604b      	str	r3, [r1, #4]
	pxNewListItem->pxPrevious = pxIndex->pxPrevious;
 800593c:	689a      	ldr	r2, [r3, #8]
 800593e:	608a      	str	r2, [r1, #8]

	/* Only used during decision coverage testing. */
	mtCOVERAGE_TEST_DELAY();

	pxIndex->pxPrevious->pxNext = pxNewListItem;
 8005940:	6051      	str	r1, [r2, #4]
	pxIndex->pxPrevious = pxNewListItem;
 8005942:	6099      	str	r1, [r3, #8]

	/* Remember which list the item is in. */
	pxNewListItem->pvContainer = ( void * ) pxList;
 8005944:	6108      	str	r0, [r1, #16]

	( pxList->uxNumberOfItems )++;
 8005946:	6803      	ldr	r3, [r0, #0]
 8005948:	3301      	adds	r3, #1
 800594a:	6003      	str	r3, [r0, #0]
}
 800594c:	4770      	bx	lr

0800594e <vListInsert>:
/*-----------------------------------------------------------*/

void vListInsert( List_t * const pxList, ListItem_t * const pxNewListItem )
{
 800594e:	b430      	push	{r4, r5}
ListItem_t *pxIterator;
const TickType_t xValueOfInsertion = pxNewListItem->xItemValue;
 8005950:	680d      	ldr	r5, [r1, #0]
	new list item should be placed after it.  This ensures that TCB's which are
	stored in ready lists (all of which have the same xItemValue value) get a
	share of the CPU.  However, if the xItemValue is the same as the back marker
	the iteration loop below will not end.  Therefore the value is checked
	first, and the algorithm slightly modified if necessary. */
	if( xValueOfInsertion == portMAX_DELAY )
 8005952:	f1b5 3fff 	cmp.w	r5, #4294967295
 8005956:	d011      	beq.n	800597c <vListInsert+0x2e>
			4) Using a queue or semaphore before it has been initialised or
			   before the scheduler has been started (are interrupts firing
			   before vTaskStartScheduler() has been called?).
		**********************************************************************/

		for( pxIterator = ( ListItem_t * ) &( pxList->xListEnd ); pxIterator->pxNext->xItemValue <= xValueOfInsertion; pxIterator = pxIterator->pxNext ) /*lint !e826 !e740 The mini list structure is used as the list end to save RAM.  This is checked and valid. */
 8005958:	f100 0308 	add.w	r3, r0, #8
 800595c:	461c      	mov	r4, r3
 800595e:	685b      	ldr	r3, [r3, #4]
 8005960:	681a      	ldr	r2, [r3, #0]
 8005962:	42aa      	cmp	r2, r5
 8005964:	d9fa      	bls.n	800595c <vListInsert+0xe>
			/* There is nothing to do here, just iterating to the wanted
			insertion position. */
		}
	}

	pxNewListItem->pxNext = pxIterator->pxNext;
 8005966:	6863      	ldr	r3, [r4, #4]
 8005968:	604b      	str	r3, [r1, #4]
	pxNewListItem->pxNext->pxPrevious = pxNewListItem;
 800596a:	6099      	str	r1, [r3, #8]
	pxNewListItem->pxPrevious = pxIterator;
 800596c:	608c      	str	r4, [r1, #8]
	pxIterator->pxNext = pxNewListItem;
 800596e:	6061      	str	r1, [r4, #4]

	/* Remember which list the item is in.  This allows fast removal of the
	item later. */
	pxNewListItem->pvContainer = ( void * ) pxList;
 8005970:	6108      	str	r0, [r1, #16]

	( pxList->uxNumberOfItems )++;
 8005972:	6803      	ldr	r3, [r0, #0]
 8005974:	3301      	adds	r3, #1
 8005976:	6003      	str	r3, [r0, #0]
}
 8005978:	bc30      	pop	{r4, r5}
 800597a:	4770      	bx	lr
		pxIterator = pxList->xListEnd.pxPrevious;
 800597c:	6904      	ldr	r4, [r0, #16]
 800597e:	e7f2      	b.n	8005966 <vListInsert+0x18>

08005980 <uxListRemove>:

UBaseType_t uxListRemove( ListItem_t * const pxItemToRemove )
{
/* The list item knows which list it is in.  Obtain the list from the list
item. */
List_t * const pxList = ( List_t * ) pxItemToRemove->pvContainer;
 8005980:	6903      	ldr	r3, [r0, #16]

	pxItemToRemove->pxNext->pxPrevious = pxItemToRemove->pxPrevious;
 8005982:	6841      	ldr	r1, [r0, #4]
 8005984:	6882      	ldr	r2, [r0, #8]
 8005986:	608a      	str	r2, [r1, #8]
	pxItemToRemove->pxPrevious->pxNext = pxItemToRemove->pxNext;
 8005988:	6841      	ldr	r1, [r0, #4]
 800598a:	6051      	str	r1, [r2, #4]

	/* Only used during decision coverage testing. */
	mtCOVERAGE_TEST_DELAY();

	/* Make sure the index is left pointing to a valid item. */
	if( pxList->pxIndex == pxItemToRemove )
 800598c:	685a      	ldr	r2, [r3, #4]
 800598e:	4282      	cmp	r2, r0
	{
		pxList->pxIndex = pxItemToRemove->pxPrevious;
 8005990:	bf04      	itt	eq
 8005992:	6882      	ldreq	r2, [r0, #8]
 8005994:	605a      	streq	r2, [r3, #4]
	else
	{
		mtCOVERAGE_TEST_MARKER();
	}

	pxItemToRemove->pvContainer = NULL;
 8005996:	2200      	movs	r2, #0
 8005998:	6102      	str	r2, [r0, #16]
	( pxList->uxNumberOfItems )--;
 800599a:	681a      	ldr	r2, [r3, #0]
 800599c:	3a01      	subs	r2, #1
 800599e:	601a      	str	r2, [r3, #0]

	return pxList->uxNumberOfItems;
 80059a0:	6818      	ldr	r0, [r3, #0]
}
 80059a2:	4770      	bx	lr

080059a4 <prvIsQueueEmpty>:
	taskEXIT_CRITICAL();
}
/*-----------------------------------------------------------*/

static BaseType_t prvIsQueueEmpty( const Queue_t *pxQueue )
{
 80059a4:	b510      	push	{r4, lr}
 80059a6:	4604      	mov	r4, r0
BaseType_t xReturn;

	taskENTER_CRITICAL();
 80059a8:	f001 fe14 	bl	80075d4 <vPortEnterCritical>
	{
		if( pxQueue->uxMessagesWaiting == ( UBaseType_t )  0 )
 80059ac:	6ba4      	ldr	r4, [r4, #56]	; 0x38
		else
		{
			xReturn = pdFALSE;
		}
	}
	taskEXIT_CRITICAL();
 80059ae:	f001 fe33 	bl	8007618 <vPortExitCritical>

	return xReturn;
}
 80059b2:	fab4 f084 	clz	r0, r4
 80059b6:	0940      	lsrs	r0, r0, #5
 80059b8:	bd10      	pop	{r4, pc}

080059ba <prvCopyDataToQueue>:
{
 80059ba:	b570      	push	{r4, r5, r6, lr}
 80059bc:	4604      	mov	r4, r0
 80059be:	4615      	mov	r5, r2
	uxMessagesWaiting = pxQueue->uxMessagesWaiting;
 80059c0:	6b86      	ldr	r6, [r0, #56]	; 0x38
	if( pxQueue->uxItemSize == ( UBaseType_t ) 0 )
 80059c2:	6c02      	ldr	r2, [r0, #64]	; 0x40
 80059c4:	b95a      	cbnz	r2, 80059de <prvCopyDataToQueue+0x24>
			if( pxQueue->uxQueueType == queueQUEUE_IS_MUTEX )
 80059c6:	6803      	ldr	r3, [r0, #0]
 80059c8:	b11b      	cbz	r3, 80059d2 <prvCopyDataToQueue+0x18>
BaseType_t xReturn = pdFALSE;
 80059ca:	2000      	movs	r0, #0
	pxQueue->uxMessagesWaiting = uxMessagesWaiting + ( UBaseType_t ) 1;
 80059cc:	3601      	adds	r6, #1
 80059ce:	63a6      	str	r6, [r4, #56]	; 0x38
}
 80059d0:	bd70      	pop	{r4, r5, r6, pc}
				xReturn = xTaskPriorityDisinherit( ( void * ) pxQueue->pxMutexHolder );
 80059d2:	6840      	ldr	r0, [r0, #4]
 80059d4:	f001 fade 	bl	8006f94 <xTaskPriorityDisinherit>
				pxQueue->pxMutexHolder = NULL;
 80059d8:	2300      	movs	r3, #0
 80059da:	6063      	str	r3, [r4, #4]
 80059dc:	e7f6      	b.n	80059cc <prvCopyDataToQueue+0x12>
	else if( xPosition == queueSEND_TO_BACK )
 80059de:	b96d      	cbnz	r5, 80059fc <prvCopyDataToQueue+0x42>
		( void ) memcpy( ( void * ) pxQueue->pcWriteTo, pvItemToQueue, ( size_t ) pxQueue->uxItemSize ); /*lint !e961 !e418 MISRA exception as the casts are only redundant for some ports, plus previous logic ensures a null pointer can only be passed to memcpy() if the copy size is 0. */
 80059e0:	6880      	ldr	r0, [r0, #8]
 80059e2:	f002 fa30 	bl	8007e46 <memcpy>
		pxQueue->pcWriteTo += pxQueue->uxItemSize;
 80059e6:	68a3      	ldr	r3, [r4, #8]
 80059e8:	6c22      	ldr	r2, [r4, #64]	; 0x40
 80059ea:	4413      	add	r3, r2
 80059ec:	60a3      	str	r3, [r4, #8]
		if( pxQueue->pcWriteTo >= pxQueue->pcTail ) /*lint !e946 MISRA exception justified as comparison of pointers is the cleanest solution. */
 80059ee:	6862      	ldr	r2, [r4, #4]
 80059f0:	4293      	cmp	r3, r2
 80059f2:	d319      	bcc.n	8005a28 <prvCopyDataToQueue+0x6e>
			pxQueue->pcWriteTo = pxQueue->pcHead;
 80059f4:	6823      	ldr	r3, [r4, #0]
 80059f6:	60a3      	str	r3, [r4, #8]
BaseType_t xReturn = pdFALSE;
 80059f8:	4628      	mov	r0, r5
 80059fa:	e7e7      	b.n	80059cc <prvCopyDataToQueue+0x12>
		( void ) memcpy( ( void * ) pxQueue->u.pcReadFrom, pvItemToQueue, ( size_t ) pxQueue->uxItemSize ); /*lint !e961 MISRA exception as the casts are only redundant for some ports. */
 80059fc:	68c0      	ldr	r0, [r0, #12]
 80059fe:	f002 fa22 	bl	8007e46 <memcpy>
		pxQueue->u.pcReadFrom -= pxQueue->uxItemSize;
 8005a02:	6c22      	ldr	r2, [r4, #64]	; 0x40
 8005a04:	4251      	negs	r1, r2
 8005a06:	68e3      	ldr	r3, [r4, #12]
 8005a08:	1a9b      	subs	r3, r3, r2
 8005a0a:	60e3      	str	r3, [r4, #12]
		if( pxQueue->u.pcReadFrom < pxQueue->pcHead ) /*lint !e946 MISRA exception justified as comparison of pointers is the cleanest solution. */
 8005a0c:	6822      	ldr	r2, [r4, #0]
 8005a0e:	4293      	cmp	r3, r2
 8005a10:	d202      	bcs.n	8005a18 <prvCopyDataToQueue+0x5e>
			pxQueue->u.pcReadFrom = ( pxQueue->pcTail - pxQueue->uxItemSize );
 8005a12:	6863      	ldr	r3, [r4, #4]
 8005a14:	440b      	add	r3, r1
 8005a16:	60e3      	str	r3, [r4, #12]
		if( xPosition == queueOVERWRITE )
 8005a18:	2d02      	cmp	r5, #2
 8005a1a:	d001      	beq.n	8005a20 <prvCopyDataToQueue+0x66>
BaseType_t xReturn = pdFALSE;
 8005a1c:	2000      	movs	r0, #0
 8005a1e:	e7d5      	b.n	80059cc <prvCopyDataToQueue+0x12>
			if( uxMessagesWaiting > ( UBaseType_t ) 0 )
 8005a20:	b126      	cbz	r6, 8005a2c <prvCopyDataToQueue+0x72>
				--uxMessagesWaiting;
 8005a22:	3e01      	subs	r6, #1
BaseType_t xReturn = pdFALSE;
 8005a24:	2000      	movs	r0, #0
 8005a26:	e7d1      	b.n	80059cc <prvCopyDataToQueue+0x12>
 8005a28:	4628      	mov	r0, r5
 8005a2a:	e7cf      	b.n	80059cc <prvCopyDataToQueue+0x12>
 8005a2c:	2000      	movs	r0, #0
 8005a2e:	e7cd      	b.n	80059cc <prvCopyDataToQueue+0x12>

08005a30 <prvCopyDataFromQueue>:
{
 8005a30:	b508      	push	{r3, lr}
 8005a32:	4603      	mov	r3, r0
	if( pxQueue->uxItemSize != ( UBaseType_t ) 0 )
 8005a34:	6c02      	ldr	r2, [r0, #64]	; 0x40
 8005a36:	b162      	cbz	r2, 8005a52 <prvCopyDataFromQueue+0x22>
 8005a38:	4608      	mov	r0, r1
		pxQueue->u.pcReadFrom += pxQueue->uxItemSize;
 8005a3a:	68d9      	ldr	r1, [r3, #12]
 8005a3c:	4411      	add	r1, r2
 8005a3e:	60d9      	str	r1, [r3, #12]
		if( pxQueue->u.pcReadFrom >= pxQueue->pcTail ) /*lint !e946 MISRA exception justified as use of the relational operator is the cleanest solutions. */
 8005a40:	f8d3 c004 	ldr.w	ip, [r3, #4]
 8005a44:	4561      	cmp	r1, ip
			pxQueue->u.pcReadFrom = pxQueue->pcHead;
 8005a46:	bf24      	itt	cs
 8005a48:	6819      	ldrcs	r1, [r3, #0]
 8005a4a:	60d9      	strcs	r1, [r3, #12]
		( void ) memcpy( ( void * ) pvBuffer, ( void * ) pxQueue->u.pcReadFrom, ( size_t ) pxQueue->uxItemSize ); /*lint !e961 !e418 MISRA exception as the casts are only redundant for some ports.  Also previous logic ensures a null pointer can only be passed to memcpy() when the count is 0. */
 8005a4c:	68d9      	ldr	r1, [r3, #12]
 8005a4e:	f002 f9fa 	bl	8007e46 <memcpy>
}
 8005a52:	bd08      	pop	{r3, pc}

08005a54 <prvUnlockQueue>:
{
 8005a54:	b570      	push	{r4, r5, r6, lr}
 8005a56:	4605      	mov	r5, r0
	taskENTER_CRITICAL();
 8005a58:	f001 fdbc 	bl	80075d4 <vPortEnterCritical>
		int8_t cTxLock = pxQueue->cTxLock;
 8005a5c:	f895 4045 	ldrb.w	r4, [r5, #69]	; 0x45
 8005a60:	b264      	sxtb	r4, r4
		while( cTxLock > queueLOCKED_UNMODIFIED )
 8005a62:	2c00      	cmp	r4, #0
 8005a64:	dd0f      	ble.n	8005a86 <prvUnlockQueue+0x32>
					if( xTaskRemoveFromEventList( &( pxQueue->xTasksWaitingToReceive ) ) != pdFALSE )
 8005a66:	f105 0624 	add.w	r6, r5, #36	; 0x24
 8005a6a:	e002      	b.n	8005a72 <prvUnlockQueue+0x1e>
			--cTxLock;
 8005a6c:	3c01      	subs	r4, #1
 8005a6e:	b264      	sxtb	r4, r4
		while( cTxLock > queueLOCKED_UNMODIFIED )
 8005a70:	b14c      	cbz	r4, 8005a86 <prvUnlockQueue+0x32>
				if( listLIST_IS_EMPTY( &( pxQueue->xTasksWaitingToReceive ) ) == pdFALSE )
 8005a72:	6a6b      	ldr	r3, [r5, #36]	; 0x24
 8005a74:	b13b      	cbz	r3, 8005a86 <prvUnlockQueue+0x32>
					if( xTaskRemoveFromEventList( &( pxQueue->xTasksWaitingToReceive ) ) != pdFALSE )
 8005a76:	4630      	mov	r0, r6
 8005a78:	f001 f94e 	bl	8006d18 <xTaskRemoveFromEventList>
 8005a7c:	2800      	cmp	r0, #0
 8005a7e:	d0f5      	beq.n	8005a6c <prvUnlockQueue+0x18>
						vTaskMissedYield();
 8005a80:	f001 fa20 	bl	8006ec4 <vTaskMissedYield>
 8005a84:	e7f2      	b.n	8005a6c <prvUnlockQueue+0x18>
		pxQueue->cTxLock = queueUNLOCKED;
 8005a86:	23ff      	movs	r3, #255	; 0xff
 8005a88:	f885 3045 	strb.w	r3, [r5, #69]	; 0x45
	taskEXIT_CRITICAL();
 8005a8c:	f001 fdc4 	bl	8007618 <vPortExitCritical>
	taskENTER_CRITICAL();
 8005a90:	f001 fda0 	bl	80075d4 <vPortEnterCritical>
		int8_t cRxLock = pxQueue->cRxLock;
 8005a94:	f895 4044 	ldrb.w	r4, [r5, #68]	; 0x44
 8005a98:	b264      	sxtb	r4, r4
		while( cRxLock > queueLOCKED_UNMODIFIED )
 8005a9a:	2c00      	cmp	r4, #0
 8005a9c:	dd0f      	ble.n	8005abe <prvUnlockQueue+0x6a>
				if( xTaskRemoveFromEventList( &( pxQueue->xTasksWaitingToSend ) ) != pdFALSE )
 8005a9e:	f105 0610 	add.w	r6, r5, #16
 8005aa2:	e002      	b.n	8005aaa <prvUnlockQueue+0x56>
				--cRxLock;
 8005aa4:	3c01      	subs	r4, #1
 8005aa6:	b264      	sxtb	r4, r4
		while( cRxLock > queueLOCKED_UNMODIFIED )
 8005aa8:	b14c      	cbz	r4, 8005abe <prvUnlockQueue+0x6a>
			if( listLIST_IS_EMPTY( &( pxQueue->xTasksWaitingToSend ) ) == pdFALSE )
 8005aaa:	692b      	ldr	r3, [r5, #16]
 8005aac:	b13b      	cbz	r3, 8005abe <prvUnlockQueue+0x6a>
				if( xTaskRemoveFromEventList( &( pxQueue->xTasksWaitingToSend ) ) != pdFALSE )
 8005aae:	4630      	mov	r0, r6
 8005ab0:	f001 f932 	bl	8006d18 <xTaskRemoveFromEventList>
 8005ab4:	2800      	cmp	r0, #0
 8005ab6:	d0f5      	beq.n	8005aa4 <prvUnlockQueue+0x50>
					vTaskMissedYield();
 8005ab8:	f001 fa04 	bl	8006ec4 <vTaskMissedYield>
 8005abc:	e7f2      	b.n	8005aa4 <prvUnlockQueue+0x50>
		pxQueue->cRxLock = queueUNLOCKED;
 8005abe:	23ff      	movs	r3, #255	; 0xff
 8005ac0:	f885 3044 	strb.w	r3, [r5, #68]	; 0x44
	taskEXIT_CRITICAL();
 8005ac4:	f001 fda8 	bl	8007618 <vPortExitCritical>
}
 8005ac8:	bd70      	pop	{r4, r5, r6, pc}

08005aca <xQueueGenericReset>:
{
 8005aca:	b538      	push	{r3, r4, r5, lr}
	configASSERT( pxQueue );
 8005acc:	b1e0      	cbz	r0, 8005b08 <xQueueGenericReset+0x3e>
 8005ace:	460d      	mov	r5, r1
 8005ad0:	4604      	mov	r4, r0
	taskENTER_CRITICAL();
 8005ad2:	f001 fd7f 	bl	80075d4 <vPortEnterCritical>
		pxQueue->pcTail = pxQueue->pcHead + ( pxQueue->uxLength * pxQueue->uxItemSize );
 8005ad6:	6822      	ldr	r2, [r4, #0]
 8005ad8:	6c21      	ldr	r1, [r4, #64]	; 0x40
 8005ada:	6be3      	ldr	r3, [r4, #60]	; 0x3c
 8005adc:	fb01 f303 	mul.w	r3, r1, r3
 8005ae0:	18d0      	adds	r0, r2, r3
 8005ae2:	6060      	str	r0, [r4, #4]
		pxQueue->uxMessagesWaiting = ( UBaseType_t ) 0U;
 8005ae4:	2000      	movs	r0, #0
 8005ae6:	63a0      	str	r0, [r4, #56]	; 0x38
		pxQueue->pcWriteTo = pxQueue->pcHead;
 8005ae8:	60a2      	str	r2, [r4, #8]
		pxQueue->u.pcReadFrom = pxQueue->pcHead + ( ( pxQueue->uxLength - ( UBaseType_t ) 1U ) * pxQueue->uxItemSize );
 8005aea:	1a5b      	subs	r3, r3, r1
 8005aec:	441a      	add	r2, r3
 8005aee:	60e2      	str	r2, [r4, #12]
		pxQueue->cRxLock = queueUNLOCKED;
 8005af0:	23ff      	movs	r3, #255	; 0xff
 8005af2:	f884 3044 	strb.w	r3, [r4, #68]	; 0x44
		pxQueue->cTxLock = queueUNLOCKED;
 8005af6:	f884 3045 	strb.w	r3, [r4, #69]	; 0x45
		if( xNewQueue == pdFALSE )
 8005afa:	b9fd      	cbnz	r5, 8005b3c <xQueueGenericReset+0x72>
			if( listLIST_IS_EMPTY( &( pxQueue->xTasksWaitingToSend ) ) == pdFALSE )
 8005afc:	6923      	ldr	r3, [r4, #16]
 8005afe:	b963      	cbnz	r3, 8005b1a <xQueueGenericReset+0x50>
	taskEXIT_CRITICAL();
 8005b00:	f001 fd8a 	bl	8007618 <vPortExitCritical>
}
 8005b04:	2001      	movs	r0, #1
 8005b06:	bd38      	pop	{r3, r4, r5, pc}
 8005b08:	f04f 0350 	mov.w	r3, #80	; 0x50
 8005b0c:	f383 8811 	msr	BASEPRI, r3
 8005b10:	f3bf 8f6f 	isb	sy
 8005b14:	f3bf 8f4f 	dsb	sy
	configASSERT( pxQueue );
 8005b18:	e7fe      	b.n	8005b18 <xQueueGenericReset+0x4e>
				if( xTaskRemoveFromEventList( &( pxQueue->xTasksWaitingToSend ) ) != pdFALSE )
 8005b1a:	f104 0010 	add.w	r0, r4, #16
 8005b1e:	f001 f8fb 	bl	8006d18 <xTaskRemoveFromEventList>
 8005b22:	2800      	cmp	r0, #0
 8005b24:	d0ec      	beq.n	8005b00 <xQueueGenericReset+0x36>
					queueYIELD_IF_USING_PREEMPTION();
 8005b26:	f04f 23e0 	mov.w	r3, #3758153728	; 0xe000e000
 8005b2a:	f04f 5280 	mov.w	r2, #268435456	; 0x10000000
 8005b2e:	f8c3 2d04 	str.w	r2, [r3, #3332]	; 0xd04
 8005b32:	f3bf 8f4f 	dsb	sy
 8005b36:	f3bf 8f6f 	isb	sy
 8005b3a:	e7e1      	b.n	8005b00 <xQueueGenericReset+0x36>
			vListInitialise( &( pxQueue->xTasksWaitingToSend ) );
 8005b3c:	f104 0010 	add.w	r0, r4, #16
 8005b40:	f7ff feec 	bl	800591c <vListInitialise>
			vListInitialise( &( pxQueue->xTasksWaitingToReceive ) );
 8005b44:	f104 0024 	add.w	r0, r4, #36	; 0x24
 8005b48:	f7ff fee8 	bl	800591c <vListInitialise>
 8005b4c:	e7d8      	b.n	8005b00 <xQueueGenericReset+0x36>

08005b4e <xQueueGenericCreateStatic>:
		configASSERT( uxQueueLength > ( UBaseType_t ) 0 );
 8005b4e:	b940      	cbnz	r0, 8005b62 <xQueueGenericCreateStatic+0x14>
 8005b50:	f04f 0350 	mov.w	r3, #80	; 0x50
 8005b54:	f383 8811 	msr	BASEPRI, r3
 8005b58:	f3bf 8f6f 	isb	sy
 8005b5c:	f3bf 8f4f 	dsb	sy
 8005b60:	e7fe      	b.n	8005b60 <xQueueGenericCreateStatic+0x12>
	{
 8005b62:	b510      	push	{r4, lr}
 8005b64:	b082      	sub	sp, #8
 8005b66:	461c      	mov	r4, r3
 8005b68:	4603      	mov	r3, r0
		configASSERT( pxStaticQueue != NULL );
 8005b6a:	b154      	cbz	r4, 8005b82 <xQueueGenericCreateStatic+0x34>
		configASSERT( !( ( pucQueueStorage != NULL ) && ( uxItemSize == 0 ) ) );
 8005b6c:	b192      	cbz	r2, 8005b94 <xQueueGenericCreateStatic+0x46>
 8005b6e:	b9d9      	cbnz	r1, 8005ba8 <xQueueGenericCreateStatic+0x5a>
 8005b70:	f04f 0350 	mov.w	r3, #80	; 0x50
 8005b74:	f383 8811 	msr	BASEPRI, r3
 8005b78:	f3bf 8f6f 	isb	sy
 8005b7c:	f3bf 8f4f 	dsb	sy
 8005b80:	e7fe      	b.n	8005b80 <xQueueGenericCreateStatic+0x32>
 8005b82:	f04f 0350 	mov.w	r3, #80	; 0x50
 8005b86:	f383 8811 	msr	BASEPRI, r3
 8005b8a:	f3bf 8f6f 	isb	sy
 8005b8e:	f3bf 8f4f 	dsb	sy
		configASSERT( pxStaticQueue != NULL );
 8005b92:	e7fe      	b.n	8005b92 <xQueueGenericCreateStatic+0x44>
		configASSERT( !( ( pucQueueStorage == NULL ) && ( uxItemSize != 0 ) ) );
 8005b94:	b1b1      	cbz	r1, 8005bc4 <xQueueGenericCreateStatic+0x76>
 8005b96:	f04f 0350 	mov.w	r3, #80	; 0x50
 8005b9a:	f383 8811 	msr	BASEPRI, r3
 8005b9e:	f3bf 8f6f 	isb	sy
 8005ba2:	f3bf 8f4f 	dsb	sy
 8005ba6:	e7fe      	b.n	8005ba6 <xQueueGenericCreateStatic+0x58>
			volatile size_t xSize = sizeof( StaticQueue_t );
 8005ba8:	2050      	movs	r0, #80	; 0x50
 8005baa:	9001      	str	r0, [sp, #4]
			configASSERT( xSize == sizeof( Queue_t ) );
 8005bac:	9801      	ldr	r0, [sp, #4]
 8005bae:	2850      	cmp	r0, #80	; 0x50
 8005bb0:	d00e      	beq.n	8005bd0 <xQueueGenericCreateStatic+0x82>
 8005bb2:	f04f 0350 	mov.w	r3, #80	; 0x50
 8005bb6:	f383 8811 	msr	BASEPRI, r3
 8005bba:	f3bf 8f6f 	isb	sy
 8005bbe:	f3bf 8f4f 	dsb	sy
 8005bc2:	e7fe      	b.n	8005bc2 <xQueueGenericCreateStatic+0x74>
			volatile size_t xSize = sizeof( StaticQueue_t );
 8005bc4:	2250      	movs	r2, #80	; 0x50
 8005bc6:	9201      	str	r2, [sp, #4]
			configASSERT( xSize == sizeof( Queue_t ) );
 8005bc8:	9a01      	ldr	r2, [sp, #4]
 8005bca:	2a50      	cmp	r2, #80	; 0x50
 8005bcc:	d1f1      	bne.n	8005bb2 <xQueueGenericCreateStatic+0x64>
		pxNewQueue->pcHead = ( int8_t * ) pxNewQueue;
 8005bce:	4622      	mov	r2, r4
				pxNewQueue->ucStaticallyAllocated = pdTRUE;
 8005bd0:	2001      	movs	r0, #1
 8005bd2:	f884 0046 	strb.w	r0, [r4, #70]	; 0x46
 8005bd6:	6022      	str	r2, [r4, #0]
	pxNewQueue->uxLength = uxQueueLength;
 8005bd8:	63e3      	str	r3, [r4, #60]	; 0x3c
	pxNewQueue->uxItemSize = uxItemSize;
 8005bda:	6421      	str	r1, [r4, #64]	; 0x40
	( void ) xQueueGenericReset( pxNewQueue, pdTRUE );
 8005bdc:	4601      	mov	r1, r0
 8005bde:	4620      	mov	r0, r4
 8005be0:	f7ff ff73 	bl	8005aca <xQueueGenericReset>
		pxNewQueue->ucQueueType = ucQueueType;
 8005be4:	f89d 3010 	ldrb.w	r3, [sp, #16]
 8005be8:	f884 304c 	strb.w	r3, [r4, #76]	; 0x4c
	}
 8005bec:	4620      	mov	r0, r4
 8005bee:	b002      	add	sp, #8
 8005bf0:	bd10      	pop	{r4, pc}

08005bf2 <xQueueGenericCreate>:
	{
 8005bf2:	b5f8      	push	{r3, r4, r5, r6, r7, lr}
		configASSERT( uxQueueLength > ( UBaseType_t ) 0 );
 8005bf4:	b940      	cbnz	r0, 8005c08 <xQueueGenericCreate+0x16>
 8005bf6:	f04f 0350 	mov.w	r3, #80	; 0x50
 8005bfa:	f383 8811 	msr	BASEPRI, r3
 8005bfe:	f3bf 8f6f 	isb	sy
 8005c02:	f3bf 8f4f 	dsb	sy
 8005c06:	e7fe      	b.n	8005c06 <xQueueGenericCreate+0x14>
 8005c08:	460c      	mov	r4, r1
 8005c0a:	4616      	mov	r6, r2
 8005c0c:	4607      	mov	r7, r0
			xQueueSizeInBytes = ( size_t ) ( uxQueueLength * uxItemSize ); /*lint !e961 MISRA exception as the casts are only redundant for some ports. */
 8005c0e:	fb01 f000 	mul.w	r0, r1, r0
		pxNewQueue = ( Queue_t * ) pvPortMalloc( sizeof( Queue_t ) + xQueueSizeInBytes );
 8005c12:	3050      	adds	r0, #80	; 0x50
 8005c14:	f001 fe28 	bl	8007868 <pvPortMalloc>
		if( pxNewQueue != NULL )
 8005c18:	4605      	mov	r5, r0
 8005c1a:	b170      	cbz	r0, 8005c3a <xQueueGenericCreate+0x48>
				pxNewQueue->ucStaticallyAllocated = pdFALSE;
 8005c1c:	2300      	movs	r3, #0
 8005c1e:	f880 3046 	strb.w	r3, [r0, #70]	; 0x46
	if( uxItemSize == ( UBaseType_t ) 0 )
 8005c22:	b164      	cbz	r4, 8005c3e <xQueueGenericCreate+0x4c>
			pucQueueStorage = ( ( uint8_t * ) pxNewQueue ) + sizeof( Queue_t );
 8005c24:	f100 0350 	add.w	r3, r0, #80	; 0x50
		pxNewQueue->pcHead = ( int8_t * ) pucQueueStorage;
 8005c28:	602b      	str	r3, [r5, #0]
	pxNewQueue->uxLength = uxQueueLength;
 8005c2a:	63ef      	str	r7, [r5, #60]	; 0x3c
	pxNewQueue->uxItemSize = uxItemSize;
 8005c2c:	642c      	str	r4, [r5, #64]	; 0x40
	( void ) xQueueGenericReset( pxNewQueue, pdTRUE );
 8005c2e:	2101      	movs	r1, #1
 8005c30:	4628      	mov	r0, r5
 8005c32:	f7ff ff4a 	bl	8005aca <xQueueGenericReset>
		pxNewQueue->ucQueueType = ucQueueType;
 8005c36:	f885 604c 	strb.w	r6, [r5, #76]	; 0x4c
	}
 8005c3a:	4628      	mov	r0, r5
 8005c3c:	bdf8      	pop	{r3, r4, r5, r6, r7, pc}
		pxNewQueue->pcHead = ( int8_t * ) pxNewQueue;
 8005c3e:	4603      	mov	r3, r0
 8005c40:	e7f2      	b.n	8005c28 <xQueueGenericCreate+0x36>

08005c42 <xQueueCreateCountingSemaphoreStatic>:
		configASSERT( uxMaxCount != 0 );
 8005c42:	b940      	cbnz	r0, 8005c56 <xQueueCreateCountingSemaphoreStatic+0x14>
 8005c44:	f04f 0350 	mov.w	r3, #80	; 0x50
 8005c48:	f383 8811 	msr	BASEPRI, r3
 8005c4c:	f3bf 8f6f 	isb	sy
 8005c50:	f3bf 8f4f 	dsb	sy
 8005c54:	e7fe      	b.n	8005c54 <xQueueCreateCountingSemaphoreStatic+0x12>
	{
 8005c56:	b510      	push	{r4, lr}
 8005c58:	b082      	sub	sp, #8
 8005c5a:	460c      	mov	r4, r1
		configASSERT( uxInitialCount <= uxMaxCount );
 8005c5c:	4288      	cmp	r0, r1
 8005c5e:	d208      	bcs.n	8005c72 <xQueueCreateCountingSemaphoreStatic+0x30>
 8005c60:	f04f 0350 	mov.w	r3, #80	; 0x50
 8005c64:	f383 8811 	msr	BASEPRI, r3
 8005c68:	f3bf 8f6f 	isb	sy
 8005c6c:	f3bf 8f4f 	dsb	sy
 8005c70:	e7fe      	b.n	8005c70 <xQueueCreateCountingSemaphoreStatic+0x2e>
		xHandle = xQueueGenericCreateStatic( uxMaxCount, queueSEMAPHORE_QUEUE_ITEM_LENGTH, NULL, pxStaticQueue, queueQUEUE_TYPE_COUNTING_SEMAPHORE );
 8005c72:	2302      	movs	r3, #2
 8005c74:	9300      	str	r3, [sp, #0]
 8005c76:	4613      	mov	r3, r2
 8005c78:	2200      	movs	r2, #0
 8005c7a:	4611      	mov	r1, r2
 8005c7c:	f7ff ff67 	bl	8005b4e <xQueueGenericCreateStatic>
		if( xHandle != NULL )
 8005c80:	b100      	cbz	r0, 8005c84 <xQueueCreateCountingSemaphoreStatic+0x42>
			( ( Queue_t * ) xHandle )->uxMessagesWaiting = uxInitialCount;
 8005c82:	6384      	str	r4, [r0, #56]	; 0x38
	}
 8005c84:	b002      	add	sp, #8
 8005c86:	bd10      	pop	{r4, pc}

08005c88 <xQueueCreateCountingSemaphore>:
		configASSERT( uxMaxCount != 0 );
 8005c88:	b940      	cbnz	r0, 8005c9c <xQueueCreateCountingSemaphore+0x14>
 8005c8a:	f04f 0350 	mov.w	r3, #80	; 0x50
 8005c8e:	f383 8811 	msr	BASEPRI, r3
 8005c92:	f3bf 8f6f 	isb	sy
 8005c96:	f3bf 8f4f 	dsb	sy
 8005c9a:	e7fe      	b.n	8005c9a <xQueueCreateCountingSemaphore+0x12>
	{
 8005c9c:	b510      	push	{r4, lr}
 8005c9e:	460c      	mov	r4, r1
		configASSERT( uxInitialCount <= uxMaxCount );
 8005ca0:	4288      	cmp	r0, r1
 8005ca2:	d208      	bcs.n	8005cb6 <xQueueCreateCountingSemaphore+0x2e>
 8005ca4:	f04f 0350 	mov.w	r3, #80	; 0x50
 8005ca8:	f383 8811 	msr	BASEPRI, r3
 8005cac:	f3bf 8f6f 	isb	sy
 8005cb0:	f3bf 8f4f 	dsb	sy
 8005cb4:	e7fe      	b.n	8005cb4 <xQueueCreateCountingSemaphore+0x2c>
		xHandle = xQueueGenericCreate( uxMaxCount, queueSEMAPHORE_QUEUE_ITEM_LENGTH, queueQUEUE_TYPE_COUNTING_SEMAPHORE );
 8005cb6:	2202      	movs	r2, #2
 8005cb8:	2100      	movs	r1, #0
 8005cba:	f7ff ff9a 	bl	8005bf2 <xQueueGenericCreate>
		if( xHandle != NULL )
 8005cbe:	b100      	cbz	r0, 8005cc2 <xQueueCreateCountingSemaphore+0x3a>
			( ( Queue_t * ) xHandle )->uxMessagesWaiting = uxInitialCount;
 8005cc0:	6384      	str	r4, [r0, #56]	; 0x38
	}
 8005cc2:	bd10      	pop	{r4, pc}

08005cc4 <xQueueGenericSend>:
{
 8005cc4:	e92d 43f0 	stmdb	sp!, {r4, r5, r6, r7, r8, r9, lr}
 8005cc8:	b085      	sub	sp, #20
 8005cca:	9201      	str	r2, [sp, #4]
	configASSERT( pxQueue );
 8005ccc:	b188      	cbz	r0, 8005cf2 <xQueueGenericSend+0x2e>
 8005cce:	460e      	mov	r6, r1
 8005cd0:	461d      	mov	r5, r3
 8005cd2:	4604      	mov	r4, r0
	configASSERT( !( ( pvItemToQueue == NULL ) && ( pxQueue->uxItemSize != ( UBaseType_t ) 0U ) ) );
 8005cd4:	b1b1      	cbz	r1, 8005d04 <xQueueGenericSend+0x40>
	configASSERT( !( ( xCopyPosition == queueOVERWRITE ) && ( pxQueue->uxLength != 1 ) ) );
 8005cd6:	2d02      	cmp	r5, #2
 8005cd8:	d120      	bne.n	8005d1c <xQueueGenericSend+0x58>
 8005cda:	6be3      	ldr	r3, [r4, #60]	; 0x3c
 8005cdc:	2b01      	cmp	r3, #1
 8005cde:	d01d      	beq.n	8005d1c <xQueueGenericSend+0x58>
 8005ce0:	f04f 0350 	mov.w	r3, #80	; 0x50
 8005ce4:	f383 8811 	msr	BASEPRI, r3
 8005ce8:	f3bf 8f6f 	isb	sy
 8005cec:	f3bf 8f4f 	dsb	sy
 8005cf0:	e7fe      	b.n	8005cf0 <xQueueGenericSend+0x2c>
 8005cf2:	f04f 0350 	mov.w	r3, #80	; 0x50
 8005cf6:	f383 8811 	msr	BASEPRI, r3
 8005cfa:	f3bf 8f6f 	isb	sy
 8005cfe:	f3bf 8f4f 	dsb	sy
	configASSERT( pxQueue );
 8005d02:	e7fe      	b.n	8005d02 <xQueueGenericSend+0x3e>
	configASSERT( !( ( pvItemToQueue == NULL ) && ( pxQueue->uxItemSize != ( UBaseType_t ) 0U ) ) );
 8005d04:	6c03      	ldr	r3, [r0, #64]	; 0x40
 8005d06:	2b00      	cmp	r3, #0
 8005d08:	d0e5      	beq.n	8005cd6 <xQueueGenericSend+0x12>
 8005d0a:	f04f 0350 	mov.w	r3, #80	; 0x50
 8005d0e:	f383 8811 	msr	BASEPRI, r3
 8005d12:	f3bf 8f6f 	isb	sy
 8005d16:	f3bf 8f4f 	dsb	sy
 8005d1a:	e7fe      	b.n	8005d1a <xQueueGenericSend+0x56>
		configASSERT( !( ( xTaskGetSchedulerState() == taskSCHEDULER_SUSPENDED ) && ( xTicksToWait != 0 ) ) );
 8005d1c:	f001 f8de 	bl	8006edc <xTaskGetSchedulerState>
 8005d20:	b950      	cbnz	r0, 8005d38 <xQueueGenericSend+0x74>
 8005d22:	9b01      	ldr	r3, [sp, #4]
 8005d24:	b163      	cbz	r3, 8005d40 <xQueueGenericSend+0x7c>
 8005d26:	f04f 0350 	mov.w	r3, #80	; 0x50
 8005d2a:	f383 8811 	msr	BASEPRI, r3
 8005d2e:	f3bf 8f6f 	isb	sy
 8005d32:	f3bf 8f4f 	dsb	sy
 8005d36:	e7fe      	b.n	8005d36 <xQueueGenericSend+0x72>
 8005d38:	f04f 0800 	mov.w	r8, #0
		prvLockQueue( pxQueue );
 8005d3c:	2700      	movs	r7, #0
 8005d3e:	e03a      	b.n	8005db6 <xQueueGenericSend+0xf2>
 8005d40:	f04f 0800 	mov.w	r8, #0
 8005d44:	e7fa      	b.n	8005d3c <xQueueGenericSend+0x78>
				xYieldRequired = prvCopyDataToQueue( pxQueue, pvItemToQueue, xCopyPosition );
 8005d46:	462a      	mov	r2, r5
 8005d48:	4631      	mov	r1, r6
 8005d4a:	4620      	mov	r0, r4
 8005d4c:	f7ff fe35 	bl	80059ba <prvCopyDataToQueue>
					if( listLIST_IS_EMPTY( &( pxQueue->xTasksWaitingToReceive ) ) == pdFALSE )
 8005d50:	6a63      	ldr	r3, [r4, #36]	; 0x24
 8005d52:	b983      	cbnz	r3, 8005d76 <xQueueGenericSend+0xb2>
					else if( xYieldRequired != pdFALSE )
 8005d54:	b148      	cbz	r0, 8005d6a <xQueueGenericSend+0xa6>
						queueYIELD_IF_USING_PREEMPTION();
 8005d56:	f04f 23e0 	mov.w	r3, #3758153728	; 0xe000e000
 8005d5a:	f04f 5280 	mov.w	r2, #268435456	; 0x10000000
 8005d5e:	f8c3 2d04 	str.w	r2, [r3, #3332]	; 0xd04
 8005d62:	f3bf 8f4f 	dsb	sy
 8005d66:	f3bf 8f6f 	isb	sy
				taskEXIT_CRITICAL();
 8005d6a:	f001 fc55 	bl	8007618 <vPortExitCritical>
				return pdPASS;
 8005d6e:	2001      	movs	r0, #1
}
 8005d70:	b005      	add	sp, #20
 8005d72:	e8bd 83f0 	ldmia.w	sp!, {r4, r5, r6, r7, r8, r9, pc}
						if( xTaskRemoveFromEventList( &( pxQueue->xTasksWaitingToReceive ) ) != pdFALSE )
 8005d76:	f104 0024 	add.w	r0, r4, #36	; 0x24
 8005d7a:	f000 ffcd 	bl	8006d18 <xTaskRemoveFromEventList>
 8005d7e:	2800      	cmp	r0, #0
 8005d80:	d0f3      	beq.n	8005d6a <xQueueGenericSend+0xa6>
							queueYIELD_IF_USING_PREEMPTION();
 8005d82:	f04f 23e0 	mov.w	r3, #3758153728	; 0xe000e000
 8005d86:	f04f 5280 	mov.w	r2, #268435456	; 0x10000000
 8005d8a:	f8c3 2d04 	str.w	r2, [r3, #3332]	; 0xd04
 8005d8e:	f3bf 8f4f 	dsb	sy
 8005d92:	f3bf 8f6f 	isb	sy
 8005d96:	e7e8      	b.n	8005d6a <xQueueGenericSend+0xa6>
					taskEXIT_CRITICAL();
 8005d98:	f001 fc3e 	bl	8007618 <vPortExitCritical>
					return errQUEUE_FULL;
 8005d9c:	2000      	movs	r0, #0
 8005d9e:	e7e7      	b.n	8005d70 <xQueueGenericSend+0xac>
					vTaskInternalSetTimeOutState( &xTimeOut );
 8005da0:	a802      	add	r0, sp, #8
 8005da2:	f001 f841 	bl	8006e28 <vTaskInternalSetTimeOutState>
					xEntryTimeSet = pdTRUE;
 8005da6:	e014      	b.n	8005dd2 <xQueueGenericSend+0x10e>
				prvUnlockQueue( pxQueue );
 8005da8:	4620      	mov	r0, r4
 8005daa:	f7ff fe53 	bl	8005a54 <prvUnlockQueue>
				( void ) xTaskResumeAll();
 8005dae:	f000 fe2f 	bl	8006a10 <xTaskResumeAll>
 8005db2:	f04f 0801 	mov.w	r8, #1
		taskENTER_CRITICAL();
 8005db6:	f001 fc0d 	bl	80075d4 <vPortEnterCritical>
			if( ( pxQueue->uxMessagesWaiting < pxQueue->uxLength ) || ( xCopyPosition == queueOVERWRITE ) )
 8005dba:	6ba2      	ldr	r2, [r4, #56]	; 0x38
 8005dbc:	6be3      	ldr	r3, [r4, #60]	; 0x3c
 8005dbe:	429a      	cmp	r2, r3
 8005dc0:	d3c1      	bcc.n	8005d46 <xQueueGenericSend+0x82>
 8005dc2:	2d02      	cmp	r5, #2
 8005dc4:	d0bf      	beq.n	8005d46 <xQueueGenericSend+0x82>
				if( xTicksToWait == ( TickType_t ) 0 )
 8005dc6:	9b01      	ldr	r3, [sp, #4]
 8005dc8:	2b00      	cmp	r3, #0
 8005dca:	d0e5      	beq.n	8005d98 <xQueueGenericSend+0xd4>
				else if( xEntryTimeSet == pdFALSE )
 8005dcc:	f1b8 0f00 	cmp.w	r8, #0
 8005dd0:	d0e6      	beq.n	8005da0 <xQueueGenericSend+0xdc>
		taskEXIT_CRITICAL();
 8005dd2:	f001 fc21 	bl	8007618 <vPortExitCritical>
		vTaskSuspendAll();
 8005dd6:	f000 fd73 	bl	80068c0 <vTaskSuspendAll>
		prvLockQueue( pxQueue );
 8005dda:	f001 fbfb 	bl	80075d4 <vPortEnterCritical>
 8005dde:	f894 2044 	ldrb.w	r2, [r4, #68]	; 0x44
 8005de2:	b252      	sxtb	r2, r2
 8005de4:	f1b2 3fff 	cmp.w	r2, #4294967295
 8005de8:	bf08      	it	eq
 8005dea:	f884 7044 	strbeq.w	r7, [r4, #68]	; 0x44
 8005dee:	f894 2045 	ldrb.w	r2, [r4, #69]	; 0x45
 8005df2:	b252      	sxtb	r2, r2
 8005df4:	f1b2 3fff 	cmp.w	r2, #4294967295
 8005df8:	bf08      	it	eq
 8005dfa:	f884 7045 	strbeq.w	r7, [r4, #69]	; 0x45
 8005dfe:	f001 fc0b 	bl	8007618 <vPortExitCritical>
		if( xTaskCheckForTimeOut( &xTimeOut, &xTicksToWait ) == pdFALSE )
 8005e02:	a901      	add	r1, sp, #4
 8005e04:	a802      	add	r0, sp, #8
 8005e06:	f001 f81b 	bl	8006e40 <xTaskCheckForTimeOut>
 8005e0a:	bb00      	cbnz	r0, 8005e4e <xQueueGenericSend+0x18a>

static BaseType_t prvIsQueueFull( const Queue_t *pxQueue )
{
BaseType_t xReturn;

	taskENTER_CRITICAL();
 8005e0c:	f001 fbe2 	bl	80075d4 <vPortEnterCritical>
	{
		if( pxQueue->uxMessagesWaiting == pxQueue->uxLength )
 8005e10:	f8d4 9038 	ldr.w	r9, [r4, #56]	; 0x38
 8005e14:	f8d4 803c 	ldr.w	r8, [r4, #60]	; 0x3c
		else
		{
			xReturn = pdFALSE;
		}
	}
	taskEXIT_CRITICAL();
 8005e18:	f001 fbfe 	bl	8007618 <vPortExitCritical>
			if( prvIsQueueFull( pxQueue ) != pdFALSE )
 8005e1c:	45c1      	cmp	r9, r8
 8005e1e:	d1c3      	bne.n	8005da8 <xQueueGenericSend+0xe4>
				vTaskPlaceOnEventList( &( pxQueue->xTasksWaitingToSend ), xTicksToWait );
 8005e20:	9901      	ldr	r1, [sp, #4]
 8005e22:	f104 0010 	add.w	r0, r4, #16
 8005e26:	f000 ff15 	bl	8006c54 <vTaskPlaceOnEventList>
				prvUnlockQueue( pxQueue );
 8005e2a:	4620      	mov	r0, r4
 8005e2c:	f7ff fe12 	bl	8005a54 <prvUnlockQueue>
				if( xTaskResumeAll() == pdFALSE )
 8005e30:	f000 fdee 	bl	8006a10 <xTaskResumeAll>
 8005e34:	2800      	cmp	r0, #0
 8005e36:	d1bc      	bne.n	8005db2 <xQueueGenericSend+0xee>
					portYIELD_WITHIN_API();
 8005e38:	f04f 23e0 	mov.w	r3, #3758153728	; 0xe000e000
 8005e3c:	f04f 5280 	mov.w	r2, #268435456	; 0x10000000
 8005e40:	f8c3 2d04 	str.w	r2, [r3, #3332]	; 0xd04
 8005e44:	f3bf 8f4f 	dsb	sy
 8005e48:	f3bf 8f6f 	isb	sy
 8005e4c:	e7b1      	b.n	8005db2 <xQueueGenericSend+0xee>
			prvUnlockQueue( pxQueue );
 8005e4e:	4620      	mov	r0, r4
 8005e50:	f7ff fe00 	bl	8005a54 <prvUnlockQueue>
			( void ) xTaskResumeAll();
 8005e54:	f000 fddc 	bl	8006a10 <xTaskResumeAll>
			return errQUEUE_FULL;
 8005e58:	2000      	movs	r0, #0
 8005e5a:	e789      	b.n	8005d70 <xQueueGenericSend+0xac>

08005e5c <prvInitialiseMutex>:
		if( pxNewQueue != NULL )
 8005e5c:	b148      	cbz	r0, 8005e72 <prvInitialiseMutex+0x16>
	{
 8005e5e:	b508      	push	{r3, lr}
			pxNewQueue->pxMutexHolder = NULL;
 8005e60:	2100      	movs	r1, #0
 8005e62:	6041      	str	r1, [r0, #4]
			pxNewQueue->uxQueueType = queueQUEUE_IS_MUTEX;
 8005e64:	6001      	str	r1, [r0, #0]
			pxNewQueue->u.uxRecursiveCallCount = 0;
 8005e66:	60c1      	str	r1, [r0, #12]
			( void ) xQueueGenericSend( pxNewQueue, NULL, ( TickType_t ) 0U, queueSEND_TO_BACK );
 8005e68:	460b      	mov	r3, r1
 8005e6a:	460a      	mov	r2, r1
 8005e6c:	f7ff ff2a 	bl	8005cc4 <xQueueGenericSend>
	}
 8005e70:	bd08      	pop	{r3, pc}
 8005e72:	4770      	bx	lr

08005e74 <xQueueCreateMutex>:
	{
 8005e74:	b510      	push	{r4, lr}
 8005e76:	4602      	mov	r2, r0
		pxNewQueue = ( Queue_t * ) xQueueGenericCreate( uxMutexLength, uxMutexSize, ucQueueType );
 8005e78:	2100      	movs	r1, #0
 8005e7a:	2001      	movs	r0, #1
 8005e7c:	f7ff feb9 	bl	8005bf2 <xQueueGenericCreate>
 8005e80:	4604      	mov	r4, r0
		prvInitialiseMutex( pxNewQueue );
 8005e82:	f7ff ffeb 	bl	8005e5c <prvInitialiseMutex>
	}
 8005e86:	4620      	mov	r0, r4
 8005e88:	bd10      	pop	{r4, pc}

08005e8a <xQueueCreateMutexStatic>:
	{
 8005e8a:	b510      	push	{r4, lr}
 8005e8c:	b082      	sub	sp, #8
 8005e8e:	460b      	mov	r3, r1
		pxNewQueue = ( Queue_t * ) xQueueGenericCreateStatic( uxMutexLength, uxMutexSize, NULL, pxStaticQueue, ucQueueType );
 8005e90:	9000      	str	r0, [sp, #0]
 8005e92:	2200      	movs	r2, #0
 8005e94:	4611      	mov	r1, r2
 8005e96:	2001      	movs	r0, #1
 8005e98:	f7ff fe59 	bl	8005b4e <xQueueGenericCreateStatic>
 8005e9c:	4604      	mov	r4, r0
		prvInitialiseMutex( pxNewQueue );
 8005e9e:	f7ff ffdd 	bl	8005e5c <prvInitialiseMutex>
	}
 8005ea2:	4620      	mov	r0, r4
 8005ea4:	b002      	add	sp, #8
 8005ea6:	bd10      	pop	{r4, pc}

08005ea8 <xQueueGiveMutexRecursive>:
	{
 8005ea8:	b538      	push	{r3, r4, r5, lr}
		configASSERT( pxMutex );
 8005eaa:	b138      	cbz	r0, 8005ebc <xQueueGiveMutexRecursive+0x14>
 8005eac:	4604      	mov	r4, r0
		if( pxMutex->pxMutexHolder == ( void * ) xTaskGetCurrentTaskHandle() ) /*lint !e961 Not a redundant cast as TaskHandle_t is a typedef. */
 8005eae:	6845      	ldr	r5, [r0, #4]
 8005eb0:	f001 f80e 	bl	8006ed0 <xTaskGetCurrentTaskHandle>
 8005eb4:	4285      	cmp	r5, r0
 8005eb6:	d00a      	beq.n	8005ece <xQueueGiveMutexRecursive+0x26>
			xReturn = pdFAIL;
 8005eb8:	2000      	movs	r0, #0
	}
 8005eba:	bd38      	pop	{r3, r4, r5, pc}
 8005ebc:	f04f 0350 	mov.w	r3, #80	; 0x50
 8005ec0:	f383 8811 	msr	BASEPRI, r3
 8005ec4:	f3bf 8f6f 	isb	sy
 8005ec8:	f3bf 8f4f 	dsb	sy
		configASSERT( pxMutex );
 8005ecc:	e7fe      	b.n	8005ecc <xQueueGiveMutexRecursive+0x24>
			( pxMutex->u.uxRecursiveCallCount )--;
 8005ece:	68e3      	ldr	r3, [r4, #12]
 8005ed0:	3b01      	subs	r3, #1
 8005ed2:	60e3      	str	r3, [r4, #12]
			if( pxMutex->u.uxRecursiveCallCount == ( UBaseType_t ) 0 )
 8005ed4:	b10b      	cbz	r3, 8005eda <xQueueGiveMutexRecursive+0x32>
			xReturn = pdPASS;
 8005ed6:	2001      	movs	r0, #1
		return xReturn;
 8005ed8:	e7ef      	b.n	8005eba <xQueueGiveMutexRecursive+0x12>
				( void ) xQueueGenericSend( pxMutex, NULL, queueMUTEX_GIVE_BLOCK_TIME, queueSEND_TO_BACK );
 8005eda:	461a      	mov	r2, r3
 8005edc:	4619      	mov	r1, r3
 8005ede:	4620      	mov	r0, r4
 8005ee0:	f7ff fef0 	bl	8005cc4 <xQueueGenericSend>
			xReturn = pdPASS;
 8005ee4:	2001      	movs	r0, #1
 8005ee6:	e7e8      	b.n	8005eba <xQueueGiveMutexRecursive+0x12>

08005ee8 <xQueueGenericSendFromISR>:
{
 8005ee8:	e92d 43f8 	stmdb	sp!, {r3, r4, r5, r6, r7, r8, r9, lr}
	configASSERT( pxQueue );
 8005eec:	b190      	cbz	r0, 8005f14 <xQueueGenericSendFromISR+0x2c>
 8005eee:	460f      	mov	r7, r1
 8005ef0:	4616      	mov	r6, r2
 8005ef2:	461c      	mov	r4, r3
 8005ef4:	4605      	mov	r5, r0
	configASSERT( !( ( pvItemToQueue == NULL ) && ( pxQueue->uxItemSize != ( UBaseType_t ) 0U ) ) );
 8005ef6:	b1b1      	cbz	r1, 8005f26 <xQueueGenericSendFromISR+0x3e>
	configASSERT( !( ( xCopyPosition == queueOVERWRITE ) && ( pxQueue->uxLength != 1 ) ) );
 8005ef8:	2c02      	cmp	r4, #2
 8005efa:	d120      	bne.n	8005f3e <xQueueGenericSendFromISR+0x56>
 8005efc:	6beb      	ldr	r3, [r5, #60]	; 0x3c
 8005efe:	2b01      	cmp	r3, #1
 8005f00:	d01d      	beq.n	8005f3e <xQueueGenericSendFromISR+0x56>
 8005f02:	f04f 0350 	mov.w	r3, #80	; 0x50
 8005f06:	f383 8811 	msr	BASEPRI, r3
 8005f0a:	f3bf 8f6f 	isb	sy
 8005f0e:	f3bf 8f4f 	dsb	sy
 8005f12:	e7fe      	b.n	8005f12 <xQueueGenericSendFromISR+0x2a>
 8005f14:	f04f 0350 	mov.w	r3, #80	; 0x50
 8005f18:	f383 8811 	msr	BASEPRI, r3
 8005f1c:	f3bf 8f6f 	isb	sy
 8005f20:	f3bf 8f4f 	dsb	sy
	configASSERT( pxQueue );
 8005f24:	e7fe      	b.n	8005f24 <xQueueGenericSendFromISR+0x3c>
	configASSERT( !( ( pvItemToQueue == NULL ) && ( pxQueue->uxItemSize != ( UBaseType_t ) 0U ) ) );
 8005f26:	6c03      	ldr	r3, [r0, #64]	; 0x40
 8005f28:	2b00      	cmp	r3, #0
 8005f2a:	d0e5      	beq.n	8005ef8 <xQueueGenericSendFromISR+0x10>
 8005f2c:	f04f 0350 	mov.w	r3, #80	; 0x50
 8005f30:	f383 8811 	msr	BASEPRI, r3
 8005f34:	f3bf 8f6f 	isb	sy
 8005f38:	f3bf 8f4f 	dsb	sy
 8005f3c:	e7fe      	b.n	8005f3c <xQueueGenericSendFromISR+0x54>
	portASSERT_IF_INTERRUPT_PRIORITY_INVALID();
 8005f3e:	f001 fc37 	bl	80077b0 <vPortValidateInterruptPriority>

portFORCE_INLINE static uint32_t ulPortRaiseBASEPRI( void )
{
uint32_t ulOriginalBASEPRI, ulNewBASEPRI;

	__asm volatile
 8005f42:	f3ef 8811 	mrs	r8, BASEPRI
 8005f46:	f04f 0350 	mov.w	r3, #80	; 0x50
 8005f4a:	f383 8811 	msr	BASEPRI, r3
 8005f4e:	f3bf 8f6f 	isb	sy
 8005f52:	f3bf 8f4f 	dsb	sy
		if( ( pxQueue->uxMessagesWaiting < pxQueue->uxLength ) || ( xCopyPosition == queueOVERWRITE ) )
 8005f56:	6baa      	ldr	r2, [r5, #56]	; 0x38
 8005f58:	6beb      	ldr	r3, [r5, #60]	; 0x3c
 8005f5a:	429a      	cmp	r2, r3
 8005f5c:	d306      	bcc.n	8005f6c <xQueueGenericSendFromISR+0x84>
 8005f5e:	2c02      	cmp	r4, #2
 8005f60:	d004      	beq.n	8005f6c <xQueueGenericSendFromISR+0x84>
			xReturn = errQUEUE_FULL;
 8005f62:	2000      	movs	r0, #0
}
/*-----------------------------------------------------------*/

portFORCE_INLINE static void vPortSetBASEPRI( uint32_t ulNewMaskValue )
{
	__asm volatile
 8005f64:	f388 8811 	msr	BASEPRI, r8
}
 8005f68:	e8bd 83f8 	ldmia.w	sp!, {r3, r4, r5, r6, r7, r8, r9, pc}
			const int8_t cTxLock = pxQueue->cTxLock;
 8005f6c:	f895 9045 	ldrb.w	r9, [r5, #69]	; 0x45
 8005f70:	fa4f f989 	sxtb.w	r9, r9
			( void ) prvCopyDataToQueue( pxQueue, pvItemToQueue, xCopyPosition );
 8005f74:	4622      	mov	r2, r4
 8005f76:	4639      	mov	r1, r7
 8005f78:	4628      	mov	r0, r5
 8005f7a:	f7ff fd1e 	bl	80059ba <prvCopyDataToQueue>
			if( cTxLock == queueUNLOCKED )
 8005f7e:	f1b9 3fff 	cmp.w	r9, #4294967295
 8005f82:	d006      	beq.n	8005f92 <xQueueGenericSendFromISR+0xaa>
				pxQueue->cTxLock = ( int8_t ) ( cTxLock + 1 );
 8005f84:	f109 0301 	add.w	r3, r9, #1
 8005f88:	b25b      	sxtb	r3, r3
 8005f8a:	f885 3045 	strb.w	r3, [r5, #69]	; 0x45
			xReturn = pdPASS;
 8005f8e:	2001      	movs	r0, #1
 8005f90:	e7e8      	b.n	8005f64 <xQueueGenericSendFromISR+0x7c>
					if( listLIST_IS_EMPTY( &( pxQueue->xTasksWaitingToReceive ) ) == pdFALSE )
 8005f92:	6a6b      	ldr	r3, [r5, #36]	; 0x24
 8005f94:	b90b      	cbnz	r3, 8005f9a <xQueueGenericSendFromISR+0xb2>
			xReturn = pdPASS;
 8005f96:	2001      	movs	r0, #1
 8005f98:	e7e4      	b.n	8005f64 <xQueueGenericSendFromISR+0x7c>
						if( xTaskRemoveFromEventList( &( pxQueue->xTasksWaitingToReceive ) ) != pdFALSE )
 8005f9a:	f105 0024 	add.w	r0, r5, #36	; 0x24
 8005f9e:	f000 febb 	bl	8006d18 <xTaskRemoveFromEventList>
 8005fa2:	b118      	cbz	r0, 8005fac <xQueueGenericSendFromISR+0xc4>
							if( pxHigherPriorityTaskWoken != NULL )
 8005fa4:	b126      	cbz	r6, 8005fb0 <xQueueGenericSendFromISR+0xc8>
								*pxHigherPriorityTaskWoken = pdTRUE;
 8005fa6:	2001      	movs	r0, #1
 8005fa8:	6030      	str	r0, [r6, #0]
 8005faa:	e7db      	b.n	8005f64 <xQueueGenericSendFromISR+0x7c>
			xReturn = pdPASS;
 8005fac:	2001      	movs	r0, #1
 8005fae:	e7d9      	b.n	8005f64 <xQueueGenericSendFromISR+0x7c>
 8005fb0:	2001      	movs	r0, #1
 8005fb2:	e7d7      	b.n	8005f64 <xQueueGenericSendFromISR+0x7c>

08005fb4 <xQueueReceive>:
{
 8005fb4:	e92d 41f0 	stmdb	sp!, {r4, r5, r6, r7, r8, lr}
 8005fb8:	b084      	sub	sp, #16
 8005fba:	9201      	str	r2, [sp, #4]
	configASSERT( ( pxQueue ) );
 8005fbc:	b180      	cbz	r0, 8005fe0 <xQueueReceive+0x2c>
 8005fbe:	460e      	mov	r6, r1
 8005fc0:	4604      	mov	r4, r0
	configASSERT( !( ( ( pvBuffer ) == NULL ) && ( ( pxQueue )->uxItemSize != ( UBaseType_t ) 0U ) ) );
 8005fc2:	b1b1      	cbz	r1, 8005ff2 <xQueueReceive+0x3e>
		configASSERT( !( ( xTaskGetSchedulerState() == taskSCHEDULER_SUSPENDED ) && ( xTicksToWait != 0 ) ) );
 8005fc4:	f000 ff8a 	bl	8006edc <xTaskGetSchedulerState>
 8005fc8:	b9f8      	cbnz	r0, 800600a <xQueueReceive+0x56>
 8005fca:	9b01      	ldr	r3, [sp, #4]
 8005fcc:	b30b      	cbz	r3, 8006012 <xQueueReceive+0x5e>
	__asm volatile
 8005fce:	f04f 0350 	mov.w	r3, #80	; 0x50
 8005fd2:	f383 8811 	msr	BASEPRI, r3
 8005fd6:	f3bf 8f6f 	isb	sy
 8005fda:	f3bf 8f4f 	dsb	sy
 8005fde:	e7fe      	b.n	8005fde <xQueueReceive+0x2a>
 8005fe0:	f04f 0350 	mov.w	r3, #80	; 0x50
 8005fe4:	f383 8811 	msr	BASEPRI, r3
 8005fe8:	f3bf 8f6f 	isb	sy
 8005fec:	f3bf 8f4f 	dsb	sy
	configASSERT( ( pxQueue ) );
 8005ff0:	e7fe      	b.n	8005ff0 <xQueueReceive+0x3c>
	configASSERT( !( ( ( pvBuffer ) == NULL ) && ( ( pxQueue )->uxItemSize != ( UBaseType_t ) 0U ) ) );
 8005ff2:	6c03      	ldr	r3, [r0, #64]	; 0x40
 8005ff4:	2b00      	cmp	r3, #0
 8005ff6:	d0e5      	beq.n	8005fc4 <xQueueReceive+0x10>
 8005ff8:	f04f 0350 	mov.w	r3, #80	; 0x50
 8005ffc:	f383 8811 	msr	BASEPRI, r3
 8006000:	f3bf 8f6f 	isb	sy
 8006004:	f3bf 8f4f 	dsb	sy
 8006008:	e7fe      	b.n	8006008 <xQueueReceive+0x54>
 800600a:	f04f 0800 	mov.w	r8, #0
		prvLockQueue( pxQueue );
 800600e:	2700      	movs	r7, #0
 8006010:	e03b      	b.n	800608a <xQueueReceive+0xd6>
 8006012:	f04f 0800 	mov.w	r8, #0
 8006016:	e7fa      	b.n	800600e <xQueueReceive+0x5a>
				prvCopyDataFromQueue( pxQueue, pvBuffer );
 8006018:	4631      	mov	r1, r6
 800601a:	4620      	mov	r0, r4
 800601c:	f7ff fd08 	bl	8005a30 <prvCopyDataFromQueue>
				pxQueue->uxMessagesWaiting = uxMessagesWaiting - ( UBaseType_t ) 1;
 8006020:	3d01      	subs	r5, #1
 8006022:	63a5      	str	r5, [r4, #56]	; 0x38
				if( listLIST_IS_EMPTY( &( pxQueue->xTasksWaitingToSend ) ) == pdFALSE )
 8006024:	6923      	ldr	r3, [r4, #16]
 8006026:	b92b      	cbnz	r3, 8006034 <xQueueReceive+0x80>
				taskEXIT_CRITICAL();
 8006028:	f001 faf6 	bl	8007618 <vPortExitCritical>
				return pdPASS;
 800602c:	2001      	movs	r0, #1
}
 800602e:	b004      	add	sp, #16
 8006030:	e8bd 81f0 	ldmia.w	sp!, {r4, r5, r6, r7, r8, pc}
					if( xTaskRemoveFromEventList( &( pxQueue->xTasksWaitingToSend ) ) != pdFALSE )
 8006034:	f104 0010 	add.w	r0, r4, #16
 8006038:	f000 fe6e 	bl	8006d18 <xTaskRemoveFromEventList>
 800603c:	2800      	cmp	r0, #0
 800603e:	d0f3      	beq.n	8006028 <xQueueReceive+0x74>
						queueYIELD_IF_USING_PREEMPTION();
 8006040:	f04f 23e0 	mov.w	r3, #3758153728	; 0xe000e000
 8006044:	f04f 5280 	mov.w	r2, #268435456	; 0x10000000
 8006048:	f8c3 2d04 	str.w	r2, [r3, #3332]	; 0xd04
 800604c:	f3bf 8f4f 	dsb	sy
 8006050:	f3bf 8f6f 	isb	sy
 8006054:	e7e8      	b.n	8006028 <xQueueReceive+0x74>
					taskEXIT_CRITICAL();
 8006056:	f001 fadf 	bl	8007618 <vPortExitCritical>
					return errQUEUE_EMPTY;
 800605a:	2000      	movs	r0, #0
 800605c:	e7e7      	b.n	800602e <xQueueReceive+0x7a>
					vTaskInternalSetTimeOutState( &xTimeOut );
 800605e:	a802      	add	r0, sp, #8
 8006060:	f000 fee2 	bl	8006e28 <vTaskInternalSetTimeOutState>
					xEntryTimeSet = pdTRUE;
 8006064:	e01c      	b.n	80060a0 <xQueueReceive+0xec>
				prvUnlockQueue( pxQueue );
 8006066:	4620      	mov	r0, r4
 8006068:	f7ff fcf4 	bl	8005a54 <prvUnlockQueue>
				( void ) xTaskResumeAll();
 800606c:	f000 fcd0 	bl	8006a10 <xTaskResumeAll>
 8006070:	e009      	b.n	8006086 <xQueueReceive+0xd2>
			prvUnlockQueue( pxQueue );
 8006072:	4620      	mov	r0, r4
 8006074:	f7ff fcee 	bl	8005a54 <prvUnlockQueue>
			( void ) xTaskResumeAll();
 8006078:	f000 fcca 	bl	8006a10 <xTaskResumeAll>
			if( prvIsQueueEmpty( pxQueue ) != pdFALSE )
 800607c:	4620      	mov	r0, r4
 800607e:	f7ff fc91 	bl	80059a4 <prvIsQueueEmpty>
 8006082:	2800      	cmp	r0, #0
 8006084:	d146      	bne.n	8006114 <xQueueReceive+0x160>
 8006086:	f04f 0801 	mov.w	r8, #1
		taskENTER_CRITICAL();
 800608a:	f001 faa3 	bl	80075d4 <vPortEnterCritical>
			const UBaseType_t uxMessagesWaiting = pxQueue->uxMessagesWaiting;
 800608e:	6ba5      	ldr	r5, [r4, #56]	; 0x38
			if( uxMessagesWaiting > ( UBaseType_t ) 0 )
 8006090:	2d00      	cmp	r5, #0
 8006092:	d1c1      	bne.n	8006018 <xQueueReceive+0x64>
				if( xTicksToWait == ( TickType_t ) 0 )
 8006094:	9b01      	ldr	r3, [sp, #4]
 8006096:	2b00      	cmp	r3, #0
 8006098:	d0dd      	beq.n	8006056 <xQueueReceive+0xa2>
				else if( xEntryTimeSet == pdFALSE )
 800609a:	f1b8 0f00 	cmp.w	r8, #0
 800609e:	d0de      	beq.n	800605e <xQueueReceive+0xaa>
		taskEXIT_CRITICAL();
 80060a0:	f001 faba 	bl	8007618 <vPortExitCritical>
		vTaskSuspendAll();
 80060a4:	f000 fc0c 	bl	80068c0 <vTaskSuspendAll>
		prvLockQueue( pxQueue );
 80060a8:	f001 fa94 	bl	80075d4 <vPortEnterCritical>
 80060ac:	f894 3044 	ldrb.w	r3, [r4, #68]	; 0x44
 80060b0:	b25b      	sxtb	r3, r3
 80060b2:	f1b3 3fff 	cmp.w	r3, #4294967295
 80060b6:	bf08      	it	eq
 80060b8:	f884 7044 	strbeq.w	r7, [r4, #68]	; 0x44
 80060bc:	f894 3045 	ldrb.w	r3, [r4, #69]	; 0x45
 80060c0:	b25b      	sxtb	r3, r3
 80060c2:	f1b3 3fff 	cmp.w	r3, #4294967295
 80060c6:	bf08      	it	eq
 80060c8:	f884 7045 	strbeq.w	r7, [r4, #69]	; 0x45
 80060cc:	f001 faa4 	bl	8007618 <vPortExitCritical>
		if( xTaskCheckForTimeOut( &xTimeOut, &xTicksToWait ) == pdFALSE )
 80060d0:	a901      	add	r1, sp, #4
 80060d2:	a802      	add	r0, sp, #8
 80060d4:	f000 feb4 	bl	8006e40 <xTaskCheckForTimeOut>
 80060d8:	2800      	cmp	r0, #0
 80060da:	d1ca      	bne.n	8006072 <xQueueReceive+0xbe>
			if( prvIsQueueEmpty( pxQueue ) != pdFALSE )
 80060dc:	4620      	mov	r0, r4
 80060de:	f7ff fc61 	bl	80059a4 <prvIsQueueEmpty>
 80060e2:	2800      	cmp	r0, #0
 80060e4:	d0bf      	beq.n	8006066 <xQueueReceive+0xb2>
				vTaskPlaceOnEventList( &( pxQueue->xTasksWaitingToReceive ), xTicksToWait );
 80060e6:	9901      	ldr	r1, [sp, #4]
 80060e8:	f104 0024 	add.w	r0, r4, #36	; 0x24
 80060ec:	f000 fdb2 	bl	8006c54 <vTaskPlaceOnEventList>
				prvUnlockQueue( pxQueue );
 80060f0:	4620      	mov	r0, r4
 80060f2:	f7ff fcaf 	bl	8005a54 <prvUnlockQueue>
				if( xTaskResumeAll() == pdFALSE )
 80060f6:	f000 fc8b 	bl	8006a10 <xTaskResumeAll>
 80060fa:	2800      	cmp	r0, #0
 80060fc:	d1c3      	bne.n	8006086 <xQueueReceive+0xd2>
					portYIELD_WITHIN_API();
 80060fe:	f04f 23e0 	mov.w	r3, #3758153728	; 0xe000e000
 8006102:	f04f 5280 	mov.w	r2, #268435456	; 0x10000000
 8006106:	f8c3 2d04 	str.w	r2, [r3, #3332]	; 0xd04
 800610a:	f3bf 8f4f 	dsb	sy
 800610e:	f3bf 8f6f 	isb	sy
 8006112:	e7b8      	b.n	8006086 <xQueueReceive+0xd2>
				return errQUEUE_EMPTY;
 8006114:	2000      	movs	r0, #0
 8006116:	e78a      	b.n	800602e <xQueueReceive+0x7a>

08006118 <xQueueSemaphoreTake>:
{
 8006118:	b5f0      	push	{r4, r5, r6, r7, lr}
 800611a:	b085      	sub	sp, #20
 800611c:	9101      	str	r1, [sp, #4]
	configASSERT( ( pxQueue ) );
 800611e:	b158      	cbz	r0, 8006138 <xQueueSemaphoreTake+0x20>
 8006120:	4604      	mov	r4, r0
	configASSERT( pxQueue->uxItemSize == 0 );
 8006122:	6c03      	ldr	r3, [r0, #64]	; 0x40
 8006124:	b18b      	cbz	r3, 800614a <xQueueSemaphoreTake+0x32>
 8006126:	f04f 0350 	mov.w	r3, #80	; 0x50
 800612a:	f383 8811 	msr	BASEPRI, r3
 800612e:	f3bf 8f6f 	isb	sy
 8006132:	f3bf 8f4f 	dsb	sy
 8006136:	e7fe      	b.n	8006136 <xQueueSemaphoreTake+0x1e>
 8006138:	f04f 0350 	mov.w	r3, #80	; 0x50
 800613c:	f383 8811 	msr	BASEPRI, r3
 8006140:	f3bf 8f6f 	isb	sy
 8006144:	f3bf 8f4f 	dsb	sy
	configASSERT( ( pxQueue ) );
 8006148:	e7fe      	b.n	8006148 <xQueueSemaphoreTake+0x30>
		configASSERT( !( ( xTaskGetSchedulerState() == taskSCHEDULER_SUSPENDED ) && ( xTicksToWait != 0 ) ) );
 800614a:	f000 fec7 	bl	8006edc <xTaskGetSchedulerState>
 800614e:	b950      	cbnz	r0, 8006166 <xQueueSemaphoreTake+0x4e>
 8006150:	9b01      	ldr	r3, [sp, #4]
 8006152:	b163      	cbz	r3, 800616e <xQueueSemaphoreTake+0x56>
 8006154:	f04f 0350 	mov.w	r3, #80	; 0x50
 8006158:	f383 8811 	msr	BASEPRI, r3
 800615c:	f3bf 8f6f 	isb	sy
 8006160:	f3bf 8f4f 	dsb	sy
 8006164:	e7fe      	b.n	8006164 <xQueueSemaphoreTake+0x4c>
 8006166:	2600      	movs	r6, #0
 8006168:	4637      	mov	r7, r6
		prvLockQueue( pxQueue );
 800616a:	2500      	movs	r5, #0
 800616c:	e04e      	b.n	800620c <xQueueSemaphoreTake+0xf4>
 800616e:	2600      	movs	r6, #0
 8006170:	4637      	mov	r7, r6
 8006172:	e7fa      	b.n	800616a <xQueueSemaphoreTake+0x52>
				pxQueue->uxMessagesWaiting = uxSemaphoreCount - ( UBaseType_t ) 1;
 8006174:	3b01      	subs	r3, #1
 8006176:	63a3      	str	r3, [r4, #56]	; 0x38
					if( pxQueue->uxQueueType == queueQUEUE_IS_MUTEX )
 8006178:	6823      	ldr	r3, [r4, #0]
 800617a:	b13b      	cbz	r3, 800618c <xQueueSemaphoreTake+0x74>
				if( listLIST_IS_EMPTY( &( pxQueue->xTasksWaitingToSend ) ) == pdFALSE )
 800617c:	6923      	ldr	r3, [r4, #16]
 800617e:	b94b      	cbnz	r3, 8006194 <xQueueSemaphoreTake+0x7c>
				taskEXIT_CRITICAL();
 8006180:	f001 fa4a 	bl	8007618 <vPortExitCritical>
				return pdPASS;
 8006184:	2601      	movs	r6, #1
}
 8006186:	4630      	mov	r0, r6
 8006188:	b005      	add	sp, #20
 800618a:	bdf0      	pop	{r4, r5, r6, r7, pc}
						pxQueue->pxMutexHolder = ( int8_t * ) pvTaskIncrementMutexHeldCount(); /*lint !e961 Cast is not redundant as TaskHandle_t is a typedef. */
 800618c:	f000 ffa6 	bl	80070dc <pvTaskIncrementMutexHeldCount>
 8006190:	6060      	str	r0, [r4, #4]
 8006192:	e7f3      	b.n	800617c <xQueueSemaphoreTake+0x64>
					if( xTaskRemoveFromEventList( &( pxQueue->xTasksWaitingToSend ) ) != pdFALSE )
 8006194:	f104 0010 	add.w	r0, r4, #16
 8006198:	f000 fdbe 	bl	8006d18 <xTaskRemoveFromEventList>
 800619c:	2800      	cmp	r0, #0
 800619e:	d0ef      	beq.n	8006180 <xQueueSemaphoreTake+0x68>
						queueYIELD_IF_USING_PREEMPTION();
 80061a0:	f04f 23e0 	mov.w	r3, #3758153728	; 0xe000e000
 80061a4:	f04f 5280 	mov.w	r2, #268435456	; 0x10000000
 80061a8:	f8c3 2d04 	str.w	r2, [r3, #3332]	; 0xd04
 80061ac:	f3bf 8f4f 	dsb	sy
 80061b0:	f3bf 8f6f 	isb	sy
 80061b4:	e7e4      	b.n	8006180 <xQueueSemaphoreTake+0x68>
						configASSERT( xInheritanceOccurred == pdFALSE );
 80061b6:	b146      	cbz	r6, 80061ca <xQueueSemaphoreTake+0xb2>
 80061b8:	f04f 0350 	mov.w	r3, #80	; 0x50
 80061bc:	f383 8811 	msr	BASEPRI, r3
 80061c0:	f3bf 8f6f 	isb	sy
 80061c4:	f3bf 8f4f 	dsb	sy
 80061c8:	e7fe      	b.n	80061c8 <xQueueSemaphoreTake+0xb0>
					taskEXIT_CRITICAL();
 80061ca:	f001 fa25 	bl	8007618 <vPortExitCritical>
					return errQUEUE_EMPTY;
 80061ce:	e7da      	b.n	8006186 <xQueueSemaphoreTake+0x6e>
					vTaskInternalSetTimeOutState( &xTimeOut );
 80061d0:	a802      	add	r0, sp, #8
 80061d2:	f000 fe29 	bl	8006e28 <vTaskInternalSetTimeOutState>
					xEntryTimeSet = pdTRUE;
 80061d6:	e023      	b.n	8006220 <xQueueSemaphoreTake+0x108>
						taskENTER_CRITICAL();
 80061d8:	f001 f9fc 	bl	80075d4 <vPortEnterCritical>
							xInheritanceOccurred = xTaskPriorityInherit( ( void * ) pxQueue->pxMutexHolder );
 80061dc:	6860      	ldr	r0, [r4, #4]
 80061de:	f000 fe8d 	bl	8006efc <xTaskPriorityInherit>
 80061e2:	4606      	mov	r6, r0
						taskEXIT_CRITICAL();
 80061e4:	f001 fa18 	bl	8007618 <vPortExitCritical>
 80061e8:	e040      	b.n	800626c <xQueueSemaphoreTake+0x154>
				prvUnlockQueue( pxQueue );
 80061ea:	4620      	mov	r0, r4
 80061ec:	f7ff fc32 	bl	8005a54 <prvUnlockQueue>
				( void ) xTaskResumeAll();
 80061f0:	f000 fc0e 	bl	8006a10 <xTaskResumeAll>
 80061f4:	e009      	b.n	800620a <xQueueSemaphoreTake+0xf2>
			prvUnlockQueue( pxQueue );
 80061f6:	4620      	mov	r0, r4
 80061f8:	f7ff fc2c 	bl	8005a54 <prvUnlockQueue>
			( void ) xTaskResumeAll();
 80061fc:	f000 fc08 	bl	8006a10 <xTaskResumeAll>
			if( prvIsQueueEmpty( pxQueue ) != pdFALSE )
 8006200:	4620      	mov	r0, r4
 8006202:	f7ff fbcf 	bl	80059a4 <prvIsQueueEmpty>
 8006206:	2800      	cmp	r0, #0
 8006208:	d147      	bne.n	800629a <xQueueSemaphoreTake+0x182>
 800620a:	2701      	movs	r7, #1
		taskENTER_CRITICAL();
 800620c:	f001 f9e2 	bl	80075d4 <vPortEnterCritical>
			const UBaseType_t uxSemaphoreCount = pxQueue->uxMessagesWaiting;
 8006210:	6ba3      	ldr	r3, [r4, #56]	; 0x38
			if( uxSemaphoreCount > ( UBaseType_t ) 0 )
 8006212:	2b00      	cmp	r3, #0
 8006214:	d1ae      	bne.n	8006174 <xQueueSemaphoreTake+0x5c>
				if( xTicksToWait == ( TickType_t ) 0 )
 8006216:	9b01      	ldr	r3, [sp, #4]
 8006218:	2b00      	cmp	r3, #0
 800621a:	d0cc      	beq.n	80061b6 <xQueueSemaphoreTake+0x9e>
				else if( xEntryTimeSet == pdFALSE )
 800621c:	2f00      	cmp	r7, #0
 800621e:	d0d7      	beq.n	80061d0 <xQueueSemaphoreTake+0xb8>
		taskEXIT_CRITICAL();
 8006220:	f001 f9fa 	bl	8007618 <vPortExitCritical>
		vTaskSuspendAll();
 8006224:	f000 fb4c 	bl	80068c0 <vTaskSuspendAll>
		prvLockQueue( pxQueue );
 8006228:	f001 f9d4 	bl	80075d4 <vPortEnterCritical>
 800622c:	f894 3044 	ldrb.w	r3, [r4, #68]	; 0x44
 8006230:	b25b      	sxtb	r3, r3
 8006232:	f1b3 3fff 	cmp.w	r3, #4294967295
 8006236:	bf08      	it	eq
 8006238:	f884 5044 	strbeq.w	r5, [r4, #68]	; 0x44
 800623c:	f894 3045 	ldrb.w	r3, [r4, #69]	; 0x45
 8006240:	b25b      	sxtb	r3, r3
 8006242:	f1b3 3fff 	cmp.w	r3, #4294967295
 8006246:	bf08      	it	eq
 8006248:	f884 5045 	strbeq.w	r5, [r4, #69]	; 0x45
 800624c:	f001 f9e4 	bl	8007618 <vPortExitCritical>
		if( xTaskCheckForTimeOut( &xTimeOut, &xTicksToWait ) == pdFALSE )
 8006250:	a901      	add	r1, sp, #4
 8006252:	a802      	add	r0, sp, #8
 8006254:	f000 fdf4 	bl	8006e40 <xTaskCheckForTimeOut>
 8006258:	2800      	cmp	r0, #0
 800625a:	d1cc      	bne.n	80061f6 <xQueueSemaphoreTake+0xde>
			if( prvIsQueueEmpty( pxQueue ) != pdFALSE )
 800625c:	4620      	mov	r0, r4
 800625e:	f7ff fba1 	bl	80059a4 <prvIsQueueEmpty>
 8006262:	2800      	cmp	r0, #0
 8006264:	d0c1      	beq.n	80061ea <xQueueSemaphoreTake+0xd2>
					if( pxQueue->uxQueueType == queueQUEUE_IS_MUTEX )
 8006266:	6823      	ldr	r3, [r4, #0]
 8006268:	2b00      	cmp	r3, #0
 800626a:	d0b5      	beq.n	80061d8 <xQueueSemaphoreTake+0xc0>
				vTaskPlaceOnEventList( &( pxQueue->xTasksWaitingToReceive ), xTicksToWait );
 800626c:	9901      	ldr	r1, [sp, #4]
 800626e:	f104 0024 	add.w	r0, r4, #36	; 0x24
 8006272:	f000 fcef 	bl	8006c54 <vTaskPlaceOnEventList>
				prvUnlockQueue( pxQueue );
 8006276:	4620      	mov	r0, r4
 8006278:	f7ff fbec 	bl	8005a54 <prvUnlockQueue>
				if( xTaskResumeAll() == pdFALSE )
 800627c:	f000 fbc8 	bl	8006a10 <xTaskResumeAll>
 8006280:	2800      	cmp	r0, #0
 8006282:	d1c2      	bne.n	800620a <xQueueSemaphoreTake+0xf2>
					portYIELD_WITHIN_API();
 8006284:	f04f 23e0 	mov.w	r3, #3758153728	; 0xe000e000
 8006288:	f04f 5280 	mov.w	r2, #268435456	; 0x10000000
 800628c:	f8c3 2d04 	str.w	r2, [r3, #3332]	; 0xd04
 8006290:	f3bf 8f4f 	dsb	sy
 8006294:	f3bf 8f6f 	isb	sy
 8006298:	e7b7      	b.n	800620a <xQueueSemaphoreTake+0xf2>
					if( xInheritanceOccurred != pdFALSE )
 800629a:	2e00      	cmp	r6, #0
 800629c:	f43f af73 	beq.w	8006186 <xQueueSemaphoreTake+0x6e>
						taskENTER_CRITICAL();
 80062a0:	f001 f998 	bl	80075d4 <vPortEnterCritical>
		if( listCURRENT_LIST_LENGTH( &( pxQueue->xTasksWaitingToReceive ) ) > 0 )
 80062a4:	6a61      	ldr	r1, [r4, #36]	; 0x24
 80062a6:	b119      	cbz	r1, 80062b0 <xQueueSemaphoreTake+0x198>
			uxHighestPriorityOfWaitingTasks = configMAX_PRIORITIES - listGET_ITEM_VALUE_OF_HEAD_ENTRY( &( pxQueue->xTasksWaitingToReceive ) );
 80062a8:	6b23      	ldr	r3, [r4, #48]	; 0x30
 80062aa:	6819      	ldr	r1, [r3, #0]
 80062ac:	f1c1 0138 	rsb	r1, r1, #56	; 0x38
							vTaskPriorityDisinheritAfterTimeout( ( void * ) pxQueue->pxMutexHolder, uxHighestWaitingPriority );
 80062b0:	6860      	ldr	r0, [r4, #4]
 80062b2:	f000 feb7 	bl	8007024 <vTaskPriorityDisinheritAfterTimeout>
						taskEXIT_CRITICAL();
 80062b6:	f001 f9af 	bl	8007618 <vPortExitCritical>
				return errQUEUE_EMPTY;
 80062ba:	2600      	movs	r6, #0
 80062bc:	e763      	b.n	8006186 <xQueueSemaphoreTake+0x6e>

080062be <xQueueTakeMutexRecursive>:
		configASSERT( pxMutex );
 80062be:	b180      	cbz	r0, 80062e2 <xQueueTakeMutexRecursive+0x24>
	{
 80062c0:	b570      	push	{r4, r5, r6, lr}
 80062c2:	460c      	mov	r4, r1
 80062c4:	4605      	mov	r5, r0
		if( pxMutex->pxMutexHolder == ( void * ) xTaskGetCurrentTaskHandle() ) /*lint !e961 Cast is not redundant as TaskHandle_t is a typedef. */
 80062c6:	6846      	ldr	r6, [r0, #4]
 80062c8:	f000 fe02 	bl	8006ed0 <xTaskGetCurrentTaskHandle>
 80062cc:	4286      	cmp	r6, r0
 80062ce:	d011      	beq.n	80062f4 <xQueueTakeMutexRecursive+0x36>
			xReturn = xQueueSemaphoreTake( pxMutex, xTicksToWait );
 80062d0:	4621      	mov	r1, r4
 80062d2:	4628      	mov	r0, r5
 80062d4:	f7ff ff20 	bl	8006118 <xQueueSemaphoreTake>
			if( xReturn != pdFAIL )
 80062d8:	b180      	cbz	r0, 80062fc <xQueueTakeMutexRecursive+0x3e>
				( pxMutex->u.uxRecursiveCallCount )++;
 80062da:	68eb      	ldr	r3, [r5, #12]
 80062dc:	3301      	adds	r3, #1
 80062de:	60eb      	str	r3, [r5, #12]
		return xReturn;
 80062e0:	e00c      	b.n	80062fc <xQueueTakeMutexRecursive+0x3e>
 80062e2:	f04f 0350 	mov.w	r3, #80	; 0x50
 80062e6:	f383 8811 	msr	BASEPRI, r3
 80062ea:	f3bf 8f6f 	isb	sy
 80062ee:	f3bf 8f4f 	dsb	sy
		configASSERT( pxMutex );
 80062f2:	e7fe      	b.n	80062f2 <xQueueTakeMutexRecursive+0x34>
			( pxMutex->u.uxRecursiveCallCount )++;
 80062f4:	68eb      	ldr	r3, [r5, #12]
 80062f6:	3301      	adds	r3, #1
 80062f8:	60eb      	str	r3, [r5, #12]
			xReturn = pdPASS;
 80062fa:	2001      	movs	r0, #1
	}
 80062fc:	bd70      	pop	{r4, r5, r6, pc}

080062fe <xQueueReceiveFromISR>:
{
 80062fe:	e92d 43f8 	stmdb	sp!, {r3, r4, r5, r6, r7, r8, r9, lr}
	configASSERT( pxQueue );
 8006302:	b1b0      	cbz	r0, 8006332 <xQueueReceiveFromISR+0x34>
 8006304:	460d      	mov	r5, r1
 8006306:	4690      	mov	r8, r2
 8006308:	4604      	mov	r4, r0
	configASSERT( !( ( pvBuffer == NULL ) && ( pxQueue->uxItemSize != ( UBaseType_t ) 0U ) ) );
 800630a:	b1d9      	cbz	r1, 8006344 <xQueueReceiveFromISR+0x46>
	portASSERT_IF_INTERRUPT_PRIORITY_INVALID();
 800630c:	f001 fa50 	bl	80077b0 <vPortValidateInterruptPriority>
	__asm volatile
 8006310:	f3ef 8711 	mrs	r7, BASEPRI
 8006314:	f04f 0350 	mov.w	r3, #80	; 0x50
 8006318:	f383 8811 	msr	BASEPRI, r3
 800631c:	f3bf 8f6f 	isb	sy
 8006320:	f3bf 8f4f 	dsb	sy
		const UBaseType_t uxMessagesWaiting = pxQueue->uxMessagesWaiting;
 8006324:	6ba6      	ldr	r6, [r4, #56]	; 0x38
		if( uxMessagesWaiting > ( UBaseType_t ) 0 )
 8006326:	b9ce      	cbnz	r6, 800635c <xQueueReceiveFromISR+0x5e>
			xReturn = pdFAIL;
 8006328:	2000      	movs	r0, #0
	__asm volatile
 800632a:	f387 8811 	msr	BASEPRI, r7
}
 800632e:	e8bd 83f8 	ldmia.w	sp!, {r3, r4, r5, r6, r7, r8, r9, pc}
	__asm volatile
 8006332:	f04f 0350 	mov.w	r3, #80	; 0x50
 8006336:	f383 8811 	msr	BASEPRI, r3
 800633a:	f3bf 8f6f 	isb	sy
 800633e:	f3bf 8f4f 	dsb	sy
	configASSERT( pxQueue );
 8006342:	e7fe      	b.n	8006342 <xQueueReceiveFromISR+0x44>
	configASSERT( !( ( pvBuffer == NULL ) && ( pxQueue->uxItemSize != ( UBaseType_t ) 0U ) ) );
 8006344:	6c03      	ldr	r3, [r0, #64]	; 0x40
 8006346:	2b00      	cmp	r3, #0
 8006348:	d0e0      	beq.n	800630c <xQueueReceiveFromISR+0xe>
 800634a:	f04f 0350 	mov.w	r3, #80	; 0x50
 800634e:	f383 8811 	msr	BASEPRI, r3
 8006352:	f3bf 8f6f 	isb	sy
 8006356:	f3bf 8f4f 	dsb	sy
 800635a:	e7fe      	b.n	800635a <xQueueReceiveFromISR+0x5c>
			const int8_t cRxLock = pxQueue->cRxLock;
 800635c:	f894 9044 	ldrb.w	r9, [r4, #68]	; 0x44
 8006360:	fa4f f989 	sxtb.w	r9, r9
			prvCopyDataFromQueue( pxQueue, pvBuffer );
 8006364:	4629      	mov	r1, r5
 8006366:	4620      	mov	r0, r4
 8006368:	f7ff fb62 	bl	8005a30 <prvCopyDataFromQueue>
			pxQueue->uxMessagesWaiting = uxMessagesWaiting - ( UBaseType_t ) 1;
 800636c:	1e73      	subs	r3, r6, #1
 800636e:	63a3      	str	r3, [r4, #56]	; 0x38
			if( cRxLock == queueUNLOCKED )
 8006370:	f1b9 3fff 	cmp.w	r9, #4294967295
 8006374:	d006      	beq.n	8006384 <xQueueReceiveFromISR+0x86>
				pxQueue->cRxLock = ( int8_t ) ( cRxLock + 1 );
 8006376:	f109 0301 	add.w	r3, r9, #1
 800637a:	b25b      	sxtb	r3, r3
 800637c:	f884 3044 	strb.w	r3, [r4, #68]	; 0x44
			xReturn = pdPASS;
 8006380:	2001      	movs	r0, #1
 8006382:	e7d2      	b.n	800632a <xQueueReceiveFromISR+0x2c>
				if( listLIST_IS_EMPTY( &( pxQueue->xTasksWaitingToSend ) ) == pdFALSE )
 8006384:	6923      	ldr	r3, [r4, #16]
 8006386:	b90b      	cbnz	r3, 800638c <xQueueReceiveFromISR+0x8e>
			xReturn = pdPASS;
 8006388:	2001      	movs	r0, #1
 800638a:	e7ce      	b.n	800632a <xQueueReceiveFromISR+0x2c>
					if( xTaskRemoveFromEventList( &( pxQueue->xTasksWaitingToSend ) ) != pdFALSE )
 800638c:	f104 0010 	add.w	r0, r4, #16
 8006390:	f000 fcc2 	bl	8006d18 <xTaskRemoveFromEventList>
 8006394:	b130      	cbz	r0, 80063a4 <xQueueReceiveFromISR+0xa6>
						if( pxHigherPriorityTaskWoken != NULL )
 8006396:	f1b8 0f00 	cmp.w	r8, #0
 800639a:	d005      	beq.n	80063a8 <xQueueReceiveFromISR+0xaa>
							*pxHigherPriorityTaskWoken = pdTRUE;
 800639c:	2001      	movs	r0, #1
 800639e:	f8c8 0000 	str.w	r0, [r8]
 80063a2:	e7c2      	b.n	800632a <xQueueReceiveFromISR+0x2c>
			xReturn = pdPASS;
 80063a4:	2001      	movs	r0, #1
 80063a6:	e7c0      	b.n	800632a <xQueueReceiveFromISR+0x2c>
 80063a8:	2001      	movs	r0, #1
 80063aa:	e7be      	b.n	800632a <xQueueReceiveFromISR+0x2c>

080063ac <vQueueAddToRegistry>:
/*-----------------------------------------------------------*/

#if ( configQUEUE_REGISTRY_SIZE > 0 )

	void vQueueAddToRegistry( QueueHandle_t xQueue, const char *pcQueueName ) /*lint !e971 Unqualified char types are allowed for strings and single characters only. */
	{
 80063ac:	b410      	push	{r4}
	UBaseType_t ux;

		/* See if there is an empty space in the registry.  A NULL name denotes
		a free slot. */
		for( ux = ( UBaseType_t ) 0U; ux < ( UBaseType_t ) configQUEUE_REGISTRY_SIZE; ux++ )
 80063ae:	2300      	movs	r3, #0
		{
			if( xQueueRegistry[ ux ].pcQueueName == NULL )
 80063b0:	4c07      	ldr	r4, [pc, #28]	; (80063d0 <vQueueAddToRegistry+0x24>)
 80063b2:	f854 2033 	ldr.w	r2, [r4, r3, lsl #3]
 80063b6:	b122      	cbz	r2, 80063c2 <vQueueAddToRegistry+0x16>
		for( ux = ( UBaseType_t ) 0U; ux < ( UBaseType_t ) configQUEUE_REGISTRY_SIZE; ux++ )
 80063b8:	3301      	adds	r3, #1
 80063ba:	2b08      	cmp	r3, #8
 80063bc:	d1f9      	bne.n	80063b2 <vQueueAddToRegistry+0x6>
			else
			{
				mtCOVERAGE_TEST_MARKER();
			}
		}
	}
 80063be:	bc10      	pop	{r4}
 80063c0:	4770      	bx	lr
				xQueueRegistry[ ux ].pcQueueName = pcQueueName;
 80063c2:	4a03      	ldr	r2, [pc, #12]	; (80063d0 <vQueueAddToRegistry+0x24>)
 80063c4:	f842 1033 	str.w	r1, [r2, r3, lsl #3]
				xQueueRegistry[ ux ].xHandle = xQueue;
 80063c8:	eb02 02c3 	add.w	r2, r2, r3, lsl #3
 80063cc:	6050      	str	r0, [r2, #4]
				break;
 80063ce:	e7f6      	b.n	80063be <vQueueAddToRegistry+0x12>
 80063d0:	20001474 	.word	0x20001474

080063d4 <vQueueUnregisterQueue>:
	{
	UBaseType_t ux;

		/* See if the handle of the queue being unregistered in actually in the
		registry. */
		for( ux = ( UBaseType_t ) 0U; ux < ( UBaseType_t ) configQUEUE_REGISTRY_SIZE; ux++ )
 80063d4:	2300      	movs	r3, #0
		{
			if( xQueueRegistry[ ux ].xHandle == xQueue )
 80063d6:	4909      	ldr	r1, [pc, #36]	; (80063fc <vQueueUnregisterQueue+0x28>)
 80063d8:	eb01 02c3 	add.w	r2, r1, r3, lsl #3
 80063dc:	6852      	ldr	r2, [r2, #4]
 80063de:	4282      	cmp	r2, r0
 80063e0:	d003      	beq.n	80063ea <vQueueUnregisterQueue+0x16>
		for( ux = ( UBaseType_t ) 0U; ux < ( UBaseType_t ) configQUEUE_REGISTRY_SIZE; ux++ )
 80063e2:	3301      	adds	r3, #1
 80063e4:	2b08      	cmp	r3, #8
 80063e6:	d1f7      	bne.n	80063d8 <vQueueUnregisterQueue+0x4>
			{
				mtCOVERAGE_TEST_MARKER();
			}
		}

	} /*lint !e818 xQueue could not be pointer to const because it is a typedef. */
 80063e8:	4770      	bx	lr
				xQueueRegistry[ ux ].pcQueueName = NULL;
 80063ea:	4a04      	ldr	r2, [pc, #16]	; (80063fc <vQueueUnregisterQueue+0x28>)
 80063ec:	2100      	movs	r1, #0
 80063ee:	f842 1033 	str.w	r1, [r2, r3, lsl #3]
				xQueueRegistry[ ux ].xHandle = ( QueueHandle_t ) 0;
 80063f2:	eb02 02c3 	add.w	r2, r2, r3, lsl #3
 80063f6:	6051      	str	r1, [r2, #4]
				break;
 80063f8:	4770      	bx	lr
 80063fa:	bf00      	nop
 80063fc:	20001474 	.word	0x20001474

08006400 <vQueueDelete>:
	configASSERT( pxQueue );
 8006400:	b138      	cbz	r0, 8006412 <vQueueDelete+0x12>
{
 8006402:	b510      	push	{r4, lr}
 8006404:	4604      	mov	r4, r0
		vQueueUnregisterQueue( pxQueue );
 8006406:	f7ff ffe5 	bl	80063d4 <vQueueUnregisterQueue>
		if( pxQueue->ucStaticallyAllocated == ( uint8_t ) pdFALSE )
 800640a:	f894 3046 	ldrb.w	r3, [r4, #70]	; 0x46
 800640e:	b14b      	cbz	r3, 8006424 <vQueueDelete+0x24>
}
 8006410:	bd10      	pop	{r4, pc}
 8006412:	f04f 0350 	mov.w	r3, #80	; 0x50
 8006416:	f383 8811 	msr	BASEPRI, r3
 800641a:	f3bf 8f6f 	isb	sy
 800641e:	f3bf 8f4f 	dsb	sy
	configASSERT( pxQueue );
 8006422:	e7fe      	b.n	8006422 <vQueueDelete+0x22>
			vPortFree( pxQueue );
 8006424:	4620      	mov	r0, r4
 8006426:	f001 fab5 	bl	8007994 <vPortFree>
}
 800642a:	e7f1      	b.n	8006410 <vQueueDelete+0x10>

0800642c <vQueueWaitForMessageRestricted>:
/*-----------------------------------------------------------*/

#if ( configUSE_TIMERS == 1 )

	void vQueueWaitForMessageRestricted( QueueHandle_t xQueue, TickType_t xTicksToWait, const BaseType_t xWaitIndefinitely )
	{
 800642c:	b570      	push	{r4, r5, r6, lr}
 800642e:	4604      	mov	r4, r0
 8006430:	460d      	mov	r5, r1
 8006432:	4616      	mov	r6, r2
		will not actually cause the task to block, just place it on a blocked
		list.  It will not block until the scheduler is unlocked - at which
		time a yield will be performed.  If an item is added to the queue while
		the queue is locked, and the calling task blocks on the queue, then the
		calling task will be immediately unblocked when the queue is unlocked. */
		prvLockQueue( pxQueue );
 8006434:	f001 f8ce 	bl	80075d4 <vPortEnterCritical>
 8006438:	f894 3044 	ldrb.w	r3, [r4, #68]	; 0x44
 800643c:	b25b      	sxtb	r3, r3
 800643e:	f1b3 3fff 	cmp.w	r3, #4294967295
 8006442:	bf04      	itt	eq
 8006444:	2300      	moveq	r3, #0
 8006446:	f884 3044 	strbeq.w	r3, [r4, #68]	; 0x44
 800644a:	f894 3045 	ldrb.w	r3, [r4, #69]	; 0x45
 800644e:	b25b      	sxtb	r3, r3
 8006450:	f1b3 3fff 	cmp.w	r3, #4294967295
 8006454:	bf04      	itt	eq
 8006456:	2300      	moveq	r3, #0
 8006458:	f884 3045 	strbeq.w	r3, [r4, #69]	; 0x45
 800645c:	f001 f8dc 	bl	8007618 <vPortExitCritical>
		if( pxQueue->uxMessagesWaiting == ( UBaseType_t ) 0U )
 8006460:	6ba3      	ldr	r3, [r4, #56]	; 0x38
 8006462:	b11b      	cbz	r3, 800646c <vQueueWaitForMessageRestricted+0x40>
		}
		else
		{
			mtCOVERAGE_TEST_MARKER();
		}
		prvUnlockQueue( pxQueue );
 8006464:	4620      	mov	r0, r4
 8006466:	f7ff faf5 	bl	8005a54 <prvUnlockQueue>
	}
 800646a:	bd70      	pop	{r4, r5, r6, pc}
			vTaskPlaceOnEventListRestricted( &( pxQueue->xTasksWaitingToReceive ), xTicksToWait, xWaitIndefinitely );
 800646c:	4632      	mov	r2, r6
 800646e:	4629      	mov	r1, r5
 8006470:	f104 0024 	add.w	r0, r4, #36	; 0x24
 8006474:	f000 fc32 	bl	8006cdc <vTaskPlaceOnEventListRestricted>
 8006478:	e7f4      	b.n	8006464 <vQueueWaitForMessageRestricted+0x38>
	...

0800647c <prvResetNextTaskUnblockTime>:

static void prvResetNextTaskUnblockTime( void )
{
TCB_t *pxTCB;

	if( listLIST_IS_EMPTY( pxDelayedTaskList ) != pdFALSE )
 800647c:	4b08      	ldr	r3, [pc, #32]	; (80064a0 <prvResetNextTaskUnblockTime+0x24>)
 800647e:	681b      	ldr	r3, [r3, #0]
 8006480:	681b      	ldr	r3, [r3, #0]
 8006482:	b923      	cbnz	r3, 800648e <prvResetNextTaskUnblockTime+0x12>
	{
		/* The new current delayed list is empty.  Set xNextTaskUnblockTime to
		the maximum possible value so it is	extremely unlikely that the
		if( xTickCount >= xNextTaskUnblockTime ) test will pass until
		there is an item in the delayed list. */
		xNextTaskUnblockTime = portMAX_DELAY;
 8006484:	4b07      	ldr	r3, [pc, #28]	; (80064a4 <prvResetNextTaskUnblockTime+0x28>)
 8006486:	f04f 32ff 	mov.w	r2, #4294967295
 800648a:	601a      	str	r2, [r3, #0]
 800648c:	4770      	bx	lr
	{
		/* The new current delayed list is not empty, get the value of
		the item at the head of the delayed list.  This is the time at
		which the task at the head of the delayed list should be removed
		from the Blocked state. */
		( pxTCB ) = ( TCB_t * ) listGET_OWNER_OF_HEAD_ENTRY( pxDelayedTaskList );
 800648e:	4b04      	ldr	r3, [pc, #16]	; (80064a0 <prvResetNextTaskUnblockTime+0x24>)
 8006490:	681b      	ldr	r3, [r3, #0]
 8006492:	68db      	ldr	r3, [r3, #12]
		xNextTaskUnblockTime = listGET_LIST_ITEM_VALUE( &( ( pxTCB )->xStateListItem ) );
 8006494:	68db      	ldr	r3, [r3, #12]
 8006496:	685a      	ldr	r2, [r3, #4]
 8006498:	4b02      	ldr	r3, [pc, #8]	; (80064a4 <prvResetNextTaskUnblockTime+0x28>)
 800649a:	601a      	str	r2, [r3, #0]
	}
}
 800649c:	4770      	bx	lr
 800649e:	bf00      	nop
 80064a0:	200014b8 	.word	0x200014b8
 80064a4:	20001960 	.word	0x20001960

080064a8 <prvInitialiseNewTask>:
{
 80064a8:	e92d 47f0 	stmdb	sp!, {r4, r5, r6, r7, r8, r9, sl, lr}
 80064ac:	4606      	mov	r6, r0
 80064ae:	4689      	mov	r9, r1
 80064b0:	461f      	mov	r7, r3
 80064b2:	f8dd 8024 	ldr.w	r8, [sp, #36]	; 0x24
 80064b6:	9c0a      	ldr	r4, [sp, #40]	; 0x28
		( void ) memset( pxNewTCB->pxStack, ( int ) tskSTACK_FILL_BYTE, ( size_t ) ulStackDepth * sizeof( StackType_t ) );
 80064b8:	0095      	lsls	r5, r2, #2
 80064ba:	462a      	mov	r2, r5
 80064bc:	21a5      	movs	r1, #165	; 0xa5
 80064be:	6b20      	ldr	r0, [r4, #48]	; 0x30
 80064c0:	f001 fc3d 	bl	8007d3e <memset>
		pxTopOfStack = pxNewTCB->pxStack + ( ulStackDepth - ( uint32_t ) 1 );
 80064c4:	3d04      	subs	r5, #4
 80064c6:	6b23      	ldr	r3, [r4, #48]	; 0x30
 80064c8:	441d      	add	r5, r3
		pxTopOfStack = ( StackType_t * ) ( ( ( portPOINTER_SIZE_TYPE ) pxTopOfStack ) & ( ~( ( portPOINTER_SIZE_TYPE ) portBYTE_ALIGNMENT_MASK ) ) ); /*lint !e923 MISRA exception.  Avoiding casts between pointers and integers is not practical.  Size differences accounted for using portPOINTER_SIZE_TYPE type. */
 80064ca:	f025 0507 	bic.w	r5, r5, #7
	for( x = ( UBaseType_t ) 0; x < ( UBaseType_t ) configMAX_TASK_NAME_LEN; x++ )
 80064ce:	f109 3cff 	add.w	ip, r9, #4294967295
 80064d2:	f104 0e33 	add.w	lr, r4, #51	; 0x33
 80064d6:	f109 010f 	add.w	r1, r9, #15
		pxNewTCB->pcTaskName[ x ] = pcName[ x ];
 80064da:	f81c 2f01 	ldrb.w	r2, [ip, #1]!
 80064de:	f80e 2f01 	strb.w	r2, [lr, #1]!
		if( pcName[ x ] == 0x00 )
 80064e2:	b10a      	cbz	r2, 80064e8 <prvInitialiseNewTask+0x40>
	for( x = ( UBaseType_t ) 0; x < ( UBaseType_t ) configMAX_TASK_NAME_LEN; x++ )
 80064e4:	458c      	cmp	ip, r1
 80064e6:	d1f8      	bne.n	80064da <prvInitialiseNewTask+0x32>
	pxNewTCB->pcTaskName[ configMAX_TASK_NAME_LEN - 1 ] = '\0';
 80064e8:	f04f 0a00 	mov.w	sl, #0
 80064ec:	f884 a043 	strb.w	sl, [r4, #67]	; 0x43
	if( uxPriority >= ( UBaseType_t ) configMAX_PRIORITIES )
 80064f0:	9b08      	ldr	r3, [sp, #32]
 80064f2:	2b37      	cmp	r3, #55	; 0x37
 80064f4:	bf28      	it	cs
 80064f6:	2337      	movcs	r3, #55	; 0x37
 80064f8:	4699      	mov	r9, r3
	pxNewTCB->uxPriority = uxPriority;
 80064fa:	62e3      	str	r3, [r4, #44]	; 0x2c
		pxNewTCB->uxBasePriority = uxPriority;
 80064fc:	64e3      	str	r3, [r4, #76]	; 0x4c
		pxNewTCB->uxMutexesHeld = 0;
 80064fe:	f8c4 a050 	str.w	sl, [r4, #80]	; 0x50
	vListInitialiseItem( &( pxNewTCB->xStateListItem ) );
 8006502:	1d20      	adds	r0, r4, #4
 8006504:	f7ff fa15 	bl	8005932 <vListInitialiseItem>
	vListInitialiseItem( &( pxNewTCB->xEventListItem ) );
 8006508:	f104 0018 	add.w	r0, r4, #24
 800650c:	f7ff fa11 	bl	8005932 <vListInitialiseItem>
	listSET_LIST_ITEM_OWNER( &( pxNewTCB->xStateListItem ), pxNewTCB );
 8006510:	6124      	str	r4, [r4, #16]
	listSET_LIST_ITEM_VALUE( &( pxNewTCB->xEventListItem ), ( TickType_t ) configMAX_PRIORITIES - ( TickType_t ) uxPriority ); /*lint !e961 MISRA exception as the casts are only redundant for some ports. */
 8006512:	f1c9 0338 	rsb	r3, r9, #56	; 0x38
 8006516:	61a3      	str	r3, [r4, #24]
	listSET_LIST_ITEM_OWNER( &( pxNewTCB->xEventListItem ), pxNewTCB );
 8006518:	6264      	str	r4, [r4, #36]	; 0x24
		pxNewTCB->pxTaskTag = NULL;
 800651a:	f8c4 a054 	str.w	sl, [r4, #84]	; 0x54
		pxNewTCB->ulNotifiedValue = 0;
 800651e:	f8c4 a058 	str.w	sl, [r4, #88]	; 0x58
		pxNewTCB->ucNotifyState = taskNOT_WAITING_NOTIFICATION;
 8006522:	f884 a05c 	strb.w	sl, [r4, #92]	; 0x5c
		pxNewTCB->pxTopOfStack = pxPortInitialiseStack( pxTopOfStack, pxTaskCode, pvParameters );
 8006526:	463a      	mov	r2, r7
 8006528:	4631      	mov	r1, r6
 800652a:	4628      	mov	r0, r5
 800652c:	f001 f82c 	bl	8007588 <pxPortInitialiseStack>
 8006530:	6020      	str	r0, [r4, #0]
	if( ( void * ) pxCreatedTask != NULL )
 8006532:	f1b8 0f00 	cmp.w	r8, #0
 8006536:	d001      	beq.n	800653c <prvInitialiseNewTask+0x94>
		*pxCreatedTask = ( TaskHandle_t ) pxNewTCB;
 8006538:	f8c8 4000 	str.w	r4, [r8]
}
 800653c:	e8bd 87f0 	ldmia.w	sp!, {r4, r5, r6, r7, r8, r9, sl, pc}

08006540 <prvAddNewTaskToReadyList>:
{
 8006540:	b570      	push	{r4, r5, r6, lr}
 8006542:	4605      	mov	r5, r0
	taskENTER_CRITICAL();
 8006544:	f001 f846 	bl	80075d4 <vPortEnterCritical>
		uxCurrentNumberOfTasks++;
 8006548:	4a30      	ldr	r2, [pc, #192]	; (800660c <prvAddNewTaskToReadyList+0xcc>)
 800654a:	6813      	ldr	r3, [r2, #0]
 800654c:	3301      	adds	r3, #1
 800654e:	6013      	str	r3, [r2, #0]
		if( pxCurrentTCB == NULL )
 8006550:	4b2f      	ldr	r3, [pc, #188]	; (8006610 <prvAddNewTaskToReadyList+0xd0>)
 8006552:	681b      	ldr	r3, [r3, #0]
 8006554:	2b00      	cmp	r3, #0
 8006556:	d034      	beq.n	80065c2 <prvAddNewTaskToReadyList+0x82>
			if( xSchedulerRunning == pdFALSE )
 8006558:	4b2e      	ldr	r3, [pc, #184]	; (8006614 <prvAddNewTaskToReadyList+0xd4>)
 800655a:	681b      	ldr	r3, [r3, #0]
 800655c:	b93b      	cbnz	r3, 800656e <prvAddNewTaskToReadyList+0x2e>
				if( pxCurrentTCB->uxPriority <= pxNewTCB->uxPriority )
 800655e:	4b2c      	ldr	r3, [pc, #176]	; (8006610 <prvAddNewTaskToReadyList+0xd0>)
 8006560:	681b      	ldr	r3, [r3, #0]
 8006562:	6ada      	ldr	r2, [r3, #44]	; 0x2c
 8006564:	6aeb      	ldr	r3, [r5, #44]	; 0x2c
 8006566:	429a      	cmp	r2, r3
					pxCurrentTCB = pxNewTCB;
 8006568:	bf9c      	itt	ls
 800656a:	4b29      	ldrls	r3, [pc, #164]	; (8006610 <prvAddNewTaskToReadyList+0xd0>)
 800656c:	601d      	strls	r5, [r3, #0]
		uxTaskNumber++;
 800656e:	4a2a      	ldr	r2, [pc, #168]	; (8006618 <prvAddNewTaskToReadyList+0xd8>)
 8006570:	6813      	ldr	r3, [r2, #0]
 8006572:	3301      	adds	r3, #1
 8006574:	6013      	str	r3, [r2, #0]
			pxNewTCB->uxTCBNumber = uxTaskNumber;
 8006576:	646b      	str	r3, [r5, #68]	; 0x44
		prvAddTaskToReadyList( pxNewTCB );
 8006578:	6ae8      	ldr	r0, [r5, #44]	; 0x2c
 800657a:	4b28      	ldr	r3, [pc, #160]	; (800661c <prvAddNewTaskToReadyList+0xdc>)
 800657c:	681b      	ldr	r3, [r3, #0]
 800657e:	4298      	cmp	r0, r3
 8006580:	bf84      	itt	hi
 8006582:	4b26      	ldrhi	r3, [pc, #152]	; (800661c <prvAddNewTaskToReadyList+0xdc>)
 8006584:	6018      	strhi	r0, [r3, #0]
 8006586:	eb00 0080 	add.w	r0, r0, r0, lsl #2
 800658a:	1d29      	adds	r1, r5, #4
 800658c:	4b24      	ldr	r3, [pc, #144]	; (8006620 <prvAddNewTaskToReadyList+0xe0>)
 800658e:	eb03 0080 	add.w	r0, r3, r0, lsl #2
 8006592:	f7ff f9d1 	bl	8005938 <vListInsertEnd>
	taskEXIT_CRITICAL();
 8006596:	f001 f83f 	bl	8007618 <vPortExitCritical>
	if( xSchedulerRunning != pdFALSE )
 800659a:	4b1e      	ldr	r3, [pc, #120]	; (8006614 <prvAddNewTaskToReadyList+0xd4>)
 800659c:	681b      	ldr	r3, [r3, #0]
 800659e:	b17b      	cbz	r3, 80065c0 <prvAddNewTaskToReadyList+0x80>
		if( pxCurrentTCB->uxPriority < pxNewTCB->uxPriority )
 80065a0:	4b1b      	ldr	r3, [pc, #108]	; (8006610 <prvAddNewTaskToReadyList+0xd0>)
 80065a2:	681b      	ldr	r3, [r3, #0]
 80065a4:	6ada      	ldr	r2, [r3, #44]	; 0x2c
 80065a6:	6aeb      	ldr	r3, [r5, #44]	; 0x2c
 80065a8:	429a      	cmp	r2, r3
 80065aa:	d209      	bcs.n	80065c0 <prvAddNewTaskToReadyList+0x80>
			taskYIELD_IF_USING_PREEMPTION();
 80065ac:	f04f 23e0 	mov.w	r3, #3758153728	; 0xe000e000
 80065b0:	f04f 5280 	mov.w	r2, #268435456	; 0x10000000
 80065b4:	f8c3 2d04 	str.w	r2, [r3, #3332]	; 0xd04
 80065b8:	f3bf 8f4f 	dsb	sy
 80065bc:	f3bf 8f6f 	isb	sy
}
 80065c0:	bd70      	pop	{r4, r5, r6, pc}
			pxCurrentTCB = pxNewTCB;
 80065c2:	4b13      	ldr	r3, [pc, #76]	; (8006610 <prvAddNewTaskToReadyList+0xd0>)
 80065c4:	601d      	str	r5, [r3, #0]
			if( uxCurrentNumberOfTasks == ( UBaseType_t ) 1 )
 80065c6:	6813      	ldr	r3, [r2, #0]
 80065c8:	2b01      	cmp	r3, #1
 80065ca:	d1d0      	bne.n	800656e <prvAddNewTaskToReadyList+0x2e>
 80065cc:	4c14      	ldr	r4, [pc, #80]	; (8006620 <prvAddNewTaskToReadyList+0xe0>)
 80065ce:	f504 668c 	add.w	r6, r4, #1120	; 0x460
		vListInitialise( &( pxReadyTasksLists[ uxPriority ] ) );
 80065d2:	4620      	mov	r0, r4
 80065d4:	f7ff f9a2 	bl	800591c <vListInitialise>
	for( uxPriority = ( UBaseType_t ) 0U; uxPriority < ( UBaseType_t ) configMAX_PRIORITIES; uxPriority++ )
 80065d8:	3414      	adds	r4, #20
 80065da:	42b4      	cmp	r4, r6
 80065dc:	d1f9      	bne.n	80065d2 <prvAddNewTaskToReadyList+0x92>
	vListInitialise( &xDelayedTaskList1 );
 80065de:	4e11      	ldr	r6, [pc, #68]	; (8006624 <prvAddNewTaskToReadyList+0xe4>)
 80065e0:	4630      	mov	r0, r6
 80065e2:	f7ff f99b 	bl	800591c <vListInitialise>
	vListInitialise( &xDelayedTaskList2 );
 80065e6:	4c10      	ldr	r4, [pc, #64]	; (8006628 <prvAddNewTaskToReadyList+0xe8>)
 80065e8:	4620      	mov	r0, r4
 80065ea:	f7ff f997 	bl	800591c <vListInitialise>
	vListInitialise( &xPendingReadyList );
 80065ee:	480f      	ldr	r0, [pc, #60]	; (800662c <prvAddNewTaskToReadyList+0xec>)
 80065f0:	f7ff f994 	bl	800591c <vListInitialise>
		vListInitialise( &xTasksWaitingTermination );
 80065f4:	480e      	ldr	r0, [pc, #56]	; (8006630 <prvAddNewTaskToReadyList+0xf0>)
 80065f6:	f7ff f991 	bl	800591c <vListInitialise>
		vListInitialise( &xSuspendedTaskList );
 80065fa:	480e      	ldr	r0, [pc, #56]	; (8006634 <prvAddNewTaskToReadyList+0xf4>)
 80065fc:	f7ff f98e 	bl	800591c <vListInitialise>
	pxDelayedTaskList = &xDelayedTaskList1;
 8006600:	4b0d      	ldr	r3, [pc, #52]	; (8006638 <prvAddNewTaskToReadyList+0xf8>)
 8006602:	601e      	str	r6, [r3, #0]
	pxOverflowDelayedTaskList = &xDelayedTaskList2;
 8006604:	4b0d      	ldr	r3, [pc, #52]	; (800663c <prvAddNewTaskToReadyList+0xfc>)
 8006606:	601c      	str	r4, [r3, #0]
}
 8006608:	e7b1      	b.n	800656e <prvAddNewTaskToReadyList+0x2e>
 800660a:	bf00      	nop
 800660c:	20001920 	.word	0x20001920
 8006610:	200014b4 	.word	0x200014b4
 8006614:	2000197c 	.word	0x2000197c
 8006618:	20001930 	.word	0x20001930
 800661c:	20001934 	.word	0x20001934
 8006620:	200014c0 	.word	0x200014c0
 8006624:	20001938 	.word	0x20001938
 8006628:	2000194c 	.word	0x2000194c
 800662c:	20001968 	.word	0x20001968
 8006630:	20001994 	.word	0x20001994
 8006634:	20001980 	.word	0x20001980
 8006638:	200014b8 	.word	0x200014b8
 800663c:	200014bc 	.word	0x200014bc

08006640 <prvDeleteTCB>:
	{
 8006640:	b510      	push	{r4, lr}
 8006642:	4604      	mov	r4, r0
			if( pxTCB->ucStaticallyAllocated == tskDYNAMICALLY_ALLOCATED_STACK_AND_TCB )
 8006644:	f890 305d 	ldrb.w	r3, [r0, #93]	; 0x5d
 8006648:	b163      	cbz	r3, 8006664 <prvDeleteTCB+0x24>
			else if( pxTCB->ucStaticallyAllocated == tskSTATICALLY_ALLOCATED_STACK_ONLY )
 800664a:	2b01      	cmp	r3, #1
 800664c:	d011      	beq.n	8006672 <prvDeleteTCB+0x32>
				configASSERT( pxTCB->ucStaticallyAllocated == tskSTATICALLY_ALLOCATED_STACK_AND_TCB	);
 800664e:	2b02      	cmp	r3, #2
 8006650:	d00e      	beq.n	8006670 <prvDeleteTCB+0x30>
 8006652:	f04f 0350 	mov.w	r3, #80	; 0x50
 8006656:	f383 8811 	msr	BASEPRI, r3
 800665a:	f3bf 8f6f 	isb	sy
 800665e:	f3bf 8f4f 	dsb	sy
 8006662:	e7fe      	b.n	8006662 <prvDeleteTCB+0x22>
				vPortFree( pxTCB->pxStack );
 8006664:	6b00      	ldr	r0, [r0, #48]	; 0x30
 8006666:	f001 f995 	bl	8007994 <vPortFree>
				vPortFree( pxTCB );
 800666a:	4620      	mov	r0, r4
 800666c:	f001 f992 	bl	8007994 <vPortFree>
	}
 8006670:	bd10      	pop	{r4, pc}
				vPortFree( pxTCB );
 8006672:	f001 f98f 	bl	8007994 <vPortFree>
 8006676:	e7fb      	b.n	8006670 <prvDeleteTCB+0x30>

08006678 <prvIdleTask>:
{
 8006678:	b580      	push	{r7, lr}
		while( uxDeletedTasksWaitingCleanUp > ( UBaseType_t ) 0U )
 800667a:	4c15      	ldr	r4, [pc, #84]	; (80066d0 <prvIdleTask+0x58>)
				pxTCB = ( TCB_t * ) listGET_OWNER_OF_HEAD_ENTRY( ( &xTasksWaitingTermination ) );
 800667c:	4f15      	ldr	r7, [pc, #84]	; (80066d4 <prvIdleTask+0x5c>)
				--uxCurrentNumberOfTasks;
 800667e:	4e16      	ldr	r6, [pc, #88]	; (80066d8 <prvIdleTask+0x60>)
			if( listCURRENT_LIST_LENGTH( &( pxReadyTasksLists[ tskIDLE_PRIORITY ] ) ) > ( UBaseType_t ) 1 )
 8006680:	f8df 8058 	ldr.w	r8, [pc, #88]	; 80066dc <prvIdleTask+0x64>
		while( uxDeletedTasksWaitingCleanUp > ( UBaseType_t ) 0U )
 8006684:	6823      	ldr	r3, [r4, #0]
 8006686:	b1a3      	cbz	r3, 80066b2 <prvIdleTask+0x3a>
			taskENTER_CRITICAL();
 8006688:	f000 ffa4 	bl	80075d4 <vPortEnterCritical>
				pxTCB = ( TCB_t * ) listGET_OWNER_OF_HEAD_ENTRY( ( &xTasksWaitingTermination ) );
 800668c:	68fb      	ldr	r3, [r7, #12]
 800668e:	68dd      	ldr	r5, [r3, #12]
				( void ) uxListRemove( &( pxTCB->xStateListItem ) );
 8006690:	1d28      	adds	r0, r5, #4
 8006692:	f7ff f975 	bl	8005980 <uxListRemove>
				--uxCurrentNumberOfTasks;
 8006696:	6833      	ldr	r3, [r6, #0]
 8006698:	3b01      	subs	r3, #1
 800669a:	6033      	str	r3, [r6, #0]
				--uxDeletedTasksWaitingCleanUp;
 800669c:	6823      	ldr	r3, [r4, #0]
 800669e:	3b01      	subs	r3, #1
 80066a0:	6023      	str	r3, [r4, #0]
			taskEXIT_CRITICAL();
 80066a2:	f000 ffb9 	bl	8007618 <vPortExitCritical>
			prvDeleteTCB( pxTCB );
 80066a6:	4628      	mov	r0, r5
 80066a8:	f7ff ffca 	bl	8006640 <prvDeleteTCB>
		while( uxDeletedTasksWaitingCleanUp > ( UBaseType_t ) 0U )
 80066ac:	6823      	ldr	r3, [r4, #0]
 80066ae:	2b00      	cmp	r3, #0
 80066b0:	d1ea      	bne.n	8006688 <prvIdleTask+0x10>
			if( listCURRENT_LIST_LENGTH( &( pxReadyTasksLists[ tskIDLE_PRIORITY ] ) ) > ( UBaseType_t ) 1 )
 80066b2:	f8d8 3000 	ldr.w	r3, [r8]
 80066b6:	2b01      	cmp	r3, #1
 80066b8:	d9e4      	bls.n	8006684 <prvIdleTask+0xc>
				taskYIELD();
 80066ba:	f04f 23e0 	mov.w	r3, #3758153728	; 0xe000e000
 80066be:	f04f 5280 	mov.w	r2, #268435456	; 0x10000000
 80066c2:	f8c3 2d04 	str.w	r2, [r3, #3332]	; 0xd04
 80066c6:	f3bf 8f4f 	dsb	sy
 80066ca:	f3bf 8f6f 	isb	sy
 80066ce:	e7d9      	b.n	8006684 <prvIdleTask+0xc>
 80066d0:	20001924 	.word	0x20001924
 80066d4:	20001994 	.word	0x20001994
 80066d8:	20001920 	.word	0x20001920
 80066dc:	200014c0 	.word	0x200014c0

080066e0 <prvAddCurrentTaskToDelayedList>:
#endif /* configUSE_TASK_NOTIFICATIONS */
/*-----------------------------------------------------------*/


static void prvAddCurrentTaskToDelayedList( TickType_t xTicksToWait, const BaseType_t xCanBlockIndefinitely )
{
 80066e0:	b570      	push	{r4, r5, r6, lr}
 80066e2:	4604      	mov	r4, r0
 80066e4:	460d      	mov	r5, r1
TickType_t xTimeToWake;
const TickType_t xConstTickCount = xTickCount;
 80066e6:	4b17      	ldr	r3, [pc, #92]	; (8006744 <prvAddCurrentTaskToDelayedList+0x64>)
 80066e8:	681e      	ldr	r6, [r3, #0]
	}
	#endif

	/* Remove the task from the ready list before adding it to the blocked list
	as the same list item is used for both lists. */
	if( uxListRemove( &( pxCurrentTCB->xStateListItem ) ) == ( UBaseType_t ) 0 )
 80066ea:	4b17      	ldr	r3, [pc, #92]	; (8006748 <prvAddCurrentTaskToDelayedList+0x68>)
 80066ec:	6818      	ldr	r0, [r3, #0]
 80066ee:	3004      	adds	r0, #4
 80066f0:	f7ff f946 	bl	8005980 <uxListRemove>
		mtCOVERAGE_TEST_MARKER();
	}

	#if ( INCLUDE_vTaskSuspend == 1 )
	{
		if( ( xTicksToWait == portMAX_DELAY ) && ( xCanBlockIndefinitely != pdFALSE ) )
 80066f4:	f1b4 3fff 	cmp.w	r4, #4294967295
 80066f8:	d00d      	beq.n	8006716 <prvAddCurrentTaskToDelayedList+0x36>
		else
		{
			/* Calculate the time at which the task should be woken if the event
			does not occur.  This may overflow but this doesn't matter, the
			kernel will manage it correctly. */
			xTimeToWake = xConstTickCount + xTicksToWait;
 80066fa:	4434      	add	r4, r6

			/* The list item will be inserted in wake time order. */
			listSET_LIST_ITEM_VALUE( &( pxCurrentTCB->xStateListItem ), xTimeToWake );
 80066fc:	4b12      	ldr	r3, [pc, #72]	; (8006748 <prvAddCurrentTaskToDelayedList+0x68>)
 80066fe:	681b      	ldr	r3, [r3, #0]
 8006700:	605c      	str	r4, [r3, #4]

			if( xTimeToWake < xConstTickCount )
 8006702:	42a6      	cmp	r6, r4
 8006704:	d910      	bls.n	8006728 <prvAddCurrentTaskToDelayedList+0x48>
			{
				/* Wake time has overflowed.  Place this item in the overflow
				list. */
				vListInsert( pxOverflowDelayedTaskList, &( pxCurrentTCB->xStateListItem ) );
 8006706:	4b11      	ldr	r3, [pc, #68]	; (800674c <prvAddCurrentTaskToDelayedList+0x6c>)
 8006708:	6818      	ldr	r0, [r3, #0]
 800670a:	4b0f      	ldr	r3, [pc, #60]	; (8006748 <prvAddCurrentTaskToDelayedList+0x68>)
 800670c:	6819      	ldr	r1, [r3, #0]
 800670e:	3104      	adds	r1, #4
 8006710:	f7ff f91d 	bl	800594e <vListInsert>

		/* Avoid compiler warning when INCLUDE_vTaskSuspend is not 1. */
		( void ) xCanBlockIndefinitely;
	}
	#endif /* INCLUDE_vTaskSuspend */
}
 8006714:	bd70      	pop	{r4, r5, r6, pc}
		if( ( xTicksToWait == portMAX_DELAY ) && ( xCanBlockIndefinitely != pdFALSE ) )
 8006716:	2d00      	cmp	r5, #0
 8006718:	d0ef      	beq.n	80066fa <prvAddCurrentTaskToDelayedList+0x1a>
			vListInsertEnd( &xSuspendedTaskList, &( pxCurrentTCB->xStateListItem ) );
 800671a:	4b0b      	ldr	r3, [pc, #44]	; (8006748 <prvAddCurrentTaskToDelayedList+0x68>)
 800671c:	6819      	ldr	r1, [r3, #0]
 800671e:	3104      	adds	r1, #4
 8006720:	480b      	ldr	r0, [pc, #44]	; (8006750 <prvAddCurrentTaskToDelayedList+0x70>)
 8006722:	f7ff f909 	bl	8005938 <vListInsertEnd>
 8006726:	e7f5      	b.n	8006714 <prvAddCurrentTaskToDelayedList+0x34>
				vListInsert( pxDelayedTaskList, &( pxCurrentTCB->xStateListItem ) );
 8006728:	4b0a      	ldr	r3, [pc, #40]	; (8006754 <prvAddCurrentTaskToDelayedList+0x74>)
 800672a:	6818      	ldr	r0, [r3, #0]
 800672c:	4b06      	ldr	r3, [pc, #24]	; (8006748 <prvAddCurrentTaskToDelayedList+0x68>)
 800672e:	6819      	ldr	r1, [r3, #0]
 8006730:	3104      	adds	r1, #4
 8006732:	f7ff f90c 	bl	800594e <vListInsert>
				if( xTimeToWake < xNextTaskUnblockTime )
 8006736:	4b08      	ldr	r3, [pc, #32]	; (8006758 <prvAddCurrentTaskToDelayedList+0x78>)
 8006738:	681b      	ldr	r3, [r3, #0]
 800673a:	42a3      	cmp	r3, r4
					xNextTaskUnblockTime = xTimeToWake;
 800673c:	bf84      	itt	hi
 800673e:	4b06      	ldrhi	r3, [pc, #24]	; (8006758 <prvAddCurrentTaskToDelayedList+0x78>)
 8006740:	601c      	strhi	r4, [r3, #0]
}
 8006742:	e7e7      	b.n	8006714 <prvAddCurrentTaskToDelayedList+0x34>
 8006744:	200019a8 	.word	0x200019a8
 8006748:	200014b4 	.word	0x200014b4
 800674c:	200014bc 	.word	0x200014bc
 8006750:	20001980 	.word	0x20001980
 8006754:	200014b8 	.word	0x200014b8
 8006758:	20001960 	.word	0x20001960

0800675c <xTaskCreateStatic>:
	{
 800675c:	b530      	push	{r4, r5, lr}
 800675e:	b087      	sub	sp, #28
 8006760:	9c0b      	ldr	r4, [sp, #44]	; 0x2c
		configASSERT( puxStackBuffer != NULL );
 8006762:	b17c      	cbz	r4, 8006784 <xTaskCreateStatic+0x28>
		configASSERT( pxTaskBuffer != NULL );
 8006764:	9d0c      	ldr	r5, [sp, #48]	; 0x30
 8006766:	b1b5      	cbz	r5, 8006796 <xTaskCreateStatic+0x3a>
			volatile size_t xSize = sizeof( StaticTask_t );
 8006768:	2560      	movs	r5, #96	; 0x60
 800676a:	9504      	str	r5, [sp, #16]
			configASSERT( xSize == sizeof( TCB_t ) );
 800676c:	9d04      	ldr	r5, [sp, #16]
 800676e:	2d60      	cmp	r5, #96	; 0x60
 8006770:	d01a      	beq.n	80067a8 <xTaskCreateStatic+0x4c>
 8006772:	f04f 0350 	mov.w	r3, #80	; 0x50
 8006776:	f383 8811 	msr	BASEPRI, r3
 800677a:	f3bf 8f6f 	isb	sy
 800677e:	f3bf 8f4f 	dsb	sy
 8006782:	e7fe      	b.n	8006782 <xTaskCreateStatic+0x26>
 8006784:	f04f 0350 	mov.w	r3, #80	; 0x50
 8006788:	f383 8811 	msr	BASEPRI, r3
 800678c:	f3bf 8f6f 	isb	sy
 8006790:	f3bf 8f4f 	dsb	sy
		configASSERT( puxStackBuffer != NULL );
 8006794:	e7fe      	b.n	8006794 <xTaskCreateStatic+0x38>
 8006796:	f04f 0350 	mov.w	r3, #80	; 0x50
 800679a:	f383 8811 	msr	BASEPRI, r3
 800679e:	f3bf 8f6f 	isb	sy
 80067a2:	f3bf 8f4f 	dsb	sy
		configASSERT( pxTaskBuffer != NULL );
 80067a6:	e7fe      	b.n	80067a6 <xTaskCreateStatic+0x4a>
			pxNewTCB->pxStack = ( StackType_t * ) puxStackBuffer;
 80067a8:	9d0c      	ldr	r5, [sp, #48]	; 0x30
 80067aa:	632c      	str	r4, [r5, #48]	; 0x30
				pxNewTCB->ucStaticallyAllocated = tskSTATICALLY_ALLOCATED_STACK_AND_TCB;
 80067ac:	2402      	movs	r4, #2
 80067ae:	f885 405d 	strb.w	r4, [r5, #93]	; 0x5d
			prvInitialiseNewTask( pxTaskCode, pcName, ulStackDepth, pvParameters, uxPriority, &xReturn, pxNewTCB, NULL );
 80067b2:	2400      	movs	r4, #0
 80067b4:	9403      	str	r4, [sp, #12]
 80067b6:	9502      	str	r5, [sp, #8]
 80067b8:	ac05      	add	r4, sp, #20
 80067ba:	9401      	str	r4, [sp, #4]
 80067bc:	9c0a      	ldr	r4, [sp, #40]	; 0x28
 80067be:	9400      	str	r4, [sp, #0]
 80067c0:	f7ff fe72 	bl	80064a8 <prvInitialiseNewTask>
			prvAddNewTaskToReadyList( pxNewTCB );
 80067c4:	980c      	ldr	r0, [sp, #48]	; 0x30
 80067c6:	f7ff febb 	bl	8006540 <prvAddNewTaskToReadyList>
	}
 80067ca:	9805      	ldr	r0, [sp, #20]
 80067cc:	b007      	add	sp, #28
 80067ce:	bd30      	pop	{r4, r5, pc}

080067d0 <xTaskCreate>:
	{
 80067d0:	e92d 43f0 	stmdb	sp!, {r4, r5, r6, r7, r8, r9, lr}
 80067d4:	b085      	sub	sp, #20
 80067d6:	4607      	mov	r7, r0
 80067d8:	4688      	mov	r8, r1
 80067da:	4614      	mov	r4, r2
 80067dc:	461e      	mov	r6, r3
			pxStack = ( StackType_t * ) pvPortMalloc( ( ( ( size_t ) usStackDepth ) * sizeof( StackType_t ) ) ); /*lint !e961 MISRA exception as the casts are only redundant for some ports. */
 80067de:	0090      	lsls	r0, r2, #2
 80067e0:	f001 f842 	bl	8007868 <pvPortMalloc>
			if( pxStack != NULL )
 80067e4:	b308      	cbz	r0, 800682a <xTaskCreate+0x5a>
 80067e6:	4681      	mov	r9, r0
				pxNewTCB = ( TCB_t * ) pvPortMalloc( sizeof( TCB_t ) ); /*lint !e961 MISRA exception as the casts are only redundant for some paths. */
 80067e8:	2060      	movs	r0, #96	; 0x60
 80067ea:	f001 f83d 	bl	8007868 <pvPortMalloc>
				if( pxNewTCB != NULL )
 80067ee:	4605      	mov	r5, r0
 80067f0:	b1a8      	cbz	r0, 800681e <xTaskCreate+0x4e>
					pxNewTCB->pxStack = pxStack;
 80067f2:	f8c0 9030 	str.w	r9, [r0, #48]	; 0x30
				pxNewTCB->ucStaticallyAllocated = tskDYNAMICALLY_ALLOCATED_STACK_AND_TCB;
 80067f6:	2300      	movs	r3, #0
 80067f8:	f880 305d 	strb.w	r3, [r0, #93]	; 0x5d
			prvInitialiseNewTask( pxTaskCode, pcName, ( uint32_t ) usStackDepth, pvParameters, uxPriority, pxCreatedTask, pxNewTCB, NULL );
 80067fc:	9303      	str	r3, [sp, #12]
 80067fe:	9002      	str	r0, [sp, #8]
 8006800:	9b0d      	ldr	r3, [sp, #52]	; 0x34
 8006802:	9301      	str	r3, [sp, #4]
 8006804:	9b0c      	ldr	r3, [sp, #48]	; 0x30
 8006806:	9300      	str	r3, [sp, #0]
 8006808:	4633      	mov	r3, r6
 800680a:	4622      	mov	r2, r4
 800680c:	4641      	mov	r1, r8
 800680e:	4638      	mov	r0, r7
 8006810:	f7ff fe4a 	bl	80064a8 <prvInitialiseNewTask>
			prvAddNewTaskToReadyList( pxNewTCB );
 8006814:	4628      	mov	r0, r5
 8006816:	f7ff fe93 	bl	8006540 <prvAddNewTaskToReadyList>
			xReturn = pdPASS;
 800681a:	2001      	movs	r0, #1
 800681c:	e007      	b.n	800682e <xTaskCreate+0x5e>
					vPortFree( pxStack );
 800681e:	4648      	mov	r0, r9
 8006820:	f001 f8b8 	bl	8007994 <vPortFree>
			xReturn = errCOULD_NOT_ALLOCATE_REQUIRED_MEMORY;
 8006824:	f04f 30ff 	mov.w	r0, #4294967295
 8006828:	e001      	b.n	800682e <xTaskCreate+0x5e>
 800682a:	f04f 30ff 	mov.w	r0, #4294967295
	}
 800682e:	b005      	add	sp, #20
 8006830:	e8bd 83f0 	ldmia.w	sp!, {r4, r5, r6, r7, r8, r9, pc}

08006834 <vTaskStartScheduler>:
{
 8006834:	b510      	push	{r4, lr}
 8006836:	b088      	sub	sp, #32
		StaticTask_t *pxIdleTaskTCBBuffer = NULL;
 8006838:	2400      	movs	r4, #0
 800683a:	9405      	str	r4, [sp, #20]
		StackType_t *pxIdleTaskStackBuffer = NULL;
 800683c:	9406      	str	r4, [sp, #24]
		vApplicationGetIdleTaskMemory( &pxIdleTaskTCBBuffer, &pxIdleTaskStackBuffer, &ulIdleTaskStackSize );
 800683e:	aa07      	add	r2, sp, #28
 8006840:	a906      	add	r1, sp, #24
 8006842:	a805      	add	r0, sp, #20
 8006844:	f7fe ff3e 	bl	80056c4 <vApplicationGetIdleTaskMemory>
		xIdleTaskHandle = xTaskCreateStatic(	prvIdleTask,
 8006848:	9b05      	ldr	r3, [sp, #20]
 800684a:	9302      	str	r3, [sp, #8]
 800684c:	9b06      	ldr	r3, [sp, #24]
 800684e:	9301      	str	r3, [sp, #4]
 8006850:	9400      	str	r4, [sp, #0]
 8006852:	4623      	mov	r3, r4
 8006854:	9a07      	ldr	r2, [sp, #28]
 8006856:	4915      	ldr	r1, [pc, #84]	; (80068ac <vTaskStartScheduler+0x78>)
 8006858:	4815      	ldr	r0, [pc, #84]	; (80068b0 <vTaskStartScheduler+0x7c>)
 800685a:	f7ff ff7f 	bl	800675c <xTaskCreateStatic>
		if( xIdleTaskHandle != NULL )
 800685e:	b310      	cbz	r0, 80068a6 <vTaskStartScheduler+0x72>
			xReturn = xTimerCreateTimerTask();
 8006860:	f000 fca6 	bl	80071b0 <xTimerCreateTimerTask>
	if( xReturn == pdPASS )
 8006864:	2801      	cmp	r0, #1
 8006866:	d00b      	beq.n	8006880 <vTaskStartScheduler+0x4c>
		configASSERT( xReturn != errCOULD_NOT_ALLOCATE_REQUIRED_MEMORY );
 8006868:	f1b0 3fff 	cmp.w	r0, #4294967295
 800686c:	d11b      	bne.n	80068a6 <vTaskStartScheduler+0x72>
 800686e:	f04f 0350 	mov.w	r3, #80	; 0x50
 8006872:	f383 8811 	msr	BASEPRI, r3
 8006876:	f3bf 8f6f 	isb	sy
 800687a:	f3bf 8f4f 	dsb	sy
 800687e:	e7fe      	b.n	800687e <vTaskStartScheduler+0x4a>
 8006880:	f04f 0350 	mov.w	r3, #80	; 0x50
 8006884:	f383 8811 	msr	BASEPRI, r3
 8006888:	f3bf 8f6f 	isb	sy
 800688c:	f3bf 8f4f 	dsb	sy
		xNextTaskUnblockTime = portMAX_DELAY;
 8006890:	4b08      	ldr	r3, [pc, #32]	; (80068b4 <vTaskStartScheduler+0x80>)
 8006892:	f04f 32ff 	mov.w	r2, #4294967295
 8006896:	601a      	str	r2, [r3, #0]
		xSchedulerRunning = pdTRUE;
 8006898:	4b07      	ldr	r3, [pc, #28]	; (80068b8 <vTaskStartScheduler+0x84>)
 800689a:	2201      	movs	r2, #1
 800689c:	601a      	str	r2, [r3, #0]
		xTickCount = ( TickType_t ) 0U;
 800689e:	4b07      	ldr	r3, [pc, #28]	; (80068bc <vTaskStartScheduler+0x88>)
 80068a0:	601c      	str	r4, [r3, #0]
		if( xPortStartScheduler() != pdFALSE )
 80068a2:	f000 ff21 	bl	80076e8 <xPortStartScheduler>
}
 80068a6:	b008      	add	sp, #32
 80068a8:	bd10      	pop	{r4, pc}
 80068aa:	bf00      	nop
 80068ac:	080097a4 	.word	0x080097a4
 80068b0:	08006679 	.word	0x08006679
 80068b4:	20001960 	.word	0x20001960
 80068b8:	2000197c 	.word	0x2000197c
 80068bc:	200019a8 	.word	0x200019a8

080068c0 <vTaskSuspendAll>:
	++uxSchedulerSuspended;
 80068c0:	4a02      	ldr	r2, [pc, #8]	; (80068cc <vTaskSuspendAll+0xc>)
 80068c2:	6813      	ldr	r3, [r2, #0]
 80068c4:	3301      	adds	r3, #1
 80068c6:	6013      	str	r3, [r2, #0]
}
 80068c8:	4770      	bx	lr
 80068ca:	bf00      	nop
 80068cc:	2000192c 	.word	0x2000192c

080068d0 <xTaskGetTickCount>:
		xTicks = xTickCount;
 80068d0:	4b01      	ldr	r3, [pc, #4]	; (80068d8 <xTaskGetTickCount+0x8>)
 80068d2:	6818      	ldr	r0, [r3, #0]
}
 80068d4:	4770      	bx	lr
 80068d6:	bf00      	nop
 80068d8:	200019a8 	.word	0x200019a8

080068dc <xTaskIncrementTick>:
{
 80068dc:	e92d 47f0 	stmdb	sp!, {r4, r5, r6, r7, r8, r9, sl, lr}
	if( uxSchedulerSuspended == ( UBaseType_t ) pdFALSE )
 80068e0:	4b40      	ldr	r3, [pc, #256]	; (80069e4 <xTaskIncrementTick+0x108>)
 80068e2:	681b      	ldr	r3, [r3, #0]
 80068e4:	2b00      	cmp	r3, #0
 80068e6:	d170      	bne.n	80069ca <xTaskIncrementTick+0xee>
		const TickType_t xConstTickCount = xTickCount + ( TickType_t ) 1;
 80068e8:	4b3f      	ldr	r3, [pc, #252]	; (80069e8 <xTaskIncrementTick+0x10c>)
 80068ea:	681e      	ldr	r6, [r3, #0]
 80068ec:	3601      	adds	r6, #1
		xTickCount = xConstTickCount;
 80068ee:	601e      	str	r6, [r3, #0]
		if( xConstTickCount == ( TickType_t ) 0U ) /*lint !e774 'if' does not always evaluate to false as it is looking for an overflow. */
 80068f0:	b9c6      	cbnz	r6, 8006924 <xTaskIncrementTick+0x48>
			taskSWITCH_DELAYED_LISTS();
 80068f2:	4b3e      	ldr	r3, [pc, #248]	; (80069ec <xTaskIncrementTick+0x110>)
 80068f4:	681b      	ldr	r3, [r3, #0]
 80068f6:	681b      	ldr	r3, [r3, #0]
 80068f8:	b143      	cbz	r3, 800690c <xTaskIncrementTick+0x30>
 80068fa:	f04f 0350 	mov.w	r3, #80	; 0x50
 80068fe:	f383 8811 	msr	BASEPRI, r3
 8006902:	f3bf 8f6f 	isb	sy
 8006906:	f3bf 8f4f 	dsb	sy
 800690a:	e7fe      	b.n	800690a <xTaskIncrementTick+0x2e>
 800690c:	4a37      	ldr	r2, [pc, #220]	; (80069ec <xTaskIncrementTick+0x110>)
 800690e:	6811      	ldr	r1, [r2, #0]
 8006910:	4b37      	ldr	r3, [pc, #220]	; (80069f0 <xTaskIncrementTick+0x114>)
 8006912:	6818      	ldr	r0, [r3, #0]
 8006914:	6010      	str	r0, [r2, #0]
 8006916:	6019      	str	r1, [r3, #0]
 8006918:	4a36      	ldr	r2, [pc, #216]	; (80069f4 <xTaskIncrementTick+0x118>)
 800691a:	6813      	ldr	r3, [r2, #0]
 800691c:	3301      	adds	r3, #1
 800691e:	6013      	str	r3, [r2, #0]
 8006920:	f7ff fdac 	bl	800647c <prvResetNextTaskUnblockTime>
		if( xConstTickCount >= xNextTaskUnblockTime )
 8006924:	4b34      	ldr	r3, [pc, #208]	; (80069f8 <xTaskIncrementTick+0x11c>)
 8006926:	681b      	ldr	r3, [r3, #0]
 8006928:	42b3      	cmp	r3, r6
 800692a:	d841      	bhi.n	80069b0 <xTaskIncrementTick+0xd4>
				if( listLIST_IS_EMPTY( pxDelayedTaskList ) != pdFALSE )
 800692c:	4b2f      	ldr	r3, [pc, #188]	; (80069ec <xTaskIncrementTick+0x110>)
 800692e:	681b      	ldr	r3, [r3, #0]
 8006930:	681b      	ldr	r3, [r3, #0]
 8006932:	b13b      	cbz	r3, 8006944 <xTaskIncrementTick+0x68>
BaseType_t xSwitchRequired = pdFALSE;
 8006934:	2500      	movs	r5, #0
					pxTCB = ( TCB_t * ) listGET_OWNER_OF_HEAD_ENTRY( pxDelayedTaskList );
 8006936:	f8df 80b4 	ldr.w	r8, [pc, #180]	; 80069ec <xTaskIncrementTick+0x110>
					prvAddTaskToReadyList( pxTCB );
 800693a:	f8df 90c0 	ldr.w	r9, [pc, #192]	; 80069fc <xTaskIncrementTick+0x120>
 800693e:	f8df a0c0 	ldr.w	sl, [pc, #192]	; 8006a00 <xTaskIncrementTick+0x124>
 8006942:	e022      	b.n	800698a <xTaskIncrementTick+0xae>
BaseType_t xSwitchRequired = pdFALSE;
 8006944:	2500      	movs	r5, #0
					xNextTaskUnblockTime = portMAX_DELAY; /*lint !e961 MISRA exception as the casts are only redundant for some ports. */
 8006946:	4b2c      	ldr	r3, [pc, #176]	; (80069f8 <xTaskIncrementTick+0x11c>)
 8006948:	f04f 32ff 	mov.w	r2, #4294967295
 800694c:	601a      	str	r2, [r3, #0]
					break;
 800694e:	e030      	b.n	80069b2 <xTaskIncrementTick+0xd6>
						xNextTaskUnblockTime = xItemValue;
 8006950:	4a29      	ldr	r2, [pc, #164]	; (80069f8 <xTaskIncrementTick+0x11c>)
 8006952:	6013      	str	r3, [r2, #0]
						break;
 8006954:	e02d      	b.n	80069b2 <xTaskIncrementTick+0xd6>
					prvAddTaskToReadyList( pxTCB );
 8006956:	6ae0      	ldr	r0, [r4, #44]	; 0x2c
 8006958:	f8d9 3000 	ldr.w	r3, [r9]
 800695c:	4298      	cmp	r0, r3
 800695e:	bf88      	it	hi
 8006960:	f8c9 0000 	strhi.w	r0, [r9]
 8006964:	eb00 0080 	add.w	r0, r0, r0, lsl #2
 8006968:	4639      	mov	r1, r7
 800696a:	eb0a 0080 	add.w	r0, sl, r0, lsl #2
 800696e:	f7fe ffe3 	bl	8005938 <vListInsertEnd>
						if( pxTCB->uxPriority >= pxCurrentTCB->uxPriority )
 8006972:	4b24      	ldr	r3, [pc, #144]	; (8006a04 <xTaskIncrementTick+0x128>)
 8006974:	681b      	ldr	r3, [r3, #0]
 8006976:	6ae2      	ldr	r2, [r4, #44]	; 0x2c
 8006978:	6adb      	ldr	r3, [r3, #44]	; 0x2c
							xSwitchRequired = pdTRUE;
 800697a:	429a      	cmp	r2, r3
 800697c:	bf28      	it	cs
 800697e:	2501      	movcs	r5, #1
				if( listLIST_IS_EMPTY( pxDelayedTaskList ) != pdFALSE )
 8006980:	f8d8 3000 	ldr.w	r3, [r8]
 8006984:	681b      	ldr	r3, [r3, #0]
 8006986:	2b00      	cmp	r3, #0
 8006988:	d0dd      	beq.n	8006946 <xTaskIncrementTick+0x6a>
					pxTCB = ( TCB_t * ) listGET_OWNER_OF_HEAD_ENTRY( pxDelayedTaskList );
 800698a:	f8d8 3000 	ldr.w	r3, [r8]
 800698e:	68db      	ldr	r3, [r3, #12]
 8006990:	68dc      	ldr	r4, [r3, #12]
					xItemValue = listGET_LIST_ITEM_VALUE( &( pxTCB->xStateListItem ) );
 8006992:	6863      	ldr	r3, [r4, #4]
					if( xConstTickCount < xItemValue )
 8006994:	429e      	cmp	r6, r3
 8006996:	d3db      	bcc.n	8006950 <xTaskIncrementTick+0x74>
					( void ) uxListRemove( &( pxTCB->xStateListItem ) );
 8006998:	1d27      	adds	r7, r4, #4
 800699a:	4638      	mov	r0, r7
 800699c:	f7fe fff0 	bl	8005980 <uxListRemove>
					if( listLIST_ITEM_CONTAINER( &( pxTCB->xEventListItem ) ) != NULL )
 80069a0:	6aa3      	ldr	r3, [r4, #40]	; 0x28
 80069a2:	2b00      	cmp	r3, #0
 80069a4:	d0d7      	beq.n	8006956 <xTaskIncrementTick+0x7a>
						( void ) uxListRemove( &( pxTCB->xEventListItem ) );
 80069a6:	f104 0018 	add.w	r0, r4, #24
 80069aa:	f7fe ffe9 	bl	8005980 <uxListRemove>
 80069ae:	e7d2      	b.n	8006956 <xTaskIncrementTick+0x7a>
BaseType_t xSwitchRequired = pdFALSE;
 80069b0:	2500      	movs	r5, #0
			if( listCURRENT_LIST_LENGTH( &( pxReadyTasksLists[ pxCurrentTCB->uxPriority ] ) ) > ( UBaseType_t ) 1 )
 80069b2:	4b14      	ldr	r3, [pc, #80]	; (8006a04 <xTaskIncrementTick+0x128>)
 80069b4:	681b      	ldr	r3, [r3, #0]
 80069b6:	6adb      	ldr	r3, [r3, #44]	; 0x2c
 80069b8:	eb03 0383 	add.w	r3, r3, r3, lsl #2
 80069bc:	009b      	lsls	r3, r3, #2
 80069be:	4a10      	ldr	r2, [pc, #64]	; (8006a00 <xTaskIncrementTick+0x124>)
 80069c0:	58d3      	ldr	r3, [r2, r3]
				xSwitchRequired = pdTRUE;
 80069c2:	2b02      	cmp	r3, #2
 80069c4:	bf28      	it	cs
 80069c6:	2501      	movcs	r5, #1
 80069c8:	e004      	b.n	80069d4 <xTaskIncrementTick+0xf8>
		++uxPendedTicks;
 80069ca:	4a0f      	ldr	r2, [pc, #60]	; (8006a08 <xTaskIncrementTick+0x12c>)
 80069cc:	6813      	ldr	r3, [r2, #0]
 80069ce:	3301      	adds	r3, #1
 80069d0:	6013      	str	r3, [r2, #0]
BaseType_t xSwitchRequired = pdFALSE;
 80069d2:	2500      	movs	r5, #0
		if( xYieldPending != pdFALSE )
 80069d4:	4b0d      	ldr	r3, [pc, #52]	; (8006a0c <xTaskIncrementTick+0x130>)
 80069d6:	681b      	ldr	r3, [r3, #0]
			xSwitchRequired = pdTRUE;
 80069d8:	2b00      	cmp	r3, #0
}
 80069da:	bf0c      	ite	eq
 80069dc:	4628      	moveq	r0, r5
 80069de:	2001      	movne	r0, #1
 80069e0:	e8bd 87f0 	ldmia.w	sp!, {r4, r5, r6, r7, r8, r9, sl, pc}
 80069e4:	2000192c 	.word	0x2000192c
 80069e8:	200019a8 	.word	0x200019a8
 80069ec:	200014b8 	.word	0x200014b8
 80069f0:	200014bc 	.word	0x200014bc
 80069f4:	20001964 	.word	0x20001964
 80069f8:	20001960 	.word	0x20001960
 80069fc:	20001934 	.word	0x20001934
 8006a00:	200014c0 	.word	0x200014c0
 8006a04:	200014b4 	.word	0x200014b4
 8006a08:	20001928 	.word	0x20001928
 8006a0c:	200019ac 	.word	0x200019ac

08006a10 <xTaskResumeAll>:
	configASSERT( uxSchedulerSuspended );
 8006a10:	4b38      	ldr	r3, [pc, #224]	; (8006af4 <xTaskResumeAll+0xe4>)
 8006a12:	681b      	ldr	r3, [r3, #0]
 8006a14:	b943      	cbnz	r3, 8006a28 <xTaskResumeAll+0x18>
 8006a16:	f04f 0350 	mov.w	r3, #80	; 0x50
 8006a1a:	f383 8811 	msr	BASEPRI, r3
 8006a1e:	f3bf 8f6f 	isb	sy
 8006a22:	f3bf 8f4f 	dsb	sy
 8006a26:	e7fe      	b.n	8006a26 <xTaskResumeAll+0x16>
{
 8006a28:	e92d 41f0 	stmdb	sp!, {r4, r5, r6, r7, r8, lr}
	taskENTER_CRITICAL();
 8006a2c:	f000 fdd2 	bl	80075d4 <vPortEnterCritical>
		--uxSchedulerSuspended;
 8006a30:	4b30      	ldr	r3, [pc, #192]	; (8006af4 <xTaskResumeAll+0xe4>)
 8006a32:	681a      	ldr	r2, [r3, #0]
 8006a34:	3a01      	subs	r2, #1
 8006a36:	601a      	str	r2, [r3, #0]
		if( uxSchedulerSuspended == ( UBaseType_t ) pdFALSE )
 8006a38:	681b      	ldr	r3, [r3, #0]
 8006a3a:	2b00      	cmp	r3, #0
 8006a3c:	d149      	bne.n	8006ad2 <xTaskResumeAll+0xc2>
			if( uxCurrentNumberOfTasks > ( UBaseType_t ) 0U )
 8006a3e:	4b2e      	ldr	r3, [pc, #184]	; (8006af8 <xTaskResumeAll+0xe8>)
 8006a40:	681b      	ldr	r3, [r3, #0]
 8006a42:	2b00      	cmp	r3, #0
 8006a44:	d04b      	beq.n	8006ade <xTaskResumeAll+0xce>
				while( listLIST_IS_EMPTY( &xPendingReadyList ) == pdFALSE )
 8006a46:	4b2d      	ldr	r3, [pc, #180]	; (8006afc <xTaskResumeAll+0xec>)
 8006a48:	681b      	ldr	r3, [r3, #0]
 8006a4a:	2b00      	cmp	r3, #0
 8006a4c:	d04b      	beq.n	8006ae6 <xTaskResumeAll+0xd6>
					pxTCB = ( TCB_t * ) listGET_OWNER_OF_HEAD_ENTRY( ( &xPendingReadyList ) );
 8006a4e:	4e2b      	ldr	r6, [pc, #172]	; (8006afc <xTaskResumeAll+0xec>)
					prvAddTaskToReadyList( pxTCB );
 8006a50:	4f2b      	ldr	r7, [pc, #172]	; (8006b00 <xTaskResumeAll+0xf0>)
 8006a52:	f8df 80b0 	ldr.w	r8, [pc, #176]	; 8006b04 <xTaskResumeAll+0xf4>
 8006a56:	e002      	b.n	8006a5e <xTaskResumeAll+0x4e>
				while( listLIST_IS_EMPTY( &xPendingReadyList ) == pdFALSE )
 8006a58:	6833      	ldr	r3, [r6, #0]
 8006a5a:	2b00      	cmp	r3, #0
 8006a5c:	d041      	beq.n	8006ae2 <xTaskResumeAll+0xd2>
					pxTCB = ( TCB_t * ) listGET_OWNER_OF_HEAD_ENTRY( ( &xPendingReadyList ) );
 8006a5e:	68f3      	ldr	r3, [r6, #12]
 8006a60:	68dc      	ldr	r4, [r3, #12]
					( void ) uxListRemove( &( pxTCB->xEventListItem ) );
 8006a62:	f104 0018 	add.w	r0, r4, #24
 8006a66:	f7fe ff8b 	bl	8005980 <uxListRemove>
					( void ) uxListRemove( &( pxTCB->xStateListItem ) );
 8006a6a:	1d25      	adds	r5, r4, #4
 8006a6c:	4628      	mov	r0, r5
 8006a6e:	f7fe ff87 	bl	8005980 <uxListRemove>
					prvAddTaskToReadyList( pxTCB );
 8006a72:	6ae0      	ldr	r0, [r4, #44]	; 0x2c
 8006a74:	683b      	ldr	r3, [r7, #0]
 8006a76:	4298      	cmp	r0, r3
 8006a78:	bf88      	it	hi
 8006a7a:	6038      	strhi	r0, [r7, #0]
 8006a7c:	eb00 0080 	add.w	r0, r0, r0, lsl #2
 8006a80:	4629      	mov	r1, r5
 8006a82:	eb08 0080 	add.w	r0, r8, r0, lsl #2
 8006a86:	f7fe ff57 	bl	8005938 <vListInsertEnd>
					if( pxTCB->uxPriority >= pxCurrentTCB->uxPriority )
 8006a8a:	4b1f      	ldr	r3, [pc, #124]	; (8006b08 <xTaskResumeAll+0xf8>)
 8006a8c:	681b      	ldr	r3, [r3, #0]
 8006a8e:	6ae2      	ldr	r2, [r4, #44]	; 0x2c
 8006a90:	6adb      	ldr	r3, [r3, #44]	; 0x2c
 8006a92:	429a      	cmp	r2, r3
 8006a94:	d3e0      	bcc.n	8006a58 <xTaskResumeAll+0x48>
						xYieldPending = pdTRUE;
 8006a96:	4b1d      	ldr	r3, [pc, #116]	; (8006b0c <xTaskResumeAll+0xfc>)
 8006a98:	2201      	movs	r2, #1
 8006a9a:	601a      	str	r2, [r3, #0]
 8006a9c:	e7dc      	b.n	8006a58 <xTaskResumeAll+0x48>
						} while( uxPendedCounts > ( UBaseType_t ) 0U );
 8006a9e:	3c01      	subs	r4, #1
 8006aa0:	d005      	beq.n	8006aae <xTaskResumeAll+0x9e>
							if( xTaskIncrementTick() != pdFALSE )
 8006aa2:	f7ff ff1b 	bl	80068dc <xTaskIncrementTick>
 8006aa6:	2800      	cmp	r0, #0
 8006aa8:	d0f9      	beq.n	8006a9e <xTaskResumeAll+0x8e>
								xYieldPending = pdTRUE;
 8006aaa:	6035      	str	r5, [r6, #0]
 8006aac:	e7f7      	b.n	8006a9e <xTaskResumeAll+0x8e>
						uxPendedTicks = 0;
 8006aae:	4b18      	ldr	r3, [pc, #96]	; (8006b10 <xTaskResumeAll+0x100>)
 8006ab0:	2200      	movs	r2, #0
 8006ab2:	601a      	str	r2, [r3, #0]
				if( xYieldPending != pdFALSE )
 8006ab4:	4b15      	ldr	r3, [pc, #84]	; (8006b0c <xTaskResumeAll+0xfc>)
 8006ab6:	681c      	ldr	r4, [r3, #0]
 8006ab8:	b164      	cbz	r4, 8006ad4 <xTaskResumeAll+0xc4>
					taskYIELD_IF_USING_PREEMPTION();
 8006aba:	f04f 23e0 	mov.w	r3, #3758153728	; 0xe000e000
 8006abe:	f04f 5280 	mov.w	r2, #268435456	; 0x10000000
 8006ac2:	f8c3 2d04 	str.w	r2, [r3, #3332]	; 0xd04
 8006ac6:	f3bf 8f4f 	dsb	sy
 8006aca:	f3bf 8f6f 	isb	sy
						xAlreadyYielded = pdTRUE;
 8006ace:	2401      	movs	r4, #1
 8006ad0:	e000      	b.n	8006ad4 <xTaskResumeAll+0xc4>
BaseType_t xAlreadyYielded = pdFALSE;
 8006ad2:	2400      	movs	r4, #0
	taskEXIT_CRITICAL();
 8006ad4:	f000 fda0 	bl	8007618 <vPortExitCritical>
}
 8006ad8:	4620      	mov	r0, r4
 8006ada:	e8bd 81f0 	ldmia.w	sp!, {r4, r5, r6, r7, r8, pc}
BaseType_t xAlreadyYielded = pdFALSE;
 8006ade:	2400      	movs	r4, #0
 8006ae0:	e7f8      	b.n	8006ad4 <xTaskResumeAll+0xc4>
					prvResetNextTaskUnblockTime();
 8006ae2:	f7ff fccb 	bl	800647c <prvResetNextTaskUnblockTime>
					UBaseType_t uxPendedCounts = uxPendedTicks; /* Non-volatile copy. */
 8006ae6:	4b0a      	ldr	r3, [pc, #40]	; (8006b10 <xTaskResumeAll+0x100>)
 8006ae8:	681c      	ldr	r4, [r3, #0]
					if( uxPendedCounts > ( UBaseType_t ) 0U )
 8006aea:	2c00      	cmp	r4, #0
 8006aec:	d0e2      	beq.n	8006ab4 <xTaskResumeAll+0xa4>
								xYieldPending = pdTRUE;
 8006aee:	4e07      	ldr	r6, [pc, #28]	; (8006b0c <xTaskResumeAll+0xfc>)
 8006af0:	2501      	movs	r5, #1
 8006af2:	e7d6      	b.n	8006aa2 <xTaskResumeAll+0x92>
 8006af4:	2000192c 	.word	0x2000192c
 8006af8:	20001920 	.word	0x20001920
 8006afc:	20001968 	.word	0x20001968
 8006b00:	20001934 	.word	0x20001934
 8006b04:	200014c0 	.word	0x200014c0
 8006b08:	200014b4 	.word	0x200014b4
 8006b0c:	200019ac 	.word	0x200019ac
 8006b10:	20001928 	.word	0x20001928

08006b14 <vTaskDelayUntil>:
	{
 8006b14:	b538      	push	{r3, r4, r5, lr}
		configASSERT( pxPreviousWakeTime );
 8006b16:	b158      	cbz	r0, 8006b30 <vTaskDelayUntil+0x1c>
 8006b18:	460c      	mov	r4, r1
 8006b1a:	4605      	mov	r5, r0
		configASSERT( ( xTimeIncrement > 0U ) );
 8006b1c:	b989      	cbnz	r1, 8006b42 <vTaskDelayUntil+0x2e>
 8006b1e:	f04f 0350 	mov.w	r3, #80	; 0x50
 8006b22:	f383 8811 	msr	BASEPRI, r3
 8006b26:	f3bf 8f6f 	isb	sy
 8006b2a:	f3bf 8f4f 	dsb	sy
 8006b2e:	e7fe      	b.n	8006b2e <vTaskDelayUntil+0x1a>
 8006b30:	f04f 0350 	mov.w	r3, #80	; 0x50
 8006b34:	f383 8811 	msr	BASEPRI, r3
 8006b38:	f3bf 8f6f 	isb	sy
 8006b3c:	f3bf 8f4f 	dsb	sy
		configASSERT( pxPreviousWakeTime );
 8006b40:	e7fe      	b.n	8006b40 <vTaskDelayUntil+0x2c>
		configASSERT( uxSchedulerSuspended == 0 );
 8006b42:	4b1a      	ldr	r3, [pc, #104]	; (8006bac <vTaskDelayUntil+0x98>)
 8006b44:	681b      	ldr	r3, [r3, #0]
 8006b46:	b143      	cbz	r3, 8006b5a <vTaskDelayUntil+0x46>
 8006b48:	f04f 0350 	mov.w	r3, #80	; 0x50
 8006b4c:	f383 8811 	msr	BASEPRI, r3
 8006b50:	f3bf 8f6f 	isb	sy
 8006b54:	f3bf 8f4f 	dsb	sy
 8006b58:	e7fe      	b.n	8006b58 <vTaskDelayUntil+0x44>
		vTaskSuspendAll();
 8006b5a:	f7ff feb1 	bl	80068c0 <vTaskSuspendAll>
			const TickType_t xConstTickCount = xTickCount;
 8006b5e:	4b14      	ldr	r3, [pc, #80]	; (8006bb0 <vTaskDelayUntil+0x9c>)
 8006b60:	6818      	ldr	r0, [r3, #0]
			xTimeToWake = *pxPreviousWakeTime + xTimeIncrement;
 8006b62:	682b      	ldr	r3, [r5, #0]
 8006b64:	441c      	add	r4, r3
			if( xConstTickCount < *pxPreviousWakeTime )
 8006b66:	4283      	cmp	r3, r0
 8006b68:	d907      	bls.n	8006b7a <vTaskDelayUntil+0x66>
				if( ( xTimeToWake < *pxPreviousWakeTime ) && ( xTimeToWake > xConstTickCount ) )
 8006b6a:	42a3      	cmp	r3, r4
 8006b6c:	d801      	bhi.n	8006b72 <vTaskDelayUntil+0x5e>
			*pxPreviousWakeTime = xTimeToWake;
 8006b6e:	602c      	str	r4, [r5, #0]
			if( xShouldDelay != pdFALSE )
 8006b70:	e00e      	b.n	8006b90 <vTaskDelayUntil+0x7c>
				if( ( xTimeToWake < *pxPreviousWakeTime ) && ( xTimeToWake > xConstTickCount ) )
 8006b72:	42a0      	cmp	r0, r4
 8006b74:	d307      	bcc.n	8006b86 <vTaskDelayUntil+0x72>
			*pxPreviousWakeTime = xTimeToWake;
 8006b76:	602c      	str	r4, [r5, #0]
			if( xShouldDelay != pdFALSE )
 8006b78:	e00a      	b.n	8006b90 <vTaskDelayUntil+0x7c>
				if( ( xTimeToWake < *pxPreviousWakeTime ) || ( xTimeToWake > xConstTickCount ) )
 8006b7a:	42a3      	cmp	r3, r4
 8006b7c:	d803      	bhi.n	8006b86 <vTaskDelayUntil+0x72>
 8006b7e:	42a0      	cmp	r0, r4
 8006b80:	d301      	bcc.n	8006b86 <vTaskDelayUntil+0x72>
			*pxPreviousWakeTime = xTimeToWake;
 8006b82:	602c      	str	r4, [r5, #0]
			if( xShouldDelay != pdFALSE )
 8006b84:	e004      	b.n	8006b90 <vTaskDelayUntil+0x7c>
			*pxPreviousWakeTime = xTimeToWake;
 8006b86:	602c      	str	r4, [r5, #0]
				prvAddCurrentTaskToDelayedList( xTimeToWake - xConstTickCount, pdFALSE );
 8006b88:	2100      	movs	r1, #0
 8006b8a:	1a20      	subs	r0, r4, r0
 8006b8c:	f7ff fda8 	bl	80066e0 <prvAddCurrentTaskToDelayedList>
		xAlreadyYielded = xTaskResumeAll();
 8006b90:	f7ff ff3e 	bl	8006a10 <xTaskResumeAll>
		if( xAlreadyYielded == pdFALSE )
 8006b94:	b948      	cbnz	r0, 8006baa <vTaskDelayUntil+0x96>
			portYIELD_WITHIN_API();
 8006b96:	f04f 23e0 	mov.w	r3, #3758153728	; 0xe000e000
 8006b9a:	f04f 5280 	mov.w	r2, #268435456	; 0x10000000
 8006b9e:	f8c3 2d04 	str.w	r2, [r3, #3332]	; 0xd04
 8006ba2:	f3bf 8f4f 	dsb	sy
 8006ba6:	f3bf 8f6f 	isb	sy
	}
 8006baa:	bd38      	pop	{r3, r4, r5, pc}
 8006bac:	2000192c 	.word	0x2000192c
 8006bb0:	200019a8 	.word	0x200019a8

08006bb4 <vTaskSwitchContext>:
	if( uxSchedulerSuspended != ( UBaseType_t ) pdFALSE )
 8006bb4:	4b22      	ldr	r3, [pc, #136]	; (8006c40 <vTaskSwitchContext+0x8c>)
 8006bb6:	681b      	ldr	r3, [r3, #0]
 8006bb8:	b11b      	cbz	r3, 8006bc2 <vTaskSwitchContext+0xe>
		xYieldPending = pdTRUE;
 8006bba:	4b22      	ldr	r3, [pc, #136]	; (8006c44 <vTaskSwitchContext+0x90>)
 8006bbc:	2201      	movs	r2, #1
 8006bbe:	601a      	str	r2, [r3, #0]
 8006bc0:	4770      	bx	lr
		xYieldPending = pdFALSE;
 8006bc2:	4b20      	ldr	r3, [pc, #128]	; (8006c44 <vTaskSwitchContext+0x90>)
 8006bc4:	2200      	movs	r2, #0
 8006bc6:	601a      	str	r2, [r3, #0]
		taskSELECT_HIGHEST_PRIORITY_TASK();
 8006bc8:	4b1f      	ldr	r3, [pc, #124]	; (8006c48 <vTaskSwitchContext+0x94>)
 8006bca:	681b      	ldr	r3, [r3, #0]
 8006bcc:	eb03 0283 	add.w	r2, r3, r3, lsl #2
 8006bd0:	0092      	lsls	r2, r2, #2
 8006bd2:	491e      	ldr	r1, [pc, #120]	; (8006c4c <vTaskSwitchContext+0x98>)
 8006bd4:	588a      	ldr	r2, [r1, r2]
 8006bd6:	b98a      	cbnz	r2, 8006bfc <vTaskSwitchContext+0x48>
 8006bd8:	b13b      	cbz	r3, 8006bea <vTaskSwitchContext+0x36>
 8006bda:	3b01      	subs	r3, #1
 8006bdc:	eb03 0283 	add.w	r2, r3, r3, lsl #2
 8006be0:	f851 2022 	ldr.w	r2, [r1, r2, lsl #2]
 8006be4:	b952      	cbnz	r2, 8006bfc <vTaskSwitchContext+0x48>
 8006be6:	2b00      	cmp	r3, #0
 8006be8:	d1f7      	bne.n	8006bda <vTaskSwitchContext+0x26>
 8006bea:	f04f 0350 	mov.w	r3, #80	; 0x50
 8006bee:	f383 8811 	msr	BASEPRI, r3
 8006bf2:	f3bf 8f6f 	isb	sy
 8006bf6:	f3bf 8f4f 	dsb	sy
 8006bfa:	e7fe      	b.n	8006bfa <vTaskSwitchContext+0x46>
 8006bfc:	4a13      	ldr	r2, [pc, #76]	; (8006c4c <vTaskSwitchContext+0x98>)
 8006bfe:	eb03 0183 	add.w	r1, r3, r3, lsl #2
 8006c02:	eb02 0181 	add.w	r1, r2, r1, lsl #2
 8006c06:	6848      	ldr	r0, [r1, #4]
 8006c08:	6840      	ldr	r0, [r0, #4]
 8006c0a:	6048      	str	r0, [r1, #4]
 8006c0c:	eb03 0183 	add.w	r1, r3, r3, lsl #2
 8006c10:	eb02 0281 	add.w	r2, r2, r1, lsl #2
 8006c14:	3208      	adds	r2, #8
 8006c16:	4290      	cmp	r0, r2
 8006c18:	d00b      	beq.n	8006c32 <vTaskSwitchContext+0x7e>
 8006c1a:	eb03 0183 	add.w	r1, r3, r3, lsl #2
 8006c1e:	4a0b      	ldr	r2, [pc, #44]	; (8006c4c <vTaskSwitchContext+0x98>)
 8006c20:	eb02 0281 	add.w	r2, r2, r1, lsl #2
 8006c24:	6852      	ldr	r2, [r2, #4]
 8006c26:	68d1      	ldr	r1, [r2, #12]
 8006c28:	4a09      	ldr	r2, [pc, #36]	; (8006c50 <vTaskSwitchContext+0x9c>)
 8006c2a:	6011      	str	r1, [r2, #0]
 8006c2c:	4a06      	ldr	r2, [pc, #24]	; (8006c48 <vTaskSwitchContext+0x94>)
 8006c2e:	6013      	str	r3, [r2, #0]
}
 8006c30:	4770      	bx	lr
		taskSELECT_HIGHEST_PRIORITY_TASK();
 8006c32:	6840      	ldr	r0, [r0, #4]
 8006c34:	4a05      	ldr	r2, [pc, #20]	; (8006c4c <vTaskSwitchContext+0x98>)
 8006c36:	eb02 0281 	add.w	r2, r2, r1, lsl #2
 8006c3a:	6050      	str	r0, [r2, #4]
 8006c3c:	e7ed      	b.n	8006c1a <vTaskSwitchContext+0x66>
 8006c3e:	bf00      	nop
 8006c40:	2000192c 	.word	0x2000192c
 8006c44:	200019ac 	.word	0x200019ac
 8006c48:	20001934 	.word	0x20001934
 8006c4c:	200014c0 	.word	0x200014c0
 8006c50:	200014b4 	.word	0x200014b4

08006c54 <vTaskPlaceOnEventList>:
	configASSERT( pxEventList );
 8006c54:	b158      	cbz	r0, 8006c6e <vTaskPlaceOnEventList+0x1a>
{
 8006c56:	b510      	push	{r4, lr}
 8006c58:	460c      	mov	r4, r1
	vListInsert( pxEventList, &( pxCurrentTCB->xEventListItem ) );
 8006c5a:	4a09      	ldr	r2, [pc, #36]	; (8006c80 <vTaskPlaceOnEventList+0x2c>)
 8006c5c:	6811      	ldr	r1, [r2, #0]
 8006c5e:	3118      	adds	r1, #24
 8006c60:	f7fe fe75 	bl	800594e <vListInsert>
	prvAddCurrentTaskToDelayedList( xTicksToWait, pdTRUE );
 8006c64:	2101      	movs	r1, #1
 8006c66:	4620      	mov	r0, r4
 8006c68:	f7ff fd3a 	bl	80066e0 <prvAddCurrentTaskToDelayedList>
}
 8006c6c:	bd10      	pop	{r4, pc}
 8006c6e:	f04f 0350 	mov.w	r3, #80	; 0x50
 8006c72:	f383 8811 	msr	BASEPRI, r3
 8006c76:	f3bf 8f6f 	isb	sy
 8006c7a:	f3bf 8f4f 	dsb	sy
	configASSERT( pxEventList );
 8006c7e:	e7fe      	b.n	8006c7e <vTaskPlaceOnEventList+0x2a>
 8006c80:	200014b4 	.word	0x200014b4

08006c84 <vTaskPlaceOnUnorderedEventList>:
	configASSERT( pxEventList );
 8006c84:	b170      	cbz	r0, 8006ca4 <vTaskPlaceOnUnorderedEventList+0x20>
{
 8006c86:	b510      	push	{r4, lr}
 8006c88:	4614      	mov	r4, r2
 8006c8a:	4602      	mov	r2, r0
	configASSERT( uxSchedulerSuspended != 0 );
 8006c8c:	4b11      	ldr	r3, [pc, #68]	; (8006cd4 <vTaskPlaceOnUnorderedEventList+0x50>)
 8006c8e:	681b      	ldr	r3, [r3, #0]
 8006c90:	b98b      	cbnz	r3, 8006cb6 <vTaskPlaceOnUnorderedEventList+0x32>
 8006c92:	f04f 0350 	mov.w	r3, #80	; 0x50
 8006c96:	f383 8811 	msr	BASEPRI, r3
 8006c9a:	f3bf 8f6f 	isb	sy
 8006c9e:	f3bf 8f4f 	dsb	sy
 8006ca2:	e7fe      	b.n	8006ca2 <vTaskPlaceOnUnorderedEventList+0x1e>
 8006ca4:	f04f 0350 	mov.w	r3, #80	; 0x50
 8006ca8:	f383 8811 	msr	BASEPRI, r3
 8006cac:	f3bf 8f6f 	isb	sy
 8006cb0:	f3bf 8f4f 	dsb	sy
	configASSERT( pxEventList );
 8006cb4:	e7fe      	b.n	8006cb4 <vTaskPlaceOnUnorderedEventList+0x30>
	listSET_LIST_ITEM_VALUE( &( pxCurrentTCB->xEventListItem ), xItemValue | taskEVENT_LIST_ITEM_VALUE_IN_USE );
 8006cb6:	4b08      	ldr	r3, [pc, #32]	; (8006cd8 <vTaskPlaceOnUnorderedEventList+0x54>)
 8006cb8:	6818      	ldr	r0, [r3, #0]
 8006cba:	f041 4100 	orr.w	r1, r1, #2147483648	; 0x80000000
 8006cbe:	6181      	str	r1, [r0, #24]
	vListInsertEnd( pxEventList, &( pxCurrentTCB->xEventListItem ) );
 8006cc0:	6819      	ldr	r1, [r3, #0]
 8006cc2:	3118      	adds	r1, #24
 8006cc4:	4610      	mov	r0, r2
 8006cc6:	f7fe fe37 	bl	8005938 <vListInsertEnd>
	prvAddCurrentTaskToDelayedList( xTicksToWait, pdTRUE );
 8006cca:	2101      	movs	r1, #1
 8006ccc:	4620      	mov	r0, r4
 8006cce:	f7ff fd07 	bl	80066e0 <prvAddCurrentTaskToDelayedList>
}
 8006cd2:	bd10      	pop	{r4, pc}
 8006cd4:	2000192c 	.word	0x2000192c
 8006cd8:	200014b4 	.word	0x200014b4

08006cdc <vTaskPlaceOnEventListRestricted>:
	{
 8006cdc:	b538      	push	{r3, r4, r5, lr}
		configASSERT( pxEventList );
 8006cde:	b178      	cbz	r0, 8006d00 <vTaskPlaceOnEventListRestricted+0x24>
 8006ce0:	460d      	mov	r5, r1
 8006ce2:	4614      	mov	r4, r2
		vListInsertEnd( pxEventList, &( pxCurrentTCB->xEventListItem ) );
 8006ce4:	4a0b      	ldr	r2, [pc, #44]	; (8006d14 <vTaskPlaceOnEventListRestricted+0x38>)
 8006ce6:	6811      	ldr	r1, [r2, #0]
 8006ce8:	3118      	adds	r1, #24
 8006cea:	f7fe fe25 	bl	8005938 <vListInsertEnd>
			xTicksToWait = portMAX_DELAY;
 8006cee:	2c00      	cmp	r4, #0
		prvAddCurrentTaskToDelayedList( xTicksToWait, xWaitIndefinitely );
 8006cf0:	4621      	mov	r1, r4
 8006cf2:	bf0c      	ite	eq
 8006cf4:	4628      	moveq	r0, r5
 8006cf6:	f04f 30ff 	movne.w	r0, #4294967295
 8006cfa:	f7ff fcf1 	bl	80066e0 <prvAddCurrentTaskToDelayedList>
	}
 8006cfe:	bd38      	pop	{r3, r4, r5, pc}
 8006d00:	f04f 0350 	mov.w	r3, #80	; 0x50
 8006d04:	f383 8811 	msr	BASEPRI, r3
 8006d08:	f3bf 8f6f 	isb	sy
 8006d0c:	f3bf 8f4f 	dsb	sy
		configASSERT( pxEventList );
 8006d10:	e7fe      	b.n	8006d10 <vTaskPlaceOnEventListRestricted+0x34>
 8006d12:	bf00      	nop
 8006d14:	200014b4 	.word	0x200014b4

08006d18 <xTaskRemoveFromEventList>:
{
 8006d18:	b538      	push	{r3, r4, r5, lr}
	pxUnblockedTCB = ( TCB_t * ) listGET_OWNER_OF_HEAD_ENTRY( pxEventList );
 8006d1a:	68c3      	ldr	r3, [r0, #12]
 8006d1c:	68dc      	ldr	r4, [r3, #12]
	configASSERT( pxUnblockedTCB );
 8006d1e:	b32c      	cbz	r4, 8006d6c <xTaskRemoveFromEventList+0x54>
	( void ) uxListRemove( &( pxUnblockedTCB->xEventListItem ) );
 8006d20:	f104 0518 	add.w	r5, r4, #24
 8006d24:	4628      	mov	r0, r5
 8006d26:	f7fe fe2b 	bl	8005980 <uxListRemove>
	if( uxSchedulerSuspended == ( UBaseType_t ) pdFALSE )
 8006d2a:	4b17      	ldr	r3, [pc, #92]	; (8006d88 <xTaskRemoveFromEventList+0x70>)
 8006d2c:	681b      	ldr	r3, [r3, #0]
 8006d2e:	bb33      	cbnz	r3, 8006d7e <xTaskRemoveFromEventList+0x66>
		( void ) uxListRemove( &( pxUnblockedTCB->xStateListItem ) );
 8006d30:	1d25      	adds	r5, r4, #4
 8006d32:	4628      	mov	r0, r5
 8006d34:	f7fe fe24 	bl	8005980 <uxListRemove>
		prvAddTaskToReadyList( pxUnblockedTCB );
 8006d38:	6ae0      	ldr	r0, [r4, #44]	; 0x2c
 8006d3a:	4b14      	ldr	r3, [pc, #80]	; (8006d8c <xTaskRemoveFromEventList+0x74>)
 8006d3c:	681b      	ldr	r3, [r3, #0]
 8006d3e:	4298      	cmp	r0, r3
 8006d40:	bf84      	itt	hi
 8006d42:	4b12      	ldrhi	r3, [pc, #72]	; (8006d8c <xTaskRemoveFromEventList+0x74>)
 8006d44:	6018      	strhi	r0, [r3, #0]
 8006d46:	eb00 0080 	add.w	r0, r0, r0, lsl #2
 8006d4a:	4629      	mov	r1, r5
 8006d4c:	4b10      	ldr	r3, [pc, #64]	; (8006d90 <xTaskRemoveFromEventList+0x78>)
 8006d4e:	eb03 0080 	add.w	r0, r3, r0, lsl #2
 8006d52:	f7fe fdf1 	bl	8005938 <vListInsertEnd>
	if( pxUnblockedTCB->uxPriority > pxCurrentTCB->uxPriority )
 8006d56:	4b0f      	ldr	r3, [pc, #60]	; (8006d94 <xTaskRemoveFromEventList+0x7c>)
 8006d58:	681b      	ldr	r3, [r3, #0]
 8006d5a:	6ae2      	ldr	r2, [r4, #44]	; 0x2c
 8006d5c:	6adb      	ldr	r3, [r3, #44]	; 0x2c
 8006d5e:	429a      	cmp	r2, r3
		xYieldPending = pdTRUE;
 8006d60:	bf83      	ittte	hi
 8006d62:	2001      	movhi	r0, #1
 8006d64:	4b0c      	ldrhi	r3, [pc, #48]	; (8006d98 <xTaskRemoveFromEventList+0x80>)
 8006d66:	6018      	strhi	r0, [r3, #0]
		xReturn = pdFALSE;
 8006d68:	2000      	movls	r0, #0
}
 8006d6a:	bd38      	pop	{r3, r4, r5, pc}
 8006d6c:	f04f 0350 	mov.w	r3, #80	; 0x50
 8006d70:	f383 8811 	msr	BASEPRI, r3
 8006d74:	f3bf 8f6f 	isb	sy
 8006d78:	f3bf 8f4f 	dsb	sy
	configASSERT( pxUnblockedTCB );
 8006d7c:	e7fe      	b.n	8006d7c <xTaskRemoveFromEventList+0x64>
		vListInsertEnd( &( xPendingReadyList ), &( pxUnblockedTCB->xEventListItem ) );
 8006d7e:	4629      	mov	r1, r5
 8006d80:	4806      	ldr	r0, [pc, #24]	; (8006d9c <xTaskRemoveFromEventList+0x84>)
 8006d82:	f7fe fdd9 	bl	8005938 <vListInsertEnd>
 8006d86:	e7e6      	b.n	8006d56 <xTaskRemoveFromEventList+0x3e>
 8006d88:	2000192c 	.word	0x2000192c
 8006d8c:	20001934 	.word	0x20001934
 8006d90:	200014c0 	.word	0x200014c0
 8006d94:	200014b4 	.word	0x200014b4
 8006d98:	200019ac 	.word	0x200019ac
 8006d9c:	20001968 	.word	0x20001968

08006da0 <vTaskRemoveFromUnorderedEventList>:
{
 8006da0:	b538      	push	{r3, r4, r5, lr}
	configASSERT( uxSchedulerSuspended != pdFALSE );
 8006da2:	4b1c      	ldr	r3, [pc, #112]	; (8006e14 <vTaskRemoveFromUnorderedEventList+0x74>)
 8006da4:	681b      	ldr	r3, [r3, #0]
 8006da6:	b943      	cbnz	r3, 8006dba <vTaskRemoveFromUnorderedEventList+0x1a>
 8006da8:	f04f 0350 	mov.w	r3, #80	; 0x50
 8006dac:	f383 8811 	msr	BASEPRI, r3
 8006db0:	f3bf 8f6f 	isb	sy
 8006db4:	f3bf 8f4f 	dsb	sy
 8006db8:	e7fe      	b.n	8006db8 <vTaskRemoveFromUnorderedEventList+0x18>
	listSET_LIST_ITEM_VALUE( pxEventListItem, xItemValue | taskEVENT_LIST_ITEM_VALUE_IN_USE );
 8006dba:	f041 4100 	orr.w	r1, r1, #2147483648	; 0x80000000
 8006dbe:	6001      	str	r1, [r0, #0]
	pxUnblockedTCB = ( TCB_t * ) listGET_LIST_ITEM_OWNER( pxEventListItem );
 8006dc0:	68c4      	ldr	r4, [r0, #12]
	configASSERT( pxUnblockedTCB );
 8006dc2:	b1f4      	cbz	r4, 8006e02 <vTaskRemoveFromUnorderedEventList+0x62>
	( void ) uxListRemove( pxEventListItem );
 8006dc4:	f7fe fddc 	bl	8005980 <uxListRemove>
	( void ) uxListRemove( &( pxUnblockedTCB->xStateListItem ) );
 8006dc8:	1d25      	adds	r5, r4, #4
 8006dca:	4628      	mov	r0, r5
 8006dcc:	f7fe fdd8 	bl	8005980 <uxListRemove>
	prvAddTaskToReadyList( pxUnblockedTCB );
 8006dd0:	6ae0      	ldr	r0, [r4, #44]	; 0x2c
 8006dd2:	4b11      	ldr	r3, [pc, #68]	; (8006e18 <vTaskRemoveFromUnorderedEventList+0x78>)
 8006dd4:	681b      	ldr	r3, [r3, #0]
 8006dd6:	4298      	cmp	r0, r3
 8006dd8:	bf84      	itt	hi
 8006dda:	4b0f      	ldrhi	r3, [pc, #60]	; (8006e18 <vTaskRemoveFromUnorderedEventList+0x78>)
 8006ddc:	6018      	strhi	r0, [r3, #0]
 8006dde:	eb00 0080 	add.w	r0, r0, r0, lsl #2
 8006de2:	4629      	mov	r1, r5
 8006de4:	4b0d      	ldr	r3, [pc, #52]	; (8006e1c <vTaskRemoveFromUnorderedEventList+0x7c>)
 8006de6:	eb03 0080 	add.w	r0, r3, r0, lsl #2
 8006dea:	f7fe fda5 	bl	8005938 <vListInsertEnd>
	if( pxUnblockedTCB->uxPriority > pxCurrentTCB->uxPriority )
 8006dee:	4b0c      	ldr	r3, [pc, #48]	; (8006e20 <vTaskRemoveFromUnorderedEventList+0x80>)
 8006df0:	681b      	ldr	r3, [r3, #0]
 8006df2:	6ae2      	ldr	r2, [r4, #44]	; 0x2c
 8006df4:	6adb      	ldr	r3, [r3, #44]	; 0x2c
 8006df6:	429a      	cmp	r2, r3
 8006df8:	d902      	bls.n	8006e00 <vTaskRemoveFromUnorderedEventList+0x60>
		xYieldPending = pdTRUE;
 8006dfa:	4b0a      	ldr	r3, [pc, #40]	; (8006e24 <vTaskRemoveFromUnorderedEventList+0x84>)
 8006dfc:	2201      	movs	r2, #1
 8006dfe:	601a      	str	r2, [r3, #0]
}
 8006e00:	bd38      	pop	{r3, r4, r5, pc}
 8006e02:	f04f 0350 	mov.w	r3, #80	; 0x50
 8006e06:	f383 8811 	msr	BASEPRI, r3
 8006e0a:	f3bf 8f6f 	isb	sy
 8006e0e:	f3bf 8f4f 	dsb	sy
	configASSERT( pxUnblockedTCB );
 8006e12:	e7fe      	b.n	8006e12 <vTaskRemoveFromUnorderedEventList+0x72>
 8006e14:	2000192c 	.word	0x2000192c
 8006e18:	20001934 	.word	0x20001934
 8006e1c:	200014c0 	.word	0x200014c0
 8006e20:	200014b4 	.word	0x200014b4
 8006e24:	200019ac 	.word	0x200019ac

08006e28 <vTaskInternalSetTimeOutState>:
	pxTimeOut->xOverflowCount = xNumOfOverflows;
 8006e28:	4b03      	ldr	r3, [pc, #12]	; (8006e38 <vTaskInternalSetTimeOutState+0x10>)
 8006e2a:	681b      	ldr	r3, [r3, #0]
 8006e2c:	6003      	str	r3, [r0, #0]
	pxTimeOut->xTimeOnEntering = xTickCount;
 8006e2e:	4b03      	ldr	r3, [pc, #12]	; (8006e3c <vTaskInternalSetTimeOutState+0x14>)
 8006e30:	681b      	ldr	r3, [r3, #0]
 8006e32:	6043      	str	r3, [r0, #4]
}
 8006e34:	4770      	bx	lr
 8006e36:	bf00      	nop
 8006e38:	20001964 	.word	0x20001964
 8006e3c:	200019a8 	.word	0x200019a8

08006e40 <xTaskCheckForTimeOut>:
{
 8006e40:	b538      	push	{r3, r4, r5, lr}
	configASSERT( pxTimeOut );
 8006e42:	b1d0      	cbz	r0, 8006e7a <xTaskCheckForTimeOut+0x3a>
 8006e44:	460c      	mov	r4, r1
 8006e46:	4605      	mov	r5, r0
	configASSERT( pxTicksToWait );
 8006e48:	b301      	cbz	r1, 8006e8c <xTaskCheckForTimeOut+0x4c>
	taskENTER_CRITICAL();
 8006e4a:	f000 fbc3 	bl	80075d4 <vPortEnterCritical>
		const TickType_t xConstTickCount = xTickCount;
 8006e4e:	4b1b      	ldr	r3, [pc, #108]	; (8006ebc <xTaskCheckForTimeOut+0x7c>)
 8006e50:	681a      	ldr	r2, [r3, #0]
			if( *pxTicksToWait == portMAX_DELAY )
 8006e52:	6823      	ldr	r3, [r4, #0]
 8006e54:	f1b3 3fff 	cmp.w	r3, #4294967295
 8006e58:	d029      	beq.n	8006eae <xTaskCheckForTimeOut+0x6e>
		const TickType_t xElapsedTime = xConstTickCount - pxTimeOut->xTimeOnEntering;
 8006e5a:	6869      	ldr	r1, [r5, #4]
		if( ( xNumOfOverflows != pxTimeOut->xOverflowCount ) && ( xConstTickCount >= pxTimeOut->xTimeOnEntering ) ) /*lint !e525 Indentation preferred as is to make code within pre-processor directives clearer. */
 8006e5c:	4818      	ldr	r0, [pc, #96]	; (8006ec0 <xTaskCheckForTimeOut+0x80>)
 8006e5e:	6800      	ldr	r0, [r0, #0]
 8006e60:	f8d5 c000 	ldr.w	ip, [r5]
 8006e64:	4584      	cmp	ip, r0
 8006e66:	d001      	beq.n	8006e6c <xTaskCheckForTimeOut+0x2c>
 8006e68:	4291      	cmp	r1, r2
 8006e6a:	d925      	bls.n	8006eb8 <xTaskCheckForTimeOut+0x78>
		const TickType_t xElapsedTime = xConstTickCount - pxTimeOut->xTimeOnEntering;
 8006e6c:	1a50      	subs	r0, r2, r1
		else if( xElapsedTime < *pxTicksToWait ) /*lint !e961 Explicit casting is only redundant with some compilers, whereas others require it to prevent integer conversion errors. */
 8006e6e:	4283      	cmp	r3, r0
 8006e70:	d815      	bhi.n	8006e9e <xTaskCheckForTimeOut+0x5e>
			*pxTicksToWait = 0;
 8006e72:	2300      	movs	r3, #0
 8006e74:	6023      	str	r3, [r4, #0]
			xReturn = pdTRUE;
 8006e76:	2401      	movs	r4, #1
 8006e78:	e01a      	b.n	8006eb0 <xTaskCheckForTimeOut+0x70>
 8006e7a:	f04f 0350 	mov.w	r3, #80	; 0x50
 8006e7e:	f383 8811 	msr	BASEPRI, r3
 8006e82:	f3bf 8f6f 	isb	sy
 8006e86:	f3bf 8f4f 	dsb	sy
	configASSERT( pxTimeOut );
 8006e8a:	e7fe      	b.n	8006e8a <xTaskCheckForTimeOut+0x4a>
 8006e8c:	f04f 0350 	mov.w	r3, #80	; 0x50
 8006e90:	f383 8811 	msr	BASEPRI, r3
 8006e94:	f3bf 8f6f 	isb	sy
 8006e98:	f3bf 8f4f 	dsb	sy
	configASSERT( pxTicksToWait );
 8006e9c:	e7fe      	b.n	8006e9c <xTaskCheckForTimeOut+0x5c>
			*pxTicksToWait -= xElapsedTime;
 8006e9e:	1a9b      	subs	r3, r3, r2
 8006ea0:	440b      	add	r3, r1
 8006ea2:	6023      	str	r3, [r4, #0]
			vTaskInternalSetTimeOutState( pxTimeOut );
 8006ea4:	4628      	mov	r0, r5
 8006ea6:	f7ff ffbf 	bl	8006e28 <vTaskInternalSetTimeOutState>
			xReturn = pdFALSE;
 8006eaa:	2400      	movs	r4, #0
 8006eac:	e000      	b.n	8006eb0 <xTaskCheckForTimeOut+0x70>
				xReturn = pdFALSE;
 8006eae:	2400      	movs	r4, #0
	taskEXIT_CRITICAL();
 8006eb0:	f000 fbb2 	bl	8007618 <vPortExitCritical>
}
 8006eb4:	4620      	mov	r0, r4
 8006eb6:	bd38      	pop	{r3, r4, r5, pc}
			xReturn = pdTRUE;
 8006eb8:	2401      	movs	r4, #1
 8006eba:	e7f9      	b.n	8006eb0 <xTaskCheckForTimeOut+0x70>
 8006ebc:	200019a8 	.word	0x200019a8
 8006ec0:	20001964 	.word	0x20001964

08006ec4 <vTaskMissedYield>:
	xYieldPending = pdTRUE;
 8006ec4:	4b01      	ldr	r3, [pc, #4]	; (8006ecc <vTaskMissedYield+0x8>)
 8006ec6:	2201      	movs	r2, #1
 8006ec8:	601a      	str	r2, [r3, #0]
}
 8006eca:	4770      	bx	lr
 8006ecc:	200019ac 	.word	0x200019ac

08006ed0 <xTaskGetCurrentTaskHandle>:
		xReturn = pxCurrentTCB;
 8006ed0:	4b01      	ldr	r3, [pc, #4]	; (8006ed8 <xTaskGetCurrentTaskHandle+0x8>)
 8006ed2:	6818      	ldr	r0, [r3, #0]
	}
 8006ed4:	4770      	bx	lr
 8006ed6:	bf00      	nop
 8006ed8:	200014b4 	.word	0x200014b4

08006edc <xTaskGetSchedulerState>:
		if( xSchedulerRunning == pdFALSE )
 8006edc:	4b05      	ldr	r3, [pc, #20]	; (8006ef4 <xTaskGetSchedulerState+0x18>)
 8006ede:	681b      	ldr	r3, [r3, #0]
 8006ee0:	b133      	cbz	r3, 8006ef0 <xTaskGetSchedulerState+0x14>
			if( uxSchedulerSuspended == ( UBaseType_t ) pdFALSE )
 8006ee2:	4b05      	ldr	r3, [pc, #20]	; (8006ef8 <xTaskGetSchedulerState+0x1c>)
 8006ee4:	6818      	ldr	r0, [r3, #0]
 8006ee6:	fab0 f080 	clz	r0, r0
 8006eea:	0940      	lsrs	r0, r0, #5
 8006eec:	0040      	lsls	r0, r0, #1
 8006eee:	4770      	bx	lr
			xReturn = taskSCHEDULER_NOT_STARTED;
 8006ef0:	2001      	movs	r0, #1
	}
 8006ef2:	4770      	bx	lr
 8006ef4:	2000197c 	.word	0x2000197c
 8006ef8:	2000192c 	.word	0x2000192c

08006efc <xTaskPriorityInherit>:
		if( pxMutexHolder != NULL )
 8006efc:	2800      	cmp	r0, #0
 8006efe:	d040      	beq.n	8006f82 <xTaskPriorityInherit+0x86>
	{
 8006f00:	b538      	push	{r3, r4, r5, lr}
 8006f02:	4604      	mov	r4, r0
			if( pxMutexHolderTCB->uxPriority < pxCurrentTCB->uxPriority )
 8006f04:	6ac3      	ldr	r3, [r0, #44]	; 0x2c
 8006f06:	4a20      	ldr	r2, [pc, #128]	; (8006f88 <xTaskPriorityInherit+0x8c>)
 8006f08:	6812      	ldr	r2, [r2, #0]
 8006f0a:	6ad2      	ldr	r2, [r2, #44]	; 0x2c
 8006f0c:	4293      	cmp	r3, r2
 8006f0e:	d22f      	bcs.n	8006f70 <xTaskPriorityInherit+0x74>
				if( ( listGET_LIST_ITEM_VALUE( &( pxMutexHolderTCB->xEventListItem ) ) & taskEVENT_LIST_ITEM_VALUE_IN_USE ) == 0UL )
 8006f10:	6982      	ldr	r2, [r0, #24]
 8006f12:	2a00      	cmp	r2, #0
 8006f14:	db05      	blt.n	8006f22 <xTaskPriorityInherit+0x26>
					listSET_LIST_ITEM_VALUE( &( pxMutexHolderTCB->xEventListItem ), ( TickType_t ) configMAX_PRIORITIES - ( TickType_t ) pxCurrentTCB->uxPriority ); /*lint !e961 MISRA exception as the casts are only redundant for some ports. */
 8006f16:	4a1c      	ldr	r2, [pc, #112]	; (8006f88 <xTaskPriorityInherit+0x8c>)
 8006f18:	6812      	ldr	r2, [r2, #0]
 8006f1a:	6ad2      	ldr	r2, [r2, #44]	; 0x2c
 8006f1c:	f1c2 0238 	rsb	r2, r2, #56	; 0x38
 8006f20:	6182      	str	r2, [r0, #24]
				if( listIS_CONTAINED_WITHIN( &( pxReadyTasksLists[ pxMutexHolderTCB->uxPriority ] ), &( pxMutexHolderTCB->xStateListItem ) ) != pdFALSE )
 8006f22:	eb03 0383 	add.w	r3, r3, r3, lsl #2
 8006f26:	4a19      	ldr	r2, [pc, #100]	; (8006f8c <xTaskPriorityInherit+0x90>)
 8006f28:	eb02 0383 	add.w	r3, r2, r3, lsl #2
 8006f2c:	6962      	ldr	r2, [r4, #20]
 8006f2e:	429a      	cmp	r2, r3
 8006f30:	d005      	beq.n	8006f3e <xTaskPriorityInherit+0x42>
					pxMutexHolderTCB->uxPriority = pxCurrentTCB->uxPriority;
 8006f32:	4b15      	ldr	r3, [pc, #84]	; (8006f88 <xTaskPriorityInherit+0x8c>)
 8006f34:	681b      	ldr	r3, [r3, #0]
 8006f36:	6adb      	ldr	r3, [r3, #44]	; 0x2c
 8006f38:	62e3      	str	r3, [r4, #44]	; 0x2c
				xReturn = pdTRUE;
 8006f3a:	2001      	movs	r0, #1
 8006f3c:	e020      	b.n	8006f80 <xTaskPriorityInherit+0x84>
					if( uxListRemove( &( pxMutexHolderTCB->xStateListItem ) ) == ( UBaseType_t ) 0 )
 8006f3e:	1d25      	adds	r5, r4, #4
 8006f40:	4628      	mov	r0, r5
 8006f42:	f7fe fd1d 	bl	8005980 <uxListRemove>
					pxMutexHolderTCB->uxPriority = pxCurrentTCB->uxPriority;
 8006f46:	4b10      	ldr	r3, [pc, #64]	; (8006f88 <xTaskPriorityInherit+0x8c>)
 8006f48:	681b      	ldr	r3, [r3, #0]
 8006f4a:	6ad8      	ldr	r0, [r3, #44]	; 0x2c
 8006f4c:	62e0      	str	r0, [r4, #44]	; 0x2c
					prvAddTaskToReadyList( pxMutexHolderTCB );
 8006f4e:	4b10      	ldr	r3, [pc, #64]	; (8006f90 <xTaskPriorityInherit+0x94>)
 8006f50:	681b      	ldr	r3, [r3, #0]
 8006f52:	4298      	cmp	r0, r3
 8006f54:	d809      	bhi.n	8006f6a <xTaskPriorityInherit+0x6e>
 8006f56:	eb00 0080 	add.w	r0, r0, r0, lsl #2
 8006f5a:	4629      	mov	r1, r5
 8006f5c:	4b0b      	ldr	r3, [pc, #44]	; (8006f8c <xTaskPriorityInherit+0x90>)
 8006f5e:	eb03 0080 	add.w	r0, r3, r0, lsl #2
 8006f62:	f7fe fce9 	bl	8005938 <vListInsertEnd>
				xReturn = pdTRUE;
 8006f66:	2001      	movs	r0, #1
 8006f68:	e00a      	b.n	8006f80 <xTaskPriorityInherit+0x84>
					prvAddTaskToReadyList( pxMutexHolderTCB );
 8006f6a:	4b09      	ldr	r3, [pc, #36]	; (8006f90 <xTaskPriorityInherit+0x94>)
 8006f6c:	6018      	str	r0, [r3, #0]
 8006f6e:	e7f2      	b.n	8006f56 <xTaskPriorityInherit+0x5a>
				if( pxMutexHolderTCB->uxBasePriority < pxCurrentTCB->uxPriority )
 8006f70:	4b05      	ldr	r3, [pc, #20]	; (8006f88 <xTaskPriorityInherit+0x8c>)
 8006f72:	681b      	ldr	r3, [r3, #0]
 8006f74:	6cc0      	ldr	r0, [r0, #76]	; 0x4c
 8006f76:	6adb      	ldr	r3, [r3, #44]	; 0x2c
 8006f78:	4298      	cmp	r0, r3
 8006f7a:	bf2c      	ite	cs
 8006f7c:	2000      	movcs	r0, #0
 8006f7e:	2001      	movcc	r0, #1
	}
 8006f80:	bd38      	pop	{r3, r4, r5, pc}
	BaseType_t xReturn = pdFALSE;
 8006f82:	2000      	movs	r0, #0
	}
 8006f84:	4770      	bx	lr
 8006f86:	bf00      	nop
 8006f88:	200014b4 	.word	0x200014b4
 8006f8c:	200014c0 	.word	0x200014c0
 8006f90:	20001934 	.word	0x20001934

08006f94 <xTaskPriorityDisinherit>:
		if( pxMutexHolder != NULL )
 8006f94:	2800      	cmp	r0, #0
 8006f96:	d03b      	beq.n	8007010 <xTaskPriorityDisinherit+0x7c>
	{
 8006f98:	b538      	push	{r3, r4, r5, lr}
 8006f9a:	4604      	mov	r4, r0
			configASSERT( pxTCB == pxCurrentTCB );
 8006f9c:	4b1e      	ldr	r3, [pc, #120]	; (8007018 <xTaskPriorityDisinherit+0x84>)
 8006f9e:	681b      	ldr	r3, [r3, #0]
 8006fa0:	4283      	cmp	r3, r0
 8006fa2:	d008      	beq.n	8006fb6 <xTaskPriorityDisinherit+0x22>
 8006fa4:	f04f 0350 	mov.w	r3, #80	; 0x50
 8006fa8:	f383 8811 	msr	BASEPRI, r3
 8006fac:	f3bf 8f6f 	isb	sy
 8006fb0:	f3bf 8f4f 	dsb	sy
 8006fb4:	e7fe      	b.n	8006fb4 <xTaskPriorityDisinherit+0x20>
			configASSERT( pxTCB->uxMutexesHeld );
 8006fb6:	6d03      	ldr	r3, [r0, #80]	; 0x50
 8006fb8:	b943      	cbnz	r3, 8006fcc <xTaskPriorityDisinherit+0x38>
 8006fba:	f04f 0350 	mov.w	r3, #80	; 0x50
 8006fbe:	f383 8811 	msr	BASEPRI, r3
 8006fc2:	f3bf 8f6f 	isb	sy
 8006fc6:	f3bf 8f4f 	dsb	sy
 8006fca:	e7fe      	b.n	8006fca <xTaskPriorityDisinherit+0x36>
			( pxTCB->uxMutexesHeld )--;
 8006fcc:	3b01      	subs	r3, #1
 8006fce:	6503      	str	r3, [r0, #80]	; 0x50
			if( pxTCB->uxPriority != pxTCB->uxBasePriority )
 8006fd0:	6ac1      	ldr	r1, [r0, #44]	; 0x2c
 8006fd2:	6cc2      	ldr	r2, [r0, #76]	; 0x4c
 8006fd4:	4291      	cmp	r1, r2
 8006fd6:	d01d      	beq.n	8007014 <xTaskPriorityDisinherit+0x80>
				if( pxTCB->uxMutexesHeld == ( UBaseType_t ) 0 )
 8006fd8:	b10b      	cbz	r3, 8006fde <xTaskPriorityDisinherit+0x4a>
	BaseType_t xReturn = pdFALSE;
 8006fda:	2000      	movs	r0, #0
	}
 8006fdc:	bd38      	pop	{r3, r4, r5, pc}
					if( uxListRemove( &( pxTCB->xStateListItem ) ) == ( UBaseType_t ) 0 )
 8006fde:	1d05      	adds	r5, r0, #4
 8006fe0:	4628      	mov	r0, r5
 8006fe2:	f7fe fccd 	bl	8005980 <uxListRemove>
					pxTCB->uxPriority = pxTCB->uxBasePriority;
 8006fe6:	6ce0      	ldr	r0, [r4, #76]	; 0x4c
 8006fe8:	62e0      	str	r0, [r4, #44]	; 0x2c
					listSET_LIST_ITEM_VALUE( &( pxTCB->xEventListItem ), ( TickType_t ) configMAX_PRIORITIES - ( TickType_t ) pxTCB->uxPriority ); /*lint !e961 MISRA exception as the casts are only redundant for some ports. */
 8006fea:	f1c0 0338 	rsb	r3, r0, #56	; 0x38
 8006fee:	61a3      	str	r3, [r4, #24]
					prvAddTaskToReadyList( pxTCB );
 8006ff0:	4b0a      	ldr	r3, [pc, #40]	; (800701c <xTaskPriorityDisinherit+0x88>)
 8006ff2:	681b      	ldr	r3, [r3, #0]
 8006ff4:	4298      	cmp	r0, r3
 8006ff6:	bf84      	itt	hi
 8006ff8:	4b08      	ldrhi	r3, [pc, #32]	; (800701c <xTaskPriorityDisinherit+0x88>)
 8006ffa:	6018      	strhi	r0, [r3, #0]
 8006ffc:	eb00 0080 	add.w	r0, r0, r0, lsl #2
 8007000:	4629      	mov	r1, r5
 8007002:	4b07      	ldr	r3, [pc, #28]	; (8007020 <xTaskPriorityDisinherit+0x8c>)
 8007004:	eb03 0080 	add.w	r0, r3, r0, lsl #2
 8007008:	f7fe fc96 	bl	8005938 <vListInsertEnd>
					xReturn = pdTRUE;
 800700c:	2001      	movs	r0, #1
 800700e:	e7e5      	b.n	8006fdc <xTaskPriorityDisinherit+0x48>
	BaseType_t xReturn = pdFALSE;
 8007010:	2000      	movs	r0, #0
	}
 8007012:	4770      	bx	lr
	BaseType_t xReturn = pdFALSE;
 8007014:	2000      	movs	r0, #0
 8007016:	e7e1      	b.n	8006fdc <xTaskPriorityDisinherit+0x48>
 8007018:	200014b4 	.word	0x200014b4
 800701c:	20001934 	.word	0x20001934
 8007020:	200014c0 	.word	0x200014c0

08007024 <vTaskPriorityDisinheritAfterTimeout>:
		if( pxMutexHolder != NULL )
 8007024:	2800      	cmp	r0, #0
 8007026:	d046      	beq.n	80070b6 <vTaskPriorityDisinheritAfterTimeout+0x92>
	{
 8007028:	b538      	push	{r3, r4, r5, lr}
 800702a:	4604      	mov	r4, r0
			configASSERT( pxTCB->uxMutexesHeld );
 800702c:	6d03      	ldr	r3, [r0, #80]	; 0x50
 800702e:	b943      	cbnz	r3, 8007042 <vTaskPriorityDisinheritAfterTimeout+0x1e>
 8007030:	f04f 0350 	mov.w	r3, #80	; 0x50
 8007034:	f383 8811 	msr	BASEPRI, r3
 8007038:	f3bf 8f6f 	isb	sy
 800703c:	f3bf 8f4f 	dsb	sy
 8007040:	e7fe      	b.n	8007040 <vTaskPriorityDisinheritAfterTimeout+0x1c>
			if( pxTCB->uxBasePriority < uxHighestPriorityWaitingTask )
 8007042:	6cc2      	ldr	r2, [r0, #76]	; 0x4c
 8007044:	4291      	cmp	r1, r2
 8007046:	bf38      	it	cc
 8007048:	4611      	movcc	r1, r2
			if( pxTCB->uxPriority != uxPriorityToUse )
 800704a:	6ac2      	ldr	r2, [r0, #44]	; 0x2c
 800704c:	428a      	cmp	r2, r1
 800704e:	d001      	beq.n	8007054 <vTaskPriorityDisinheritAfterTimeout+0x30>
				if( pxTCB->uxMutexesHeld == uxOnlyOneMutexHeld )
 8007050:	2b01      	cmp	r3, #1
 8007052:	d000      	beq.n	8007056 <vTaskPriorityDisinheritAfterTimeout+0x32>
	}
 8007054:	bd38      	pop	{r3, r4, r5, pc}
					configASSERT( pxTCB != pxCurrentTCB );
 8007056:	4b18      	ldr	r3, [pc, #96]	; (80070b8 <vTaskPriorityDisinheritAfterTimeout+0x94>)
 8007058:	681b      	ldr	r3, [r3, #0]
 800705a:	4283      	cmp	r3, r0
 800705c:	d022      	beq.n	80070a4 <vTaskPriorityDisinheritAfterTimeout+0x80>
					pxTCB->uxPriority = uxPriorityToUse;
 800705e:	62c1      	str	r1, [r0, #44]	; 0x2c
					if( ( listGET_LIST_ITEM_VALUE( &( pxTCB->xEventListItem ) ) & taskEVENT_LIST_ITEM_VALUE_IN_USE ) == 0UL )
 8007060:	6983      	ldr	r3, [r0, #24]
 8007062:	2b00      	cmp	r3, #0
						listSET_LIST_ITEM_VALUE( &( pxTCB->xEventListItem ), ( TickType_t ) configMAX_PRIORITIES - ( TickType_t ) uxPriorityToUse ); /*lint !e961 MISRA exception as the casts are only redundant for some ports. */
 8007064:	bfa4      	itt	ge
 8007066:	f1c1 0138 	rsbge	r1, r1, #56	; 0x38
 800706a:	6181      	strge	r1, [r0, #24]
					if( listIS_CONTAINED_WITHIN( &( pxReadyTasksLists[ uxPriorityUsedOnEntry ] ), &( pxTCB->xStateListItem ) ) != pdFALSE )
 800706c:	eb02 0282 	add.w	r2, r2, r2, lsl #2
 8007070:	4b12      	ldr	r3, [pc, #72]	; (80070bc <vTaskPriorityDisinheritAfterTimeout+0x98>)
 8007072:	eb03 0382 	add.w	r3, r3, r2, lsl #2
 8007076:	6942      	ldr	r2, [r0, #20]
 8007078:	429a      	cmp	r2, r3
 800707a:	d1eb      	bne.n	8007054 <vTaskPriorityDisinheritAfterTimeout+0x30>
						if( uxListRemove( &( pxTCB->xStateListItem ) ) == ( UBaseType_t ) 0 )
 800707c:	1d05      	adds	r5, r0, #4
 800707e:	4628      	mov	r0, r5
 8007080:	f7fe fc7e 	bl	8005980 <uxListRemove>
						prvAddTaskToReadyList( pxTCB );
 8007084:	6ae0      	ldr	r0, [r4, #44]	; 0x2c
 8007086:	4b0e      	ldr	r3, [pc, #56]	; (80070c0 <vTaskPriorityDisinheritAfterTimeout+0x9c>)
 8007088:	681b      	ldr	r3, [r3, #0]
 800708a:	4298      	cmp	r0, r3
 800708c:	bf84      	itt	hi
 800708e:	4b0c      	ldrhi	r3, [pc, #48]	; (80070c0 <vTaskPriorityDisinheritAfterTimeout+0x9c>)
 8007090:	6018      	strhi	r0, [r3, #0]
 8007092:	eb00 0080 	add.w	r0, r0, r0, lsl #2
 8007096:	4629      	mov	r1, r5
 8007098:	4b08      	ldr	r3, [pc, #32]	; (80070bc <vTaskPriorityDisinheritAfterTimeout+0x98>)
 800709a:	eb03 0080 	add.w	r0, r3, r0, lsl #2
 800709e:	f7fe fc4b 	bl	8005938 <vListInsertEnd>
	}
 80070a2:	e7d7      	b.n	8007054 <vTaskPriorityDisinheritAfterTimeout+0x30>
 80070a4:	f04f 0350 	mov.w	r3, #80	; 0x50
 80070a8:	f383 8811 	msr	BASEPRI, r3
 80070ac:	f3bf 8f6f 	isb	sy
 80070b0:	f3bf 8f4f 	dsb	sy
					configASSERT( pxTCB != pxCurrentTCB );
 80070b4:	e7fe      	b.n	80070b4 <vTaskPriorityDisinheritAfterTimeout+0x90>
 80070b6:	4770      	bx	lr
 80070b8:	200014b4 	.word	0x200014b4
 80070bc:	200014c0 	.word	0x200014c0
 80070c0:	20001934 	.word	0x20001934

080070c4 <uxTaskResetEventItemValue>:
	uxReturn = listGET_LIST_ITEM_VALUE( &( pxCurrentTCB->xEventListItem ) );
 80070c4:	4b04      	ldr	r3, [pc, #16]	; (80070d8 <uxTaskResetEventItemValue+0x14>)
 80070c6:	681a      	ldr	r2, [r3, #0]
 80070c8:	6990      	ldr	r0, [r2, #24]
	listSET_LIST_ITEM_VALUE( &( pxCurrentTCB->xEventListItem ), ( ( TickType_t ) configMAX_PRIORITIES - ( TickType_t ) pxCurrentTCB->uxPriority ) ); /*lint !e961 MISRA exception as the casts are only redundant for some ports. */
 80070ca:	6819      	ldr	r1, [r3, #0]
 80070cc:	681a      	ldr	r2, [r3, #0]
 80070ce:	6acb      	ldr	r3, [r1, #44]	; 0x2c
 80070d0:	f1c3 0338 	rsb	r3, r3, #56	; 0x38
 80070d4:	6193      	str	r3, [r2, #24]
}
 80070d6:	4770      	bx	lr
 80070d8:	200014b4 	.word	0x200014b4

080070dc <pvTaskIncrementMutexHeldCount>:
		if( pxCurrentTCB != NULL )
 80070dc:	4b05      	ldr	r3, [pc, #20]	; (80070f4 <pvTaskIncrementMutexHeldCount+0x18>)
 80070de:	681b      	ldr	r3, [r3, #0]
 80070e0:	b123      	cbz	r3, 80070ec <pvTaskIncrementMutexHeldCount+0x10>
			( pxCurrentTCB->uxMutexesHeld )++;
 80070e2:	4b04      	ldr	r3, [pc, #16]	; (80070f4 <pvTaskIncrementMutexHeldCount+0x18>)
 80070e4:	681a      	ldr	r2, [r3, #0]
 80070e6:	6d13      	ldr	r3, [r2, #80]	; 0x50
 80070e8:	3301      	adds	r3, #1
 80070ea:	6513      	str	r3, [r2, #80]	; 0x50
		return pxCurrentTCB;
 80070ec:	4b01      	ldr	r3, [pc, #4]	; (80070f4 <pvTaskIncrementMutexHeldCount+0x18>)
 80070ee:	6818      	ldr	r0, [r3, #0]
	}
 80070f0:	4770      	bx	lr
 80070f2:	bf00      	nop
 80070f4:	200014b4 	.word	0x200014b4

080070f8 <prvInsertTimerInActiveList>:
	return xTimeNow;
}
/*-----------------------------------------------------------*/

static BaseType_t prvInsertTimerInActiveList( Timer_t * const pxTimer, const TickType_t xNextExpiryTime, const TickType_t xTimeNow, const TickType_t xCommandTime )
{
 80070f8:	b508      	push	{r3, lr}
BaseType_t xProcessTimerNow = pdFALSE;

	listSET_LIST_ITEM_VALUE( &( pxTimer->xTimerListItem ), xNextExpiryTime );
 80070fa:	6041      	str	r1, [r0, #4]
	listSET_LIST_ITEM_OWNER( &( pxTimer->xTimerListItem ), pxTimer );
 80070fc:	6100      	str	r0, [r0, #16]

	if( xNextExpiryTime <= xTimeNow )
 80070fe:	4291      	cmp	r1, r2
 8007100:	d80c      	bhi.n	800711c <prvInsertTimerInActiveList+0x24>
	{
		/* Has the expiry time elapsed between the command to start/reset a
		timer was issued, and the time the command was processed? */
		if( ( ( TickType_t ) ( xTimeNow - xCommandTime ) ) >= pxTimer->xTimerPeriodInTicks ) /*lint !e961 MISRA exception as the casts are only redundant for some ports. */
 8007102:	1ad2      	subs	r2, r2, r3
 8007104:	6983      	ldr	r3, [r0, #24]
 8007106:	429a      	cmp	r2, r3
 8007108:	d301      	bcc.n	800710e <prvInsertTimerInActiveList+0x16>
		{
			/* The time between a command being issued and the command being
			processed actually exceeds the timers period.  */
			xProcessTimerNow = pdTRUE;
 800710a:	2001      	movs	r0, #1
			vListInsert( pxCurrentTimerList, &( pxTimer->xTimerListItem ) );
		}
	}

	return xProcessTimerNow;
}
 800710c:	bd08      	pop	{r3, pc}
			vListInsert( pxOverflowTimerList, &( pxTimer->xTimerListItem ) );
 800710e:	1d01      	adds	r1, r0, #4
 8007110:	4b09      	ldr	r3, [pc, #36]	; (8007138 <prvInsertTimerInActiveList+0x40>)
 8007112:	6818      	ldr	r0, [r3, #0]
 8007114:	f7fe fc1b 	bl	800594e <vListInsert>
BaseType_t xProcessTimerNow = pdFALSE;
 8007118:	2000      	movs	r0, #0
 800711a:	e7f7      	b.n	800710c <prvInsertTimerInActiveList+0x14>
		if( ( xTimeNow < xCommandTime ) && ( xNextExpiryTime >= xCommandTime ) )
 800711c:	429a      	cmp	r2, r3
 800711e:	d201      	bcs.n	8007124 <prvInsertTimerInActiveList+0x2c>
 8007120:	4299      	cmp	r1, r3
 8007122:	d206      	bcs.n	8007132 <prvInsertTimerInActiveList+0x3a>
			vListInsert( pxCurrentTimerList, &( pxTimer->xTimerListItem ) );
 8007124:	1d01      	adds	r1, r0, #4
 8007126:	4b05      	ldr	r3, [pc, #20]	; (800713c <prvInsertTimerInActiveList+0x44>)
 8007128:	6818      	ldr	r0, [r3, #0]
 800712a:	f7fe fc10 	bl	800594e <vListInsert>
BaseType_t xProcessTimerNow = pdFALSE;
 800712e:	2000      	movs	r0, #0
 8007130:	e7ec      	b.n	800710c <prvInsertTimerInActiveList+0x14>
			xProcessTimerNow = pdTRUE;
 8007132:	2001      	movs	r0, #1
	return xProcessTimerNow;
 8007134:	e7ea      	b.n	800710c <prvInsertTimerInActiveList+0x14>
 8007136:	bf00      	nop
 8007138:	200019b4 	.word	0x200019b4
 800713c:	200019b0 	.word	0x200019b0

08007140 <prvCheckForValidListAndQueue>:
	pxOverflowTimerList = pxTemp;
}
/*-----------------------------------------------------------*/

static void prvCheckForValidListAndQueue( void )
{
 8007140:	b530      	push	{r4, r5, lr}
 8007142:	b083      	sub	sp, #12
	/* Check that the list from which active timers are referenced, and the
	queue used to communicate with the timer service, have been
	initialised. */
	taskENTER_CRITICAL();
 8007144:	f000 fa46 	bl	80075d4 <vPortEnterCritical>
	{
		if( xTimerQueue == NULL )
 8007148:	4b11      	ldr	r3, [pc, #68]	; (8007190 <prvCheckForValidListAndQueue+0x50>)
 800714a:	681b      	ldr	r3, [r3, #0]
 800714c:	b11b      	cbz	r3, 8007156 <prvCheckForValidListAndQueue+0x16>
		else
		{
			mtCOVERAGE_TEST_MARKER();
		}
	}
	taskEXIT_CRITICAL();
 800714e:	f000 fa63 	bl	8007618 <vPortExitCritical>
}
 8007152:	b003      	add	sp, #12
 8007154:	bd30      	pop	{r4, r5, pc}
			vListInitialise( &xActiveTimerList1 );
 8007156:	4d0f      	ldr	r5, [pc, #60]	; (8007194 <prvCheckForValidListAndQueue+0x54>)
 8007158:	4628      	mov	r0, r5
 800715a:	f7fe fbdf 	bl	800591c <vListInitialise>
			vListInitialise( &xActiveTimerList2 );
 800715e:	4c0e      	ldr	r4, [pc, #56]	; (8007198 <prvCheckForValidListAndQueue+0x58>)
 8007160:	4620      	mov	r0, r4
 8007162:	f7fe fbdb 	bl	800591c <vListInitialise>
			pxCurrentTimerList = &xActiveTimerList1;
 8007166:	4b0d      	ldr	r3, [pc, #52]	; (800719c <prvCheckForValidListAndQueue+0x5c>)
 8007168:	601d      	str	r5, [r3, #0]
			pxOverflowTimerList = &xActiveTimerList2;
 800716a:	4b0d      	ldr	r3, [pc, #52]	; (80071a0 <prvCheckForValidListAndQueue+0x60>)
 800716c:	601c      	str	r4, [r3, #0]
				xTimerQueue = xQueueCreateStatic( ( UBaseType_t ) configTIMER_QUEUE_LENGTH, ( UBaseType_t ) sizeof( DaemonTaskMessage_t ), &( ucStaticTimerQueueStorage[ 0 ] ), &xStaticTimerQueue );
 800716e:	2300      	movs	r3, #0
 8007170:	9300      	str	r3, [sp, #0]
 8007172:	4b0c      	ldr	r3, [pc, #48]	; (80071a4 <prvCheckForValidListAndQueue+0x64>)
 8007174:	4a0c      	ldr	r2, [pc, #48]	; (80071a8 <prvCheckForValidListAndQueue+0x68>)
 8007176:	2110      	movs	r1, #16
 8007178:	200a      	movs	r0, #10
 800717a:	f7fe fce8 	bl	8005b4e <xQueueGenericCreateStatic>
 800717e:	4b04      	ldr	r3, [pc, #16]	; (8007190 <prvCheckForValidListAndQueue+0x50>)
 8007180:	6018      	str	r0, [r3, #0]
				if( xTimerQueue != NULL )
 8007182:	2800      	cmp	r0, #0
 8007184:	d0e3      	beq.n	800714e <prvCheckForValidListAndQueue+0xe>
					vQueueAddToRegistry( xTimerQueue, "TmrQ" );
 8007186:	4909      	ldr	r1, [pc, #36]	; (80071ac <prvCheckForValidListAndQueue+0x6c>)
 8007188:	f7ff f910 	bl	80063ac <vQueueAddToRegistry>
 800718c:	e7df      	b.n	800714e <prvCheckForValidListAndQueue+0xe>
 800718e:	bf00      	nop
 8007190:	20001ad4 	.word	0x20001ad4
 8007194:	20001a58 	.word	0x20001a58
 8007198:	20001a6c 	.word	0x20001a6c
 800719c:	200019b0 	.word	0x200019b0
 80071a0:	200019b4 	.word	0x200019b4
 80071a4:	20001a84 	.word	0x20001a84
 80071a8:	200019b8 	.word	0x200019b8
 80071ac:	080097ac 	.word	0x080097ac

080071b0 <xTimerCreateTimerTask>:
{
 80071b0:	b510      	push	{r4, lr}
 80071b2:	b088      	sub	sp, #32
	prvCheckForValidListAndQueue();
 80071b4:	f7ff ffc4 	bl	8007140 <prvCheckForValidListAndQueue>
	if( xTimerQueue != NULL )
 80071b8:	4b12      	ldr	r3, [pc, #72]	; (8007204 <xTimerCreateTimerTask+0x54>)
 80071ba:	681b      	ldr	r3, [r3, #0]
 80071bc:	b1cb      	cbz	r3, 80071f2 <xTimerCreateTimerTask+0x42>
			StaticTask_t *pxTimerTaskTCBBuffer = NULL;
 80071be:	2400      	movs	r4, #0
 80071c0:	9405      	str	r4, [sp, #20]
			StackType_t *pxTimerTaskStackBuffer = NULL;
 80071c2:	9406      	str	r4, [sp, #24]
			vApplicationGetTimerTaskMemory( &pxTimerTaskTCBBuffer, &pxTimerTaskStackBuffer, &ulTimerTaskStackSize );
 80071c4:	aa07      	add	r2, sp, #28
 80071c6:	a906      	add	r1, sp, #24
 80071c8:	a805      	add	r0, sp, #20
 80071ca:	f7fe fa87 	bl	80056dc <vApplicationGetTimerTaskMemory>
			xTimerTaskHandle = xTaskCreateStatic(	prvTimerTask,
 80071ce:	9b05      	ldr	r3, [sp, #20]
 80071d0:	9302      	str	r3, [sp, #8]
 80071d2:	9b06      	ldr	r3, [sp, #24]
 80071d4:	9301      	str	r3, [sp, #4]
 80071d6:	2302      	movs	r3, #2
 80071d8:	9300      	str	r3, [sp, #0]
 80071da:	4623      	mov	r3, r4
 80071dc:	9a07      	ldr	r2, [sp, #28]
 80071de:	490a      	ldr	r1, [pc, #40]	; (8007208 <xTimerCreateTimerTask+0x58>)
 80071e0:	480a      	ldr	r0, [pc, #40]	; (800720c <xTimerCreateTimerTask+0x5c>)
 80071e2:	f7ff fabb 	bl	800675c <xTaskCreateStatic>
 80071e6:	4b0a      	ldr	r3, [pc, #40]	; (8007210 <xTimerCreateTimerTask+0x60>)
 80071e8:	6018      	str	r0, [r3, #0]
			if( xTimerTaskHandle != NULL )
 80071ea:	b110      	cbz	r0, 80071f2 <xTimerCreateTimerTask+0x42>
}
 80071ec:	2001      	movs	r0, #1
 80071ee:	b008      	add	sp, #32
 80071f0:	bd10      	pop	{r4, pc}
 80071f2:	f04f 0350 	mov.w	r3, #80	; 0x50
 80071f6:	f383 8811 	msr	BASEPRI, r3
 80071fa:	f3bf 8f6f 	isb	sy
 80071fe:	f3bf 8f4f 	dsb	sy
	configASSERT( xReturn );
 8007202:	e7fe      	b.n	8007202 <xTimerCreateTimerTask+0x52>
 8007204:	20001ad4 	.word	0x20001ad4
 8007208:	080097b4 	.word	0x080097b4
 800720c:	0800731d 	.word	0x0800731d
 8007210:	20001ad8 	.word	0x20001ad8

08007214 <xTimerGenericCommand>:
	configASSERT( xTimer );
 8007214:	b1d8      	cbz	r0, 800724e <xTimerGenericCommand+0x3a>
 8007216:	469c      	mov	ip, r3
 8007218:	4603      	mov	r3, r0
	if( xTimerQueue != NULL )
 800721a:	4815      	ldr	r0, [pc, #84]	; (8007270 <xTimerGenericCommand+0x5c>)
 800721c:	6800      	ldr	r0, [r0, #0]
 800721e:	b328      	cbz	r0, 800726c <xTimerGenericCommand+0x58>
{
 8007220:	b500      	push	{lr}
 8007222:	b085      	sub	sp, #20
		xMessage.xMessageID = xCommandID;
 8007224:	9100      	str	r1, [sp, #0]
		xMessage.u.xTimerParameters.xMessageValue = xOptionalValue;
 8007226:	9201      	str	r2, [sp, #4]
		xMessage.u.xTimerParameters.pxTimer = ( Timer_t * ) xTimer;
 8007228:	9302      	str	r3, [sp, #8]
		if( xCommandID < tmrFIRST_FROM_ISR_COMMAND )
 800722a:	2905      	cmp	r1, #5
 800722c:	dc18      	bgt.n	8007260 <xTimerGenericCommand+0x4c>
			if( xTaskGetSchedulerState() == taskSCHEDULER_RUNNING )
 800722e:	f7ff fe55 	bl	8006edc <xTaskGetSchedulerState>
 8007232:	2802      	cmp	r0, #2
				xReturn = xQueueSendToBack( xTimerQueue, &xMessage, xTicksToWait );
 8007234:	f04f 0300 	mov.w	r3, #0
 8007238:	bf0c      	ite	eq
 800723a:	9a06      	ldreq	r2, [sp, #24]
				xReturn = xQueueSendToBack( xTimerQueue, &xMessage, tmrNO_DELAY );
 800723c:	461a      	movne	r2, r3
 800723e:	4669      	mov	r1, sp
 8007240:	480b      	ldr	r0, [pc, #44]	; (8007270 <xTimerGenericCommand+0x5c>)
 8007242:	6800      	ldr	r0, [r0, #0]
 8007244:	f7fe fd3e 	bl	8005cc4 <xQueueGenericSend>
}
 8007248:	b005      	add	sp, #20
 800724a:	f85d fb04 	ldr.w	pc, [sp], #4
 800724e:	f04f 0350 	mov.w	r3, #80	; 0x50
 8007252:	f383 8811 	msr	BASEPRI, r3
 8007256:	f3bf 8f6f 	isb	sy
 800725a:	f3bf 8f4f 	dsb	sy
	configASSERT( xTimer );
 800725e:	e7fe      	b.n	800725e <xTimerGenericCommand+0x4a>
			xReturn = xQueueSendToBackFromISR( xTimerQueue, &xMessage, pxHigherPriorityTaskWoken );
 8007260:	2300      	movs	r3, #0
 8007262:	4662      	mov	r2, ip
 8007264:	4669      	mov	r1, sp
 8007266:	f7fe fe3f 	bl	8005ee8 <xQueueGenericSendFromISR>
 800726a:	e7ed      	b.n	8007248 <xTimerGenericCommand+0x34>
BaseType_t xReturn = pdFAIL;
 800726c:	2000      	movs	r0, #0
}
 800726e:	4770      	bx	lr
 8007270:	20001ad4 	.word	0x20001ad4

08007274 <prvSampleTimeNow>:
{
 8007274:	e92d 47f0 	stmdb	sp!, {r4, r5, r6, r7, r8, r9, sl, lr}
 8007278:	b082      	sub	sp, #8
 800727a:	4682      	mov	sl, r0
	xTimeNow = xTaskGetTickCount();
 800727c:	f7ff fb28 	bl	80068d0 <xTaskGetTickCount>
 8007280:	4606      	mov	r6, r0
	if( xTimeNow < xLastTime )
 8007282:	4b23      	ldr	r3, [pc, #140]	; (8007310 <prvSampleTimeNow+0x9c>)
 8007284:	681b      	ldr	r3, [r3, #0]
 8007286:	4283      	cmp	r3, r0
 8007288:	d808      	bhi.n	800729c <prvSampleTimeNow+0x28>
 800728a:	2300      	movs	r3, #0
		*pxTimerListsWereSwitched = pdTRUE;
 800728c:	f8ca 3000 	str.w	r3, [sl]
	xLastTime = xTimeNow;
 8007290:	4b1f      	ldr	r3, [pc, #124]	; (8007310 <prvSampleTimeNow+0x9c>)
 8007292:	601e      	str	r6, [r3, #0]
}
 8007294:	4630      	mov	r0, r6
 8007296:	b002      	add	sp, #8
 8007298:	e8bd 87f0 	ldmia.w	sp!, {r4, r5, r6, r7, r8, r9, sl, pc}
	while( listLIST_IS_EMPTY( pxCurrentTimerList ) == pdFALSE )
 800729c:	4d1d      	ldr	r5, [pc, #116]	; (8007314 <prvSampleTimeNow+0xa0>)
				xResult = xTimerGenericCommand( pxTimer, tmrCOMMAND_START_DONT_TRACE, xNextExpireTime, NULL, tmrNO_DELAY );
 800729e:	f04f 0800 	mov.w	r8, #0
	while( listLIST_IS_EMPTY( pxCurrentTimerList ) == pdFALSE )
 80072a2:	682b      	ldr	r3, [r5, #0]
 80072a4:	681a      	ldr	r2, [r3, #0]
 80072a6:	b35a      	cbz	r2, 8007300 <prvSampleTimeNow+0x8c>
		xNextExpireTime = listGET_ITEM_VALUE_OF_HEAD_ENTRY( pxCurrentTimerList );
 80072a8:	68db      	ldr	r3, [r3, #12]
 80072aa:	681f      	ldr	r7, [r3, #0]
		pxTimer = ( Timer_t * ) listGET_OWNER_OF_HEAD_ENTRY( pxCurrentTimerList );
 80072ac:	68dc      	ldr	r4, [r3, #12]
		( void ) uxListRemove( &( pxTimer->xTimerListItem ) );
 80072ae:	f104 0904 	add.w	r9, r4, #4
 80072b2:	4648      	mov	r0, r9
 80072b4:	f7fe fb64 	bl	8005980 <uxListRemove>
		pxTimer->pxCallbackFunction( ( TimerHandle_t ) pxTimer );
 80072b8:	6a63      	ldr	r3, [r4, #36]	; 0x24
 80072ba:	4620      	mov	r0, r4
 80072bc:	4798      	blx	r3
		if( pxTimer->uxAutoReload == ( UBaseType_t ) pdTRUE )
 80072be:	69e3      	ldr	r3, [r4, #28]
 80072c0:	2b01      	cmp	r3, #1
 80072c2:	d1ee      	bne.n	80072a2 <prvSampleTimeNow+0x2e>
			xReloadTime = ( xNextExpireTime + pxTimer->xTimerPeriodInTicks );
 80072c4:	69a3      	ldr	r3, [r4, #24]
 80072c6:	443b      	add	r3, r7
			if( xReloadTime > xNextExpireTime )
 80072c8:	429f      	cmp	r7, r3
 80072ca:	d206      	bcs.n	80072da <prvSampleTimeNow+0x66>
				listSET_LIST_ITEM_VALUE( &( pxTimer->xTimerListItem ), xReloadTime );
 80072cc:	6063      	str	r3, [r4, #4]
				listSET_LIST_ITEM_OWNER( &( pxTimer->xTimerListItem ), pxTimer );
 80072ce:	6124      	str	r4, [r4, #16]
				vListInsert( pxCurrentTimerList, &( pxTimer->xTimerListItem ) );
 80072d0:	4649      	mov	r1, r9
 80072d2:	6828      	ldr	r0, [r5, #0]
 80072d4:	f7fe fb3b 	bl	800594e <vListInsert>
 80072d8:	e7e3      	b.n	80072a2 <prvSampleTimeNow+0x2e>
				xResult = xTimerGenericCommand( pxTimer, tmrCOMMAND_START_DONT_TRACE, xNextExpireTime, NULL, tmrNO_DELAY );
 80072da:	f8cd 8000 	str.w	r8, [sp]
 80072de:	4643      	mov	r3, r8
 80072e0:	463a      	mov	r2, r7
 80072e2:	4641      	mov	r1, r8
 80072e4:	4620      	mov	r0, r4
 80072e6:	f7ff ff95 	bl	8007214 <xTimerGenericCommand>
				configASSERT( xResult );
 80072ea:	2800      	cmp	r0, #0
 80072ec:	d1d9      	bne.n	80072a2 <prvSampleTimeNow+0x2e>
 80072ee:	f04f 0350 	mov.w	r3, #80	; 0x50
 80072f2:	f383 8811 	msr	BASEPRI, r3
 80072f6:	f3bf 8f6f 	isb	sy
 80072fa:	f3bf 8f4f 	dsb	sy
 80072fe:	e7fe      	b.n	80072fe <prvSampleTimeNow+0x8a>
	pxCurrentTimerList = pxOverflowTimerList;
 8007300:	4a05      	ldr	r2, [pc, #20]	; (8007318 <prvSampleTimeNow+0xa4>)
 8007302:	6810      	ldr	r0, [r2, #0]
 8007304:	4903      	ldr	r1, [pc, #12]	; (8007314 <prvSampleTimeNow+0xa0>)
 8007306:	6008      	str	r0, [r1, #0]
	pxOverflowTimerList = pxTemp;
 8007308:	6013      	str	r3, [r2, #0]
		*pxTimerListsWereSwitched = pdTRUE;
 800730a:	2301      	movs	r3, #1
 800730c:	e7be      	b.n	800728c <prvSampleTimeNow+0x18>
 800730e:	bf00      	nop
 8007310:	20001a80 	.word	0x20001a80
 8007314:	200019b0 	.word	0x200019b0
 8007318:	200019b4 	.word	0x200019b4

0800731c <prvTimerTask>:
{
 800731c:	e92d 43f0 	stmdb	sp!, {r4, r5, r6, r7, r8, r9, lr}
 8007320:	b089      	sub	sp, #36	; 0x24
	*pxListWasEmpty = listLIST_IS_EMPTY( pxCurrentTimerList );
 8007322:	4e74      	ldr	r6, [pc, #464]	; (80074f4 <prvTimerTask+0x1d8>)
				vQueueWaitForMessageRestricted( xTimerQueue, ( xNextExpireTime - xTimeNow ), xListWasEmpty );
 8007324:	4d74      	ldr	r5, [pc, #464]	; (80074f8 <prvTimerTask+0x1dc>)
					xListWasEmpty = listLIST_IS_EMPTY( pxOverflowTimerList );
 8007326:	4f75      	ldr	r7, [pc, #468]	; (80074fc <prvTimerTask+0x1e0>)
	*pxListWasEmpty = listLIST_IS_EMPTY( pxCurrentTimerList );
 8007328:	6833      	ldr	r3, [r6, #0]
 800732a:	f8d3 8000 	ldr.w	r8, [r3]
	if( *pxListWasEmpty == pdFALSE )
 800732e:	f1b8 0f00 	cmp.w	r8, #0
 8007332:	d00f      	beq.n	8007354 <prvTimerTask+0x38>
		xNextExpireTime = listGET_ITEM_VALUE_OF_HEAD_ENTRY( pxCurrentTimerList );
 8007334:	68db      	ldr	r3, [r3, #12]
 8007336:	f8d3 8000 	ldr.w	r8, [r3]
	vTaskSuspendAll();
 800733a:	f7ff fac1 	bl	80068c0 <vTaskSuspendAll>
		xTimeNow = prvSampleTimeNow( &xTimerListsWereSwitched );
 800733e:	a804      	add	r0, sp, #16
 8007340:	f7ff ff98 	bl	8007274 <prvSampleTimeNow>
 8007344:	4604      	mov	r4, r0
		if( xTimerListsWereSwitched == pdFALSE )
 8007346:	9b04      	ldr	r3, [sp, #16]
 8007348:	2b00      	cmp	r3, #0
 800734a:	d154      	bne.n	80073f6 <prvTimerTask+0xda>
			if( ( xListWasEmpty == pdFALSE ) && ( xNextExpireTime <= xTimeNow ) )
 800734c:	4580      	cmp	r8, r0
 800734e:	d923      	bls.n	8007398 <prvTimerTask+0x7c>
 8007350:	2200      	movs	r2, #0
 8007352:	e00d      	b.n	8007370 <prvTimerTask+0x54>
	vTaskSuspendAll();
 8007354:	f7ff fab4 	bl	80068c0 <vTaskSuspendAll>
		xTimeNow = prvSampleTimeNow( &xTimerListsWereSwitched );
 8007358:	a804      	add	r0, sp, #16
 800735a:	f7ff ff8b 	bl	8007274 <prvSampleTimeNow>
 800735e:	4604      	mov	r4, r0
		if( xTimerListsWereSwitched == pdFALSE )
 8007360:	9b04      	ldr	r3, [sp, #16]
 8007362:	2b00      	cmp	r3, #0
 8007364:	d147      	bne.n	80073f6 <prvTimerTask+0xda>
					xListWasEmpty = listLIST_IS_EMPTY( pxOverflowTimerList );
 8007366:	683b      	ldr	r3, [r7, #0]
 8007368:	681a      	ldr	r2, [r3, #0]
 800736a:	fab2 f282 	clz	r2, r2
 800736e:	0952      	lsrs	r2, r2, #5
				vQueueWaitForMessageRestricted( xTimerQueue, ( xNextExpireTime - xTimeNow ), xListWasEmpty );
 8007370:	eba8 0104 	sub.w	r1, r8, r4
 8007374:	6828      	ldr	r0, [r5, #0]
 8007376:	f7ff f859 	bl	800642c <vQueueWaitForMessageRestricted>
				if( xTaskResumeAll() == pdFALSE )
 800737a:	f7ff fb49 	bl	8006a10 <xTaskResumeAll>
 800737e:	2800      	cmp	r0, #0
 8007380:	d13b      	bne.n	80073fa <prvTimerTask+0xde>
					portYIELD_WITHIN_API();
 8007382:	f04f 23e0 	mov.w	r3, #3758153728	; 0xe000e000
 8007386:	f04f 5280 	mov.w	r2, #268435456	; 0x10000000
 800738a:	f8c3 2d04 	str.w	r2, [r3, #3332]	; 0xd04
 800738e:	f3bf 8f4f 	dsb	sy
 8007392:	f3bf 8f6f 	isb	sy
 8007396:	e030      	b.n	80073fa <prvTimerTask+0xde>
				( void ) xTaskResumeAll();
 8007398:	f7ff fb3a 	bl	8006a10 <xTaskResumeAll>
Timer_t * const pxTimer = ( Timer_t * ) listGET_OWNER_OF_HEAD_ENTRY( pxCurrentTimerList );
 800739c:	6833      	ldr	r3, [r6, #0]
 800739e:	68db      	ldr	r3, [r3, #12]
 80073a0:	f8d3 900c 	ldr.w	r9, [r3, #12]
	( void ) uxListRemove( &( pxTimer->xTimerListItem ) );
 80073a4:	f109 0004 	add.w	r0, r9, #4
 80073a8:	f7fe faea 	bl	8005980 <uxListRemove>
	if( pxTimer->uxAutoReload == ( UBaseType_t ) pdTRUE )
 80073ac:	f8d9 301c 	ldr.w	r3, [r9, #28]
 80073b0:	2b01      	cmp	r3, #1
 80073b2:	d004      	beq.n	80073be <prvTimerTask+0xa2>
	pxTimer->pxCallbackFunction( ( TimerHandle_t ) pxTimer );
 80073b4:	f8d9 3024 	ldr.w	r3, [r9, #36]	; 0x24
 80073b8:	4648      	mov	r0, r9
 80073ba:	4798      	blx	r3
}
 80073bc:	e01d      	b.n	80073fa <prvTimerTask+0xde>
		if( prvInsertTimerInActiveList( pxTimer, ( xNextExpireTime + pxTimer->xTimerPeriodInTicks ), xTimeNow, xNextExpireTime ) != pdFALSE )
 80073be:	f8d9 1018 	ldr.w	r1, [r9, #24]
 80073c2:	4643      	mov	r3, r8
 80073c4:	4622      	mov	r2, r4
 80073c6:	4441      	add	r1, r8
 80073c8:	4648      	mov	r0, r9
 80073ca:	f7ff fe95 	bl	80070f8 <prvInsertTimerInActiveList>
 80073ce:	2800      	cmp	r0, #0
 80073d0:	d0f0      	beq.n	80073b4 <prvTimerTask+0x98>
			xResult = xTimerGenericCommand( pxTimer, tmrCOMMAND_START_DONT_TRACE, xNextExpireTime, NULL, tmrNO_DELAY );
 80073d2:	2100      	movs	r1, #0
 80073d4:	9100      	str	r1, [sp, #0]
 80073d6:	460b      	mov	r3, r1
 80073d8:	4642      	mov	r2, r8
 80073da:	4648      	mov	r0, r9
 80073dc:	f7ff ff1a 	bl	8007214 <xTimerGenericCommand>
			configASSERT( xResult );
 80073e0:	2800      	cmp	r0, #0
 80073e2:	d1e7      	bne.n	80073b4 <prvTimerTask+0x98>
 80073e4:	f04f 0350 	mov.w	r3, #80	; 0x50
 80073e8:	f383 8811 	msr	BASEPRI, r3
 80073ec:	f3bf 8f6f 	isb	sy
 80073f0:	f3bf 8f4f 	dsb	sy
 80073f4:	e7fe      	b.n	80073f4 <prvTimerTask+0xd8>
			( void ) xTaskResumeAll();
 80073f6:	f7ff fb0b 	bl	8006a10 <xTaskResumeAll>
	while( xQueueReceive( xTimerQueue, &xMessage, tmrNO_DELAY ) != pdFAIL ) /*lint !e603 xMessage does not have to be initialised as it is passed out, not in, and it is not used unless xQueueReceive() returns pdTRUE. */
 80073fa:	2400      	movs	r4, #0
}
 80073fc:	e006      	b.n	800740c <prvTimerTask+0xf0>
				pxCallback->pxCallbackFunction( pxCallback->pvParameter1, pxCallback->ulParameter2 );
 80073fe:	9907      	ldr	r1, [sp, #28]
 8007400:	9806      	ldr	r0, [sp, #24]
 8007402:	9b05      	ldr	r3, [sp, #20]
 8007404:	4798      	blx	r3
		if( xMessage.xMessageID >= ( BaseType_t ) 0 )
 8007406:	9b04      	ldr	r3, [sp, #16]
 8007408:	2b00      	cmp	r3, #0
 800740a:	da09      	bge.n	8007420 <prvTimerTask+0x104>
	while( xQueueReceive( xTimerQueue, &xMessage, tmrNO_DELAY ) != pdFAIL ) /*lint !e603 xMessage does not have to be initialised as it is passed out, not in, and it is not used unless xQueueReceive() returns pdTRUE. */
 800740c:	4622      	mov	r2, r4
 800740e:	a904      	add	r1, sp, #16
 8007410:	6828      	ldr	r0, [r5, #0]
 8007412:	f7fe fdcf 	bl	8005fb4 <xQueueReceive>
 8007416:	2800      	cmp	r0, #0
 8007418:	d086      	beq.n	8007328 <prvTimerTask+0xc>
			if( xMessage.xMessageID < ( BaseType_t ) 0 )
 800741a:	9b04      	ldr	r3, [sp, #16]
 800741c:	2b00      	cmp	r3, #0
 800741e:	dbee      	blt.n	80073fe <prvTimerTask+0xe2>
			pxTimer = xMessage.u.xTimerParameters.pxTimer;
 8007420:	f8dd 8018 	ldr.w	r8, [sp, #24]
			if( listIS_CONTAINED_WITHIN( NULL, &( pxTimer->xTimerListItem ) ) == pdFALSE ) /*lint !e961. The cast is only redundant when NULL is passed into the macro. */
 8007424:	f8d8 3014 	ldr.w	r3, [r8, #20]
 8007428:	b11b      	cbz	r3, 8007432 <prvTimerTask+0x116>
				( void ) uxListRemove( &( pxTimer->xTimerListItem ) );
 800742a:	f108 0004 	add.w	r0, r8, #4
 800742e:	f7fe faa7 	bl	8005980 <uxListRemove>
			xTimeNow = prvSampleTimeNow( &xTimerListsWereSwitched );
 8007432:	a803      	add	r0, sp, #12
 8007434:	f7ff ff1e 	bl	8007274 <prvSampleTimeNow>
			switch( xMessage.xMessageID )
 8007438:	9b04      	ldr	r3, [sp, #16]
 800743a:	2b09      	cmp	r3, #9
 800743c:	d8e6      	bhi.n	800740c <prvTimerTask+0xf0>
 800743e:	a201      	add	r2, pc, #4	; (adr r2, 8007444 <prvTimerTask+0x128>)
 8007440:	f852 f023 	ldr.w	pc, [r2, r3, lsl #2]
 8007444:	0800746d 	.word	0x0800746d
 8007448:	0800746d 	.word	0x0800746d
 800744c:	0800746d 	.word	0x0800746d
 8007450:	0800740d 	.word	0x0800740d
 8007454:	080074bb 	.word	0x080074bb
 8007458:	080074e3 	.word	0x080074e3
 800745c:	0800746d 	.word	0x0800746d
 8007460:	0800746d 	.word	0x0800746d
 8007464:	0800740d 	.word	0x0800740d
 8007468:	080074bb 	.word	0x080074bb
					if( prvInsertTimerInActiveList( pxTimer,  xMessage.u.xTimerParameters.xMessageValue + pxTimer->xTimerPeriodInTicks, xTimeNow, xMessage.u.xTimerParameters.xMessageValue ) != pdFALSE )
 800746c:	9b05      	ldr	r3, [sp, #20]
 800746e:	f8d8 1018 	ldr.w	r1, [r8, #24]
 8007472:	4602      	mov	r2, r0
 8007474:	4419      	add	r1, r3
 8007476:	4640      	mov	r0, r8
 8007478:	f7ff fe3e 	bl	80070f8 <prvInsertTimerInActiveList>
 800747c:	2800      	cmp	r0, #0
 800747e:	d0c5      	beq.n	800740c <prvTimerTask+0xf0>
						pxTimer->pxCallbackFunction( ( TimerHandle_t ) pxTimer );
 8007480:	f8d8 3024 	ldr.w	r3, [r8, #36]	; 0x24
 8007484:	4640      	mov	r0, r8
 8007486:	4798      	blx	r3
						if( pxTimer->uxAutoReload == ( UBaseType_t ) pdTRUE )
 8007488:	f8d8 301c 	ldr.w	r3, [r8, #28]
 800748c:	2b01      	cmp	r3, #1
 800748e:	d1bd      	bne.n	800740c <prvTimerTask+0xf0>
							xResult = xTimerGenericCommand( pxTimer, tmrCOMMAND_START_DONT_TRACE, xMessage.u.xTimerParameters.xMessageValue + pxTimer->xTimerPeriodInTicks, NULL, tmrNO_DELAY );
 8007490:	f8d8 2018 	ldr.w	r2, [r8, #24]
 8007494:	9400      	str	r4, [sp, #0]
 8007496:	4623      	mov	r3, r4
 8007498:	9905      	ldr	r1, [sp, #20]
 800749a:	440a      	add	r2, r1
 800749c:	4621      	mov	r1, r4
 800749e:	4640      	mov	r0, r8
 80074a0:	f7ff feb8 	bl	8007214 <xTimerGenericCommand>
							configASSERT( xResult );
 80074a4:	2800      	cmp	r0, #0
 80074a6:	d1b1      	bne.n	800740c <prvTimerTask+0xf0>
 80074a8:	f04f 0350 	mov.w	r3, #80	; 0x50
 80074ac:	f383 8811 	msr	BASEPRI, r3
 80074b0:	f3bf 8f6f 	isb	sy
 80074b4:	f3bf 8f4f 	dsb	sy
 80074b8:	e7fe      	b.n	80074b8 <prvTimerTask+0x19c>
					pxTimer->xTimerPeriodInTicks = xMessage.u.xTimerParameters.xMessageValue;
 80074ba:	9905      	ldr	r1, [sp, #20]
 80074bc:	f8c8 1018 	str.w	r1, [r8, #24]
					configASSERT( ( pxTimer->xTimerPeriodInTicks > 0 ) );
 80074c0:	b131      	cbz	r1, 80074d0 <prvTimerTask+0x1b4>
					( void ) prvInsertTimerInActiveList( pxTimer, ( xTimeNow + pxTimer->xTimerPeriodInTicks ), xTimeNow, xTimeNow );
 80074c2:	4603      	mov	r3, r0
 80074c4:	4602      	mov	r2, r0
 80074c6:	4401      	add	r1, r0
 80074c8:	4640      	mov	r0, r8
 80074ca:	f7ff fe15 	bl	80070f8 <prvInsertTimerInActiveList>
					break;
 80074ce:	e79d      	b.n	800740c <prvTimerTask+0xf0>
 80074d0:	f04f 0350 	mov.w	r3, #80	; 0x50
 80074d4:	f383 8811 	msr	BASEPRI, r3
 80074d8:	f3bf 8f6f 	isb	sy
 80074dc:	f3bf 8f4f 	dsb	sy
					configASSERT( ( pxTimer->xTimerPeriodInTicks > 0 ) );
 80074e0:	e7fe      	b.n	80074e0 <prvTimerTask+0x1c4>
						if( pxTimer->ucStaticallyAllocated == ( uint8_t ) pdFALSE )
 80074e2:	f898 302c 	ldrb.w	r3, [r8, #44]	; 0x2c
 80074e6:	2b00      	cmp	r3, #0
 80074e8:	d190      	bne.n	800740c <prvTimerTask+0xf0>
							vPortFree( pxTimer );
 80074ea:	4640      	mov	r0, r8
 80074ec:	f000 fa52 	bl	8007994 <vPortFree>
 80074f0:	e78c      	b.n	800740c <prvTimerTask+0xf0>
 80074f2:	bf00      	nop
 80074f4:	200019b0 	.word	0x200019b0
 80074f8:	20001ad4 	.word	0x20001ad4
 80074fc:	200019b4 	.word	0x200019b4

08007500 <xTimerPendFunctionCallFromISR>:
/*-----------------------------------------------------------*/

#if( INCLUDE_xTimerPendFunctionCall == 1 )

	BaseType_t xTimerPendFunctionCallFromISR( PendedFunction_t xFunctionToPend, void *pvParameter1, uint32_t ulParameter2, BaseType_t *pxHigherPriorityTaskWoken )
	{
 8007500:	b510      	push	{r4, lr}
 8007502:	b084      	sub	sp, #16
 8007504:	4614      	mov	r4, r2
 8007506:	461a      	mov	r2, r3
	DaemonTaskMessage_t xMessage;
	BaseType_t xReturn;

		/* Complete the message with the function parameters and post it to the
		daemon task. */
		xMessage.xMessageID = tmrCOMMAND_EXECUTE_CALLBACK_FROM_ISR;
 8007508:	f06f 0301 	mvn.w	r3, #1
 800750c:	9300      	str	r3, [sp, #0]
		xMessage.u.xCallbackParameters.pxCallbackFunction = xFunctionToPend;
 800750e:	9001      	str	r0, [sp, #4]
		xMessage.u.xCallbackParameters.pvParameter1 = pvParameter1;
 8007510:	9102      	str	r1, [sp, #8]
		xMessage.u.xCallbackParameters.ulParameter2 = ulParameter2;
 8007512:	9403      	str	r4, [sp, #12]

		xReturn = xQueueSendFromISR( xTimerQueue, &xMessage, pxHigherPriorityTaskWoken );
 8007514:	2300      	movs	r3, #0
 8007516:	4669      	mov	r1, sp
 8007518:	4802      	ldr	r0, [pc, #8]	; (8007524 <xTimerPendFunctionCallFromISR+0x24>)
 800751a:	6800      	ldr	r0, [r0, #0]
 800751c:	f7fe fce4 	bl	8005ee8 <xQueueGenericSendFromISR>

		tracePEND_FUNC_CALL_FROM_ISR( xFunctionToPend, pvParameter1, ulParameter2, xReturn );

		return xReturn;
	}
 8007520:	b004      	add	sp, #16
 8007522:	bd10      	pop	{r4, pc}
 8007524:	20001ad4 	.word	0x20001ad4

08007528 <prvTaskExitError>:
	return pxTopOfStack;
}
/*-----------------------------------------------------------*/

static void prvTaskExitError( void )
{
 8007528:	b082      	sub	sp, #8
volatile uint32_t ulDummy = 0UL;
 800752a:	2300      	movs	r3, #0
 800752c:	9301      	str	r3, [sp, #4]
	its caller as there is nothing to return to.  If a task wants to exit it
	should instead call vTaskDelete( NULL ).

	Artificially force an assert() to be triggered if configASSERT() is
	defined, then stop here so application writers can catch the error. */
	configASSERT( uxCriticalNesting == ~0UL );
 800752e:	4b0d      	ldr	r3, [pc, #52]	; (8007564 <prvTaskExitError+0x3c>)
 8007530:	681b      	ldr	r3, [r3, #0]
 8007532:	f1b3 3fff 	cmp.w	r3, #4294967295
 8007536:	d008      	beq.n	800754a <prvTaskExitError+0x22>
 8007538:	f04f 0350 	mov.w	r3, #80	; 0x50
 800753c:	f383 8811 	msr	BASEPRI, r3
 8007540:	f3bf 8f6f 	isb	sy
 8007544:	f3bf 8f4f 	dsb	sy
 8007548:	e7fe      	b.n	8007548 <prvTaskExitError+0x20>
 800754a:	f04f 0350 	mov.w	r3, #80	; 0x50
 800754e:	f383 8811 	msr	BASEPRI, r3
 8007552:	f3bf 8f6f 	isb	sy
 8007556:	f3bf 8f4f 	dsb	sy
	portDISABLE_INTERRUPTS();
	while( ulDummy == 0 )
 800755a:	9b01      	ldr	r3, [sp, #4]
 800755c:	2b00      	cmp	r3, #0
 800755e:	d0fc      	beq.n	800755a <prvTaskExitError+0x32>
		about code appearing after this function is called - making ulDummy
		volatile makes the compiler think the function could return and
		therefore not output an 'unreachable code' warning for code that appears
		after it. */
	}
}
 8007560:	b002      	add	sp, #8
 8007562:	4770      	bx	lr
 8007564:	20000634 	.word	0x20000634

08007568 <prvPortStartFirstTask>:
}
/*-----------------------------------------------------------*/

static void prvPortStartFirstTask( void )
{
	__asm volatile(
 8007568:	4806      	ldr	r0, [pc, #24]	; (8007584 <prvPortStartFirstTask+0x1c>)
 800756a:	6800      	ldr	r0, [r0, #0]
 800756c:	6800      	ldr	r0, [r0, #0]
 800756e:	f380 8808 	msr	MSP, r0
 8007572:	b662      	cpsie	i
 8007574:	b661      	cpsie	f
 8007576:	f3bf 8f4f 	dsb	sy
 800757a:	f3bf 8f6f 	isb	sy
 800757e:	df00      	svc	0
 8007580:	bf00      	nop
					" dsb					\n"
					" isb					\n"
					" svc 0					\n" /* System call to start first task. */
					" nop					\n"
				);
}
 8007582:	0000      	.short	0x0000
 8007584:	e000ed08 	.word	0xe000ed08

08007588 <pxPortInitialiseStack>:
	*pxTopOfStack = portINITIAL_XPSR;	/* xPSR */
 8007588:	f04f 7380 	mov.w	r3, #16777216	; 0x1000000
 800758c:	f840 3c04 	str.w	r3, [r0, #-4]
	*pxTopOfStack = ( ( StackType_t ) pxCode ) & portSTART_ADDRESS_MASK;	/* PC */
 8007590:	f021 0101 	bic.w	r1, r1, #1
 8007594:	f840 1c08 	str.w	r1, [r0, #-8]
	*pxTopOfStack = ( StackType_t ) portTASK_RETURN_ADDRESS;	/* LR */
 8007598:	4b03      	ldr	r3, [pc, #12]	; (80075a8 <pxPortInitialiseStack+0x20>)
 800759a:	f840 3c0c 	str.w	r3, [r0, #-12]
	*pxTopOfStack = ( StackType_t ) pvParameters;	/* R0 */
 800759e:	f840 2c20 	str.w	r2, [r0, #-32]
}
 80075a2:	3840      	subs	r0, #64	; 0x40
 80075a4:	4770      	bx	lr
 80075a6:	bf00      	nop
 80075a8:	08007529 	.word	0x08007529
 80075ac:	00000000 	.word	0x00000000

080075b0 <SVC_Handler>:
	__asm volatile (
 80075b0:	4b07      	ldr	r3, [pc, #28]	; (80075d0 <pxCurrentTCBConst2>)
 80075b2:	6819      	ldr	r1, [r3, #0]
 80075b4:	6808      	ldr	r0, [r1, #0]
 80075b6:	e8b0 0ff0 	ldmia.w	r0!, {r4, r5, r6, r7, r8, r9, sl, fp}
 80075ba:	f380 8809 	msr	PSP, r0
 80075be:	f3bf 8f6f 	isb	sy
 80075c2:	f04f 0000 	mov.w	r0, #0
 80075c6:	f380 8811 	msr	BASEPRI, r0
 80075ca:	f04e 0e0d 	orr.w	lr, lr, #13
 80075ce:	4770      	bx	lr

080075d0 <pxCurrentTCBConst2>:
 80075d0:	200014b4 	.word	0x200014b4

080075d4 <vPortEnterCritical>:
 80075d4:	f04f 0350 	mov.w	r3, #80	; 0x50
 80075d8:	f383 8811 	msr	BASEPRI, r3
 80075dc:	f3bf 8f6f 	isb	sy
 80075e0:	f3bf 8f4f 	dsb	sy
/*-----------------------------------------------------------*/

void vPortEnterCritical( void )
{
	portDISABLE_INTERRUPTS();
	uxCriticalNesting++;
 80075e4:	4a0b      	ldr	r2, [pc, #44]	; (8007614 <vPortEnterCritical+0x40>)
 80075e6:	6813      	ldr	r3, [r2, #0]
 80075e8:	3301      	adds	r3, #1
 80075ea:	6013      	str	r3, [r2, #0]
	/* This is not the interrupt safe version of the enter critical function so
	assert() if it is being called from an interrupt context.  Only API
	functions that end in "FromISR" can be used in an interrupt.  Only assert if
	the critical nesting count is 1 to protect against recursive calls if the
	assert function also uses a critical section. */
	if( uxCriticalNesting == 1 )
 80075ec:	2b01      	cmp	r3, #1
 80075ee:	d000      	beq.n	80075f2 <vPortEnterCritical+0x1e>
	{
		configASSERT( ( portNVIC_INT_CTRL_REG & portVECTACTIVE_MASK ) == 0 );
	}
}
 80075f0:	4770      	bx	lr
		configASSERT( ( portNVIC_INT_CTRL_REG & portVECTACTIVE_MASK ) == 0 );
 80075f2:	f04f 23e0 	mov.w	r3, #3758153728	; 0xe000e000
 80075f6:	f8d3 3d04 	ldr.w	r3, [r3, #3332]	; 0xd04
 80075fa:	f013 0fff 	tst.w	r3, #255	; 0xff
 80075fe:	d0f7      	beq.n	80075f0 <vPortEnterCritical+0x1c>
 8007600:	f04f 0350 	mov.w	r3, #80	; 0x50
 8007604:	f383 8811 	msr	BASEPRI, r3
 8007608:	f3bf 8f6f 	isb	sy
 800760c:	f3bf 8f4f 	dsb	sy
 8007610:	e7fe      	b.n	8007610 <vPortEnterCritical+0x3c>
 8007612:	bf00      	nop
 8007614:	20000634 	.word	0x20000634

08007618 <vPortExitCritical>:
/*-----------------------------------------------------------*/

void vPortExitCritical( void )
{
	configASSERT( uxCriticalNesting );
 8007618:	4b09      	ldr	r3, [pc, #36]	; (8007640 <vPortExitCritical+0x28>)
 800761a:	681b      	ldr	r3, [r3, #0]
 800761c:	b943      	cbnz	r3, 8007630 <vPortExitCritical+0x18>
 800761e:	f04f 0350 	mov.w	r3, #80	; 0x50
 8007622:	f383 8811 	msr	BASEPRI, r3
 8007626:	f3bf 8f6f 	isb	sy
 800762a:	f3bf 8f4f 	dsb	sy
 800762e:	e7fe      	b.n	800762e <vPortExitCritical+0x16>
	uxCriticalNesting--;
 8007630:	3b01      	subs	r3, #1
 8007632:	4a03      	ldr	r2, [pc, #12]	; (8007640 <vPortExitCritical+0x28>)
 8007634:	6013      	str	r3, [r2, #0]
	if( uxCriticalNesting == 0 )
 8007636:	b90b      	cbnz	r3, 800763c <vPortExitCritical+0x24>
	__asm volatile
 8007638:	f383 8811 	msr	BASEPRI, r3
	{
		portENABLE_INTERRUPTS();
	}
}
 800763c:	4770      	bx	lr
 800763e:	bf00      	nop
 8007640:	20000634 	.word	0x20000634
	...

08007650 <PendSV_Handler>:

void xPortPendSVHandler( void )
{
	/* This is a naked function. */

	__asm volatile
 8007650:	f3ef 8009 	mrs	r0, PSP
 8007654:	f3bf 8f6f 	isb	sy
 8007658:	4b0d      	ldr	r3, [pc, #52]	; (8007690 <pxCurrentTCBConst>)
 800765a:	681a      	ldr	r2, [r3, #0]
 800765c:	e920 0ff0 	stmdb	r0!, {r4, r5, r6, r7, r8, r9, sl, fp}
 8007660:	6010      	str	r0, [r2, #0]
 8007662:	e92d 4008 	stmdb	sp!, {r3, lr}
 8007666:	f04f 0050 	mov.w	r0, #80	; 0x50
 800766a:	f380 8811 	msr	BASEPRI, r0
 800766e:	f7ff faa1 	bl	8006bb4 <vTaskSwitchContext>
 8007672:	f04f 0000 	mov.w	r0, #0
 8007676:	f380 8811 	msr	BASEPRI, r0
 800767a:	e8bd 4008 	ldmia.w	sp!, {r3, lr}
 800767e:	6819      	ldr	r1, [r3, #0]
 8007680:	6808      	ldr	r0, [r1, #0]
 8007682:	e8b0 0ff0 	ldmia.w	r0!, {r4, r5, r6, r7, r8, r9, sl, fp}
 8007686:	f380 8809 	msr	PSP, r0
 800768a:	f3bf 8f6f 	isb	sy
 800768e:	4770      	bx	lr

08007690 <pxCurrentTCBConst>:
 8007690:	200014b4 	.word	0x200014b4

08007694 <SysTick_Handler>:
	);
}
/*-----------------------------------------------------------*/

void xPortSysTickHandler( void )
{
 8007694:	b508      	push	{r3, lr}
	__asm volatile
 8007696:	f04f 0350 	mov.w	r3, #80	; 0x50
 800769a:	f383 8811 	msr	BASEPRI, r3
 800769e:	f3bf 8f6f 	isb	sy
 80076a2:	f3bf 8f4f 	dsb	sy
	save and then restore the interrupt mask value as its value is already
	known. */
	portDISABLE_INTERRUPTS();
	{
		/* Increment the RTOS tick. */
		if( xTaskIncrementTick() != pdFALSE )
 80076a6:	f7ff f919 	bl	80068dc <xTaskIncrementTick>
 80076aa:	b128      	cbz	r0, 80076b8 <SysTick_Handler+0x24>
		{
			/* A context switch is required.  Context switching is performed in
			the PendSV interrupt.  Pend the PendSV interrupt. */
			portNVIC_INT_CTRL_REG = portNVIC_PENDSVSET_BIT;
 80076ac:	f04f 23e0 	mov.w	r3, #3758153728	; 0xe000e000
 80076b0:	f04f 5280 	mov.w	r2, #268435456	; 0x10000000
 80076b4:	f8c3 2d04 	str.w	r2, [r3, #3332]	; 0xd04
	__asm volatile
 80076b8:	2300      	movs	r3, #0
 80076ba:	f383 8811 	msr	BASEPRI, r3
		}
	}
	portENABLE_INTERRUPTS();
}
 80076be:	bd08      	pop	{r3, pc}

080076c0 <vPortSetupTimerInterrupt>:
		ulStoppedTimerCompensation = portMISSED_COUNTS_FACTOR / ( configCPU_CLOCK_HZ / configSYSTICK_CLOCK_HZ );
	}
	#endif /* configUSE_TICKLESS_IDLE */

	/* Stop and clear the SysTick. */
	portNVIC_SYSTICK_CTRL_REG = 0UL;
 80076c0:	f04f 22e0 	mov.w	r2, #3758153728	; 0xe000e000
 80076c4:	2300      	movs	r3, #0
 80076c6:	6113      	str	r3, [r2, #16]
	portNVIC_SYSTICK_CURRENT_VALUE_REG = 0UL;
 80076c8:	6193      	str	r3, [r2, #24]

	/* Configure SysTick to interrupt at the requested rate. */
	portNVIC_SYSTICK_LOAD_REG = ( configSYSTICK_CLOCK_HZ / configTICK_RATE_HZ ) - 1UL;
 80076ca:	4b05      	ldr	r3, [pc, #20]	; (80076e0 <vPortSetupTimerInterrupt+0x20>)
 80076cc:	681b      	ldr	r3, [r3, #0]
 80076ce:	4905      	ldr	r1, [pc, #20]	; (80076e4 <vPortSetupTimerInterrupt+0x24>)
 80076d0:	fba1 1303 	umull	r1, r3, r1, r3
 80076d4:	099b      	lsrs	r3, r3, #6
 80076d6:	3b01      	subs	r3, #1
 80076d8:	6153      	str	r3, [r2, #20]
	portNVIC_SYSTICK_CTRL_REG = ( portNVIC_SYSTICK_CLK_BIT | portNVIC_SYSTICK_INT_BIT | portNVIC_SYSTICK_ENABLE_BIT );
 80076da:	2307      	movs	r3, #7
 80076dc:	6113      	str	r3, [r2, #16]
}
 80076de:	4770      	bx	lr
 80076e0:	20000628 	.word	0x20000628
 80076e4:	10624dd3 	.word	0x10624dd3

080076e8 <xPortStartScheduler>:
{
 80076e8:	b510      	push	{r4, lr}
 80076ea:	b082      	sub	sp, #8
		ulOriginalPriority = *pucFirstUserPriorityRegister;
 80076ec:	4b2c      	ldr	r3, [pc, #176]	; (80077a0 <xPortStartScheduler+0xb8>)
 80076ee:	781a      	ldrb	r2, [r3, #0]
 80076f0:	b2d2      	uxtb	r2, r2
 80076f2:	9201      	str	r2, [sp, #4]
		*pucFirstUserPriorityRegister = portMAX_8_BIT_VALUE;
 80076f4:	22ff      	movs	r2, #255	; 0xff
 80076f6:	701a      	strb	r2, [r3, #0]
		ucMaxPriorityValue = *pucFirstUserPriorityRegister;
 80076f8:	781b      	ldrb	r3, [r3, #0]
 80076fa:	b2db      	uxtb	r3, r3
 80076fc:	f88d 3003 	strb.w	r3, [sp, #3]
		ucMaxSysCallPriority = configMAX_SYSCALL_INTERRUPT_PRIORITY & ucMaxPriorityValue;
 8007700:	f89d 3003 	ldrb.w	r3, [sp, #3]
 8007704:	f003 0350 	and.w	r3, r3, #80	; 0x50
 8007708:	4a26      	ldr	r2, [pc, #152]	; (80077a4 <xPortStartScheduler+0xbc>)
 800770a:	7013      	strb	r3, [r2, #0]
		ulMaxPRIGROUPValue = portMAX_PRIGROUP_BITS;
 800770c:	4b26      	ldr	r3, [pc, #152]	; (80077a8 <xPortStartScheduler+0xc0>)
 800770e:	2207      	movs	r2, #7
 8007710:	601a      	str	r2, [r3, #0]
		while( ( ucMaxPriorityValue & portTOP_BIT_OF_BYTE ) == portTOP_BIT_OF_BYTE )
 8007712:	f89d 3003 	ldrb.w	r3, [sp, #3]
 8007716:	f013 0f80 	tst.w	r3, #128	; 0x80
 800771a:	d013      	beq.n	8007744 <xPortStartScheduler+0x5c>
 800771c:	2206      	movs	r2, #6
			ucMaxPriorityValue <<= ( uint8_t ) 0x01;
 800771e:	f89d 3003 	ldrb.w	r3, [sp, #3]
 8007722:	005b      	lsls	r3, r3, #1
 8007724:	b2db      	uxtb	r3, r3
 8007726:	f88d 3003 	strb.w	r3, [sp, #3]
		while( ( ucMaxPriorityValue & portTOP_BIT_OF_BYTE ) == portTOP_BIT_OF_BYTE )
 800772a:	f89d 1003 	ldrb.w	r1, [sp, #3]
 800772e:	4610      	mov	r0, r2
 8007730:	3a01      	subs	r2, #1
 8007732:	f011 0f80 	tst.w	r1, #128	; 0x80
 8007736:	d1f2      	bne.n	800771e <xPortStartScheduler+0x36>
 8007738:	4a1b      	ldr	r2, [pc, #108]	; (80077a8 <xPortStartScheduler+0xc0>)
 800773a:	6010      	str	r0, [r2, #0]
 800773c:	f88d 3003 	strb.w	r3, [sp, #3]
			configASSERT( ( portMAX_PRIGROUP_BITS - ulMaxPRIGROUPValue ) == configPRIO_BITS );
 8007740:	2803      	cmp	r0, #3
 8007742:	d008      	beq.n	8007756 <xPortStartScheduler+0x6e>
	__asm volatile
 8007744:	f04f 0350 	mov.w	r3, #80	; 0x50
 8007748:	f383 8811 	msr	BASEPRI, r3
 800774c:	f3bf 8f6f 	isb	sy
 8007750:	f3bf 8f4f 	dsb	sy
 8007754:	e7fe      	b.n	8007754 <xPortStartScheduler+0x6c>
		ulMaxPRIGROUPValue &= portPRIORITY_GROUP_MASK;
 8007756:	4b14      	ldr	r3, [pc, #80]	; (80077a8 <xPortStartScheduler+0xc0>)
 8007758:	f44f 7240 	mov.w	r2, #768	; 0x300
 800775c:	601a      	str	r2, [r3, #0]
		*pucFirstUserPriorityRegister = ulOriginalPriority;
 800775e:	9b01      	ldr	r3, [sp, #4]
 8007760:	b2db      	uxtb	r3, r3
 8007762:	4a0f      	ldr	r2, [pc, #60]	; (80077a0 <xPortStartScheduler+0xb8>)
 8007764:	7013      	strb	r3, [r2, #0]
	portNVIC_SYSPRI2_REG |= portNVIC_PENDSV_PRI;
 8007766:	f04f 23e0 	mov.w	r3, #3758153728	; 0xe000e000
 800776a:	f8d3 2d20 	ldr.w	r2, [r3, #3360]	; 0xd20
 800776e:	f442 0270 	orr.w	r2, r2, #15728640	; 0xf00000
 8007772:	f8c3 2d20 	str.w	r2, [r3, #3360]	; 0xd20
	portNVIC_SYSPRI2_REG |= portNVIC_SYSTICK_PRI;
 8007776:	f8d3 2d20 	ldr.w	r2, [r3, #3360]	; 0xd20
 800777a:	f042 4270 	orr.w	r2, r2, #4026531840	; 0xf0000000
 800777e:	f8c3 2d20 	str.w	r2, [r3, #3360]	; 0xd20
	vPortSetupTimerInterrupt();
 8007782:	f7ff ff9d 	bl	80076c0 <vPortSetupTimerInterrupt>
	uxCriticalNesting = 0;
 8007786:	2400      	movs	r4, #0
 8007788:	4b08      	ldr	r3, [pc, #32]	; (80077ac <xPortStartScheduler+0xc4>)
 800778a:	601c      	str	r4, [r3, #0]
	prvPortStartFirstTask();
 800778c:	f7ff feec 	bl	8007568 <prvPortStartFirstTask>
	vTaskSwitchContext();
 8007790:	f7ff fa10 	bl	8006bb4 <vTaskSwitchContext>
	prvTaskExitError();
 8007794:	f7ff fec8 	bl	8007528 <prvTaskExitError>
}
 8007798:	4620      	mov	r0, r4
 800779a:	b002      	add	sp, #8
 800779c:	bd10      	pop	{r4, pc}
 800779e:	bf00      	nop
 80077a0:	e000e400 	.word	0xe000e400
 80077a4:	20001adc 	.word	0x20001adc
 80077a8:	20001ae0 	.word	0x20001ae0
 80077ac:	20000634 	.word	0x20000634

080077b0 <vPortValidateInterruptPriority>:
	{
	uint32_t ulCurrentInterrupt;
	uint8_t ucCurrentPriority;

		/* Obtain the number of the currently executing interrupt. */
		__asm volatile( "mrs %0, ipsr" : "=r"( ulCurrentInterrupt ) :: "memory" );
 80077b0:	f3ef 8305 	mrs	r3, IPSR

		/* Is the interrupt number a user defined interrupt? */
		if( ulCurrentInterrupt >= portFIRST_USER_INTERRUPT_NUMBER )
 80077b4:	2b0f      	cmp	r3, #15
 80077b6:	d90f      	bls.n	80077d8 <vPortValidateInterruptPriority+0x28>
		{
			/* Look up the interrupt's priority. */
			ucCurrentPriority = pcInterruptPriorityRegisters[ ulCurrentInterrupt ];
 80077b8:	4a11      	ldr	r2, [pc, #68]	; (8007800 <vPortValidateInterruptPriority+0x50>)
 80077ba:	5c9b      	ldrb	r3, [r3, r2]
 80077bc:	b2db      	uxtb	r3, r3
			interrupt entry is as fast and simple as possible.

			The following links provide detailed information:
			http://www.freertos.org/RTOS-Cortex-M3-M4.html
			http://www.freertos.org/FAQHelp.html */
			configASSERT( ucCurrentPriority >= ucMaxSysCallPriority );
 80077be:	4a11      	ldr	r2, [pc, #68]	; (8007804 <vPortValidateInterruptPriority+0x54>)
 80077c0:	7812      	ldrb	r2, [r2, #0]
 80077c2:	429a      	cmp	r2, r3
 80077c4:	d908      	bls.n	80077d8 <vPortValidateInterruptPriority+0x28>
 80077c6:	f04f 0350 	mov.w	r3, #80	; 0x50
 80077ca:	f383 8811 	msr	BASEPRI, r3
 80077ce:	f3bf 8f6f 	isb	sy
 80077d2:	f3bf 8f4f 	dsb	sy
 80077d6:	e7fe      	b.n	80077d6 <vPortValidateInterruptPriority+0x26>
		configuration then the correct setting can be achieved on all Cortex-M
		devices by calling NVIC_SetPriorityGrouping( 0 ); before starting the
		scheduler.  Note however that some vendor specific peripheral libraries
		assume a non-zero priority group setting, in which cases using a value
		of zero will result in unpredictable behaviour. */
		configASSERT( ( portAIRCR_REG & portPRIORITY_GROUP_MASK ) <= ulMaxPRIGROUPValue );
 80077d8:	f04f 23e0 	mov.w	r3, #3758153728	; 0xe000e000
 80077dc:	f8d3 3d0c 	ldr.w	r3, [r3, #3340]	; 0xd0c
 80077e0:	f403 63e0 	and.w	r3, r3, #1792	; 0x700
 80077e4:	4a08      	ldr	r2, [pc, #32]	; (8007808 <vPortValidateInterruptPriority+0x58>)
 80077e6:	6812      	ldr	r2, [r2, #0]
 80077e8:	4293      	cmp	r3, r2
 80077ea:	d908      	bls.n	80077fe <vPortValidateInterruptPriority+0x4e>
 80077ec:	f04f 0350 	mov.w	r3, #80	; 0x50
 80077f0:	f383 8811 	msr	BASEPRI, r3
 80077f4:	f3bf 8f6f 	isb	sy
 80077f8:	f3bf 8f4f 	dsb	sy
 80077fc:	e7fe      	b.n	80077fc <vPortValidateInterruptPriority+0x4c>
	}
 80077fe:	4770      	bx	lr
 8007800:	e000e3f0 	.word	0xe000e3f0
 8007804:	20001adc 	.word	0x20001adc
 8007808:	20001ae0 	.word	0x20001ae0

0800780c <prvInsertBlockIntoFreeList>:
	xBlockAllocatedBit = ( ( size_t ) 1 ) << ( ( sizeof( size_t ) * heapBITS_PER_BYTE ) - 1 );
}
/*-----------------------------------------------------------*/

static void prvInsertBlockIntoFreeList( BlockLink_t *pxBlockToInsert )
{
 800780c:	b410      	push	{r4}
BlockLink_t *pxIterator;
uint8_t *puc;

	/* Iterate through the list until a block is found that has a higher address
	than the block being inserted. */
	for( pxIterator = &xStart; pxIterator->pxNextFreeBlock < pxBlockToInsert; pxIterator = pxIterator->pxNextFreeBlock )
 800780e:	4b14      	ldr	r3, [pc, #80]	; (8007860 <prvInsertBlockIntoFreeList+0x54>)
 8007810:	461a      	mov	r2, r3
 8007812:	681b      	ldr	r3, [r3, #0]
 8007814:	4283      	cmp	r3, r0
 8007816:	d3fb      	bcc.n	8007810 <prvInsertBlockIntoFreeList+0x4>
	}

	/* Do the block being inserted, and the block it is being inserted after
	make a contiguous block of memory? */
	puc = ( uint8_t * ) pxIterator;
	if( ( puc + pxIterator->xBlockSize ) == ( uint8_t * ) pxBlockToInsert )
 8007818:	6854      	ldr	r4, [r2, #4]
 800781a:	1911      	adds	r1, r2, r4
 800781c:	4288      	cmp	r0, r1
 800781e:	d009      	beq.n	8007834 <prvInsertBlockIntoFreeList+0x28>
	}

	/* Do the block being inserted, and the block it is being inserted before
	make a contiguous block of memory? */
	puc = ( uint8_t * ) pxBlockToInsert;
	if( ( puc + pxBlockToInsert->xBlockSize ) == ( uint8_t * ) pxIterator->pxNextFreeBlock )
 8007820:	6844      	ldr	r4, [r0, #4]
 8007822:	1901      	adds	r1, r0, r4
 8007824:	428b      	cmp	r3, r1
 8007826:	d00f      	beq.n	8007848 <prvInsertBlockIntoFreeList+0x3c>
			pxBlockToInsert->xBlockSize += pxIterator->pxNextFreeBlock->xBlockSize;
			pxBlockToInsert->pxNextFreeBlock = pxIterator->pxNextFreeBlock->pxNextFreeBlock;
		}
		else
		{
			pxBlockToInsert->pxNextFreeBlock = pxEnd;
 8007828:	6003      	str	r3, [r0, #0]

	/* If the block being inserted plugged a gab, so was merged with the block
	before and the block after, then it's pxNextFreeBlock pointer will have
	already been set, and should not be set here as that would make it point
	to itself. */
	if( pxIterator != pxBlockToInsert )
 800782a:	4282      	cmp	r2, r0
 800782c:	d000      	beq.n	8007830 <prvInsertBlockIntoFreeList+0x24>
	{
		pxIterator->pxNextFreeBlock = pxBlockToInsert;
 800782e:	6010      	str	r0, [r2, #0]
	}
	else
	{
		mtCOVERAGE_TEST_MARKER();
	}
}
 8007830:	bc10      	pop	{r4}
 8007832:	4770      	bx	lr
		pxIterator->xBlockSize += pxBlockToInsert->xBlockSize;
 8007834:	6841      	ldr	r1, [r0, #4]
 8007836:	4421      	add	r1, r4
 8007838:	6051      	str	r1, [r2, #4]
	if( ( puc + pxBlockToInsert->xBlockSize ) == ( uint8_t * ) pxIterator->pxNextFreeBlock )
 800783a:	460c      	mov	r4, r1
 800783c:	4411      	add	r1, r2
 800783e:	428b      	cmp	r3, r1
 8007840:	d001      	beq.n	8007846 <prvInsertBlockIntoFreeList+0x3a>
			pxBlockToInsert->pxNextFreeBlock = pxEnd;
 8007842:	6013      	str	r3, [r2, #0]
	if( pxIterator != pxBlockToInsert )
 8007844:	e7f4      	b.n	8007830 <prvInsertBlockIntoFreeList+0x24>
	if( ( puc + pxBlockToInsert->xBlockSize ) == ( uint8_t * ) pxIterator->pxNextFreeBlock )
 8007846:	4610      	mov	r0, r2
		if( pxIterator->pxNextFreeBlock != pxEnd )
 8007848:	4906      	ldr	r1, [pc, #24]	; (8007864 <prvInsertBlockIntoFreeList+0x58>)
 800784a:	6809      	ldr	r1, [r1, #0]
 800784c:	428b      	cmp	r3, r1
 800784e:	d005      	beq.n	800785c <prvInsertBlockIntoFreeList+0x50>
			pxBlockToInsert->xBlockSize += pxIterator->pxNextFreeBlock->xBlockSize;
 8007850:	685b      	ldr	r3, [r3, #4]
 8007852:	4423      	add	r3, r4
 8007854:	6043      	str	r3, [r0, #4]
			pxBlockToInsert->pxNextFreeBlock = pxIterator->pxNextFreeBlock->pxNextFreeBlock;
 8007856:	6813      	ldr	r3, [r2, #0]
 8007858:	681b      	ldr	r3, [r3, #0]
 800785a:	e7e5      	b.n	8007828 <prvInsertBlockIntoFreeList+0x1c>
 800785c:	460b      	mov	r3, r1
 800785e:	e7e3      	b.n	8007828 <prvInsertBlockIntoFreeList+0x1c>
 8007860:	20002a94 	.word	0x20002a94
 8007864:	20001ae4 	.word	0x20001ae4

08007868 <pvPortMalloc>:
{
 8007868:	b5f8      	push	{r3, r4, r5, r6, r7, lr}
 800786a:	4604      	mov	r4, r0
	vTaskSuspendAll();
 800786c:	f7ff f828 	bl	80068c0 <vTaskSuspendAll>
		if( pxEnd == NULL )
 8007870:	4b42      	ldr	r3, [pc, #264]	; (800797c <pvPortMalloc+0x114>)
 8007872:	681b      	ldr	r3, [r3, #0]
 8007874:	b1b3      	cbz	r3, 80078a4 <pvPortMalloc+0x3c>
		if( ( xWantedSize & xBlockAllocatedBit ) == 0 )
 8007876:	4b42      	ldr	r3, [pc, #264]	; (8007980 <pvPortMalloc+0x118>)
 8007878:	681d      	ldr	r5, [r3, #0]
 800787a:	4225      	tst	r5, r4
 800787c:	d179      	bne.n	8007972 <pvPortMalloc+0x10a>
			if( xWantedSize > 0 )
 800787e:	2c00      	cmp	r4, #0
 8007880:	d077      	beq.n	8007972 <pvPortMalloc+0x10a>
				xWantedSize += xHeapStructSize;
 8007882:	f104 0208 	add.w	r2, r4, #8
				if( ( xWantedSize & portBYTE_ALIGNMENT_MASK ) != 0x00 )
 8007886:	f014 0f07 	tst.w	r4, #7
					xWantedSize += ( portBYTE_ALIGNMENT - ( xWantedSize & portBYTE_ALIGNMENT_MASK ) );
 800788a:	bf1c      	itt	ne
 800788c:	f022 0207 	bicne.w	r2, r2, #7
 8007890:	3208      	addne	r2, #8
			if( ( xWantedSize > 0 ) && ( xWantedSize <= xFreeBytesRemaining ) )
 8007892:	2a00      	cmp	r2, #0
 8007894:	d06d      	beq.n	8007972 <pvPortMalloc+0x10a>
 8007896:	4b3b      	ldr	r3, [pc, #236]	; (8007984 <pvPortMalloc+0x11c>)
 8007898:	681e      	ldr	r6, [r3, #0]
 800789a:	4296      	cmp	r6, r2
 800789c:	d369      	bcc.n	8007972 <pvPortMalloc+0x10a>
				pxBlock = xStart.pxNextFreeBlock;
 800789e:	493a      	ldr	r1, [pc, #232]	; (8007988 <pvPortMalloc+0x120>)
 80078a0:	680c      	ldr	r4, [r1, #0]
				while( ( pxBlock->xBlockSize < xWantedSize ) && ( pxBlock->pxNextFreeBlock != NULL ) )
 80078a2:	e027      	b.n	80078f4 <pvPortMalloc+0x8c>
	uxAddress = ( size_t ) ucHeap;
 80078a4:	4a39      	ldr	r2, [pc, #228]	; (800798c <pvPortMalloc+0x124>)
	if( ( uxAddress & portBYTE_ALIGNMENT_MASK ) != 0 )
 80078a6:	f012 0f07 	tst.w	r2, #7
 80078aa:	d007      	beq.n	80078bc <pvPortMalloc+0x54>
		uxAddress += ( portBYTE_ALIGNMENT - 1 );
 80078ac:	1dd1      	adds	r1, r2, #7
		uxAddress &= ~( ( size_t ) portBYTE_ALIGNMENT_MASK );
 80078ae:	f021 0107 	bic.w	r1, r1, #7
		xTotalHeapSize -= uxAddress - ( size_t ) ucHeap;
 80078b2:	f502 627a 	add.w	r2, r2, #4000	; 0xfa0
 80078b6:	1a53      	subs	r3, r2, r1
		uxAddress &= ~( ( size_t ) portBYTE_ALIGNMENT_MASK );
 80078b8:	460a      	mov	r2, r1
 80078ba:	e001      	b.n	80078c0 <pvPortMalloc+0x58>
size_t xTotalHeapSize = configTOTAL_HEAP_SIZE;
 80078bc:	f44f 637a 	mov.w	r3, #4000	; 0xfa0
	xStart.pxNextFreeBlock = ( void * ) pucAlignedHeap;
 80078c0:	4831      	ldr	r0, [pc, #196]	; (8007988 <pvPortMalloc+0x120>)
 80078c2:	6002      	str	r2, [r0, #0]
	xStart.xBlockSize = ( size_t ) 0;
 80078c4:	2100      	movs	r1, #0
 80078c6:	6041      	str	r1, [r0, #4]
	uxAddress = ( ( size_t ) pucAlignedHeap ) + xTotalHeapSize;
 80078c8:	4413      	add	r3, r2
	uxAddress -= xHeapStructSize;
 80078ca:	3b08      	subs	r3, #8
	uxAddress &= ~( ( size_t ) portBYTE_ALIGNMENT_MASK );
 80078cc:	f023 0307 	bic.w	r3, r3, #7
	pxEnd = ( void * ) uxAddress;
 80078d0:	482a      	ldr	r0, [pc, #168]	; (800797c <pvPortMalloc+0x114>)
 80078d2:	6003      	str	r3, [r0, #0]
	pxEnd->xBlockSize = 0;
 80078d4:	6059      	str	r1, [r3, #4]
	pxEnd->pxNextFreeBlock = NULL;
 80078d6:	6019      	str	r1, [r3, #0]
	pxFirstFreeBlock->xBlockSize = uxAddress - ( size_t ) pxFirstFreeBlock;
 80078d8:	1a99      	subs	r1, r3, r2
 80078da:	6051      	str	r1, [r2, #4]
	pxFirstFreeBlock->pxNextFreeBlock = pxEnd;
 80078dc:	6013      	str	r3, [r2, #0]
	xMinimumEverFreeBytesRemaining = pxFirstFreeBlock->xBlockSize;
 80078de:	4b2c      	ldr	r3, [pc, #176]	; (8007990 <pvPortMalloc+0x128>)
 80078e0:	6019      	str	r1, [r3, #0]
	xFreeBytesRemaining = pxFirstFreeBlock->xBlockSize;
 80078e2:	4b28      	ldr	r3, [pc, #160]	; (8007984 <pvPortMalloc+0x11c>)
 80078e4:	6019      	str	r1, [r3, #0]
	xBlockAllocatedBit = ( ( size_t ) 1 ) << ( ( sizeof( size_t ) * heapBITS_PER_BYTE ) - 1 );
 80078e6:	4b26      	ldr	r3, [pc, #152]	; (8007980 <pvPortMalloc+0x118>)
 80078e8:	f04f 4200 	mov.w	r2, #2147483648	; 0x80000000
 80078ec:	601a      	str	r2, [r3, #0]
}
 80078ee:	e7c2      	b.n	8007876 <pvPortMalloc+0xe>
 80078f0:	4621      	mov	r1, r4
					pxBlock = pxBlock->pxNextFreeBlock;
 80078f2:	461c      	mov	r4, r3
				while( ( pxBlock->xBlockSize < xWantedSize ) && ( pxBlock->pxNextFreeBlock != NULL ) )
 80078f4:	6863      	ldr	r3, [r4, #4]
 80078f6:	4293      	cmp	r3, r2
 80078f8:	d202      	bcs.n	8007900 <pvPortMalloc+0x98>
 80078fa:	6823      	ldr	r3, [r4, #0]
 80078fc:	2b00      	cmp	r3, #0
 80078fe:	d1f7      	bne.n	80078f0 <pvPortMalloc+0x88>
				if( pxBlock != pxEnd )
 8007900:	4b1e      	ldr	r3, [pc, #120]	; (800797c <pvPortMalloc+0x114>)
 8007902:	681b      	ldr	r3, [r3, #0]
 8007904:	42a3      	cmp	r3, r4
 8007906:	d034      	beq.n	8007972 <pvPortMalloc+0x10a>
					pvReturn = ( void * ) ( ( ( uint8_t * ) pxPreviousBlock->pxNextFreeBlock ) + xHeapStructSize );
 8007908:	680f      	ldr	r7, [r1, #0]
 800790a:	3708      	adds	r7, #8
					pxPreviousBlock->pxNextFreeBlock = pxBlock->pxNextFreeBlock;
 800790c:	6823      	ldr	r3, [r4, #0]
 800790e:	600b      	str	r3, [r1, #0]
					if( ( pxBlock->xBlockSize - xWantedSize ) > heapMINIMUM_BLOCK_SIZE )
 8007910:	6863      	ldr	r3, [r4, #4]
 8007912:	1a9b      	subs	r3, r3, r2
 8007914:	2b10      	cmp	r3, #16
 8007916:	d910      	bls.n	800793a <pvPortMalloc+0xd2>
						pxNewBlockLink = ( void * ) ( ( ( uint8_t * ) pxBlock ) + xWantedSize );
 8007918:	18a0      	adds	r0, r4, r2
						configASSERT( ( ( ( size_t ) pxNewBlockLink ) & portBYTE_ALIGNMENT_MASK ) == 0 );
 800791a:	f010 0f07 	tst.w	r0, #7
 800791e:	d008      	beq.n	8007932 <pvPortMalloc+0xca>
 8007920:	f04f 0350 	mov.w	r3, #80	; 0x50
 8007924:	f383 8811 	msr	BASEPRI, r3
 8007928:	f3bf 8f6f 	isb	sy
 800792c:	f3bf 8f4f 	dsb	sy
 8007930:	e7fe      	b.n	8007930 <pvPortMalloc+0xc8>
						pxNewBlockLink->xBlockSize = pxBlock->xBlockSize - xWantedSize;
 8007932:	6043      	str	r3, [r0, #4]
						pxBlock->xBlockSize = xWantedSize;
 8007934:	6062      	str	r2, [r4, #4]
						prvInsertBlockIntoFreeList( pxNewBlockLink );
 8007936:	f7ff ff69 	bl	800780c <prvInsertBlockIntoFreeList>
					xFreeBytesRemaining -= pxBlock->xBlockSize;
 800793a:	6863      	ldr	r3, [r4, #4]
 800793c:	1af6      	subs	r6, r6, r3
 800793e:	4a11      	ldr	r2, [pc, #68]	; (8007984 <pvPortMalloc+0x11c>)
 8007940:	6016      	str	r6, [r2, #0]
					if( xFreeBytesRemaining < xMinimumEverFreeBytesRemaining )
 8007942:	4a13      	ldr	r2, [pc, #76]	; (8007990 <pvPortMalloc+0x128>)
 8007944:	6812      	ldr	r2, [r2, #0]
 8007946:	4296      	cmp	r6, r2
						xMinimumEverFreeBytesRemaining = xFreeBytesRemaining;
 8007948:	bf3c      	itt	cc
 800794a:	4a11      	ldrcc	r2, [pc, #68]	; (8007990 <pvPortMalloc+0x128>)
 800794c:	6016      	strcc	r6, [r2, #0]
					pxBlock->xBlockSize |= xBlockAllocatedBit;
 800794e:	431d      	orrs	r5, r3
 8007950:	6065      	str	r5, [r4, #4]
					pxBlock->pxNextFreeBlock = NULL;
 8007952:	2300      	movs	r3, #0
 8007954:	6023      	str	r3, [r4, #0]
	( void ) xTaskResumeAll();
 8007956:	f7ff f85b 	bl	8006a10 <xTaskResumeAll>
	configASSERT( ( ( ( size_t ) pvReturn ) & ( size_t ) portBYTE_ALIGNMENT_MASK ) == 0 );
 800795a:	f017 0f07 	tst.w	r7, #7
 800795e:	d00b      	beq.n	8007978 <pvPortMalloc+0x110>
 8007960:	f04f 0350 	mov.w	r3, #80	; 0x50
 8007964:	f383 8811 	msr	BASEPRI, r3
 8007968:	f3bf 8f6f 	isb	sy
 800796c:	f3bf 8f4f 	dsb	sy
 8007970:	e7fe      	b.n	8007970 <pvPortMalloc+0x108>
	( void ) xTaskResumeAll();
 8007972:	f7ff f84d 	bl	8006a10 <xTaskResumeAll>
 8007976:	2700      	movs	r7, #0
}
 8007978:	4638      	mov	r0, r7
 800797a:	bdf8      	pop	{r3, r4, r5, r6, r7, pc}
 800797c:	20001ae4 	.word	0x20001ae4
 8007980:	20002a88 	.word	0x20002a88
 8007984:	20002a8c 	.word	0x20002a8c
 8007988:	20002a94 	.word	0x20002a94
 800798c:	20001ae8 	.word	0x20001ae8
 8007990:	20002a90 	.word	0x20002a90

08007994 <vPortFree>:
	if( pv != NULL )
 8007994:	b378      	cbz	r0, 80079f6 <vPortFree+0x62>
{
 8007996:	b510      	push	{r4, lr}
 8007998:	4604      	mov	r4, r0
		configASSERT( ( pxLink->xBlockSize & xBlockAllocatedBit ) != 0 );
 800799a:	f850 3c04 	ldr.w	r3, [r0, #-4]
 800799e:	4a16      	ldr	r2, [pc, #88]	; (80079f8 <vPortFree+0x64>)
 80079a0:	6812      	ldr	r2, [r2, #0]
 80079a2:	4213      	tst	r3, r2
 80079a4:	d108      	bne.n	80079b8 <vPortFree+0x24>
 80079a6:	f04f 0350 	mov.w	r3, #80	; 0x50
 80079aa:	f383 8811 	msr	BASEPRI, r3
 80079ae:	f3bf 8f6f 	isb	sy
 80079b2:	f3bf 8f4f 	dsb	sy
 80079b6:	e7fe      	b.n	80079b6 <vPortFree+0x22>
		configASSERT( pxLink->pxNextFreeBlock == NULL );
 80079b8:	f850 1c08 	ldr.w	r1, [r0, #-8]
 80079bc:	b141      	cbz	r1, 80079d0 <vPortFree+0x3c>
 80079be:	f04f 0350 	mov.w	r3, #80	; 0x50
 80079c2:	f383 8811 	msr	BASEPRI, r3
 80079c6:	f3bf 8f6f 	isb	sy
 80079ca:	f3bf 8f4f 	dsb	sy
 80079ce:	e7fe      	b.n	80079ce <vPortFree+0x3a>
				pxLink->xBlockSize &= ~xBlockAllocatedBit;
 80079d0:	ea23 0302 	bic.w	r3, r3, r2
 80079d4:	f840 3c04 	str.w	r3, [r0, #-4]
				vTaskSuspendAll();
 80079d8:	f7fe ff72 	bl	80068c0 <vTaskSuspendAll>
					xFreeBytesRemaining += pxLink->xBlockSize;
 80079dc:	4a07      	ldr	r2, [pc, #28]	; (80079fc <vPortFree+0x68>)
 80079de:	f854 3c04 	ldr.w	r3, [r4, #-4]
 80079e2:	6811      	ldr	r1, [r2, #0]
 80079e4:	440b      	add	r3, r1
 80079e6:	6013      	str	r3, [r2, #0]
					prvInsertBlockIntoFreeList( ( ( BlockLink_t * ) pxLink ) );
 80079e8:	f1a4 0008 	sub.w	r0, r4, #8
 80079ec:	f7ff ff0e 	bl	800780c <prvInsertBlockIntoFreeList>
				( void ) xTaskResumeAll();
 80079f0:	f7ff f80e 	bl	8006a10 <xTaskResumeAll>
}
 80079f4:	bd10      	pop	{r4, pc}
 80079f6:	4770      	bx	lr
 80079f8:	20002a88 	.word	0x20002a88
 80079fc:	20002a8c 	.word	0x20002a8c

08007a00 <__itoa>:
 8007a00:	1e93      	subs	r3, r2, #2
 8007a02:	2b22      	cmp	r3, #34	; 0x22
 8007a04:	b510      	push	{r4, lr}
 8007a06:	460c      	mov	r4, r1
 8007a08:	d904      	bls.n	8007a14 <__itoa+0x14>
 8007a0a:	2300      	movs	r3, #0
 8007a0c:	461c      	mov	r4, r3
 8007a0e:	700b      	strb	r3, [r1, #0]
 8007a10:	4620      	mov	r0, r4
 8007a12:	bd10      	pop	{r4, pc}
 8007a14:	2a0a      	cmp	r2, #10
 8007a16:	d109      	bne.n	8007a2c <__itoa+0x2c>
 8007a18:	2800      	cmp	r0, #0
 8007a1a:	da07      	bge.n	8007a2c <__itoa+0x2c>
 8007a1c:	232d      	movs	r3, #45	; 0x2d
 8007a1e:	700b      	strb	r3, [r1, #0]
 8007a20:	2101      	movs	r1, #1
 8007a22:	4240      	negs	r0, r0
 8007a24:	4421      	add	r1, r4
 8007a26:	f000 f843 	bl	8007ab0 <__utoa>
 8007a2a:	e7f1      	b.n	8007a10 <__itoa+0x10>
 8007a2c:	2100      	movs	r1, #0
 8007a2e:	e7f9      	b.n	8007a24 <__itoa+0x24>

08007a30 <itoa>:
 8007a30:	f7ff bfe6 	b.w	8007a00 <__itoa>

08007a34 <rand>:
 8007a34:	4b16      	ldr	r3, [pc, #88]	; (8007a90 <rand+0x5c>)
 8007a36:	b510      	push	{r4, lr}
 8007a38:	681c      	ldr	r4, [r3, #0]
 8007a3a:	6b23      	ldr	r3, [r4, #48]	; 0x30
 8007a3c:	b9b3      	cbnz	r3, 8007a6c <rand+0x38>
 8007a3e:	2018      	movs	r0, #24
 8007a40:	f000 fa76 	bl	8007f30 <malloc>
 8007a44:	4602      	mov	r2, r0
 8007a46:	6320      	str	r0, [r4, #48]	; 0x30
 8007a48:	b920      	cbnz	r0, 8007a54 <rand+0x20>
 8007a4a:	2152      	movs	r1, #82	; 0x52
 8007a4c:	4b11      	ldr	r3, [pc, #68]	; (8007a94 <rand+0x60>)
 8007a4e:	4812      	ldr	r0, [pc, #72]	; (8007a98 <rand+0x64>)
 8007a50:	f000 fa08 	bl	8007e64 <__assert_func>
 8007a54:	4911      	ldr	r1, [pc, #68]	; (8007a9c <rand+0x68>)
 8007a56:	4b12      	ldr	r3, [pc, #72]	; (8007aa0 <rand+0x6c>)
 8007a58:	e9c0 1300 	strd	r1, r3, [r0]
 8007a5c:	4b11      	ldr	r3, [pc, #68]	; (8007aa4 <rand+0x70>)
 8007a5e:	2100      	movs	r1, #0
 8007a60:	6083      	str	r3, [r0, #8]
 8007a62:	230b      	movs	r3, #11
 8007a64:	8183      	strh	r3, [r0, #12]
 8007a66:	2001      	movs	r0, #1
 8007a68:	e9c2 0104 	strd	r0, r1, [r2, #16]
 8007a6c:	6b21      	ldr	r1, [r4, #48]	; 0x30
 8007a6e:	480e      	ldr	r0, [pc, #56]	; (8007aa8 <rand+0x74>)
 8007a70:	690b      	ldr	r3, [r1, #16]
 8007a72:	694c      	ldr	r4, [r1, #20]
 8007a74:	4358      	muls	r0, r3
 8007a76:	4a0d      	ldr	r2, [pc, #52]	; (8007aac <rand+0x78>)
 8007a78:	fb02 0004 	mla	r0, r2, r4, r0
 8007a7c:	fba3 3202 	umull	r3, r2, r3, r2
 8007a80:	3301      	adds	r3, #1
 8007a82:	eb40 0002 	adc.w	r0, r0, r2
 8007a86:	e9c1 3004 	strd	r3, r0, [r1, #16]
 8007a8a:	f020 4000 	bic.w	r0, r0, #2147483648	; 0x80000000
 8007a8e:	bd10      	pop	{r4, pc}
 8007a90:	20000690 	.word	0x20000690
 8007a94:	080097bc 	.word	0x080097bc
 8007a98:	080097d3 	.word	0x080097d3
 8007a9c:	abcd330e 	.word	0xabcd330e
 8007aa0:	e66d1234 	.word	0xe66d1234
 8007aa4:	0005deec 	.word	0x0005deec
 8007aa8:	5851f42d 	.word	0x5851f42d
 8007aac:	4c957f2d 	.word	0x4c957f2d

08007ab0 <__utoa>:
 8007ab0:	b5f0      	push	{r4, r5, r6, r7, lr}
 8007ab2:	b08b      	sub	sp, #44	; 0x2c
 8007ab4:	4605      	mov	r5, r0
 8007ab6:	460b      	mov	r3, r1
 8007ab8:	466e      	mov	r6, sp
 8007aba:	4c1d      	ldr	r4, [pc, #116]	; (8007b30 <__utoa+0x80>)
 8007abc:	f104 0c20 	add.w	ip, r4, #32
 8007ac0:	4637      	mov	r7, r6
 8007ac2:	6820      	ldr	r0, [r4, #0]
 8007ac4:	6861      	ldr	r1, [r4, #4]
 8007ac6:	3408      	adds	r4, #8
 8007ac8:	c703      	stmia	r7!, {r0, r1}
 8007aca:	4564      	cmp	r4, ip
 8007acc:	463e      	mov	r6, r7
 8007ace:	d1f7      	bne.n	8007ac0 <__utoa+0x10>
 8007ad0:	7921      	ldrb	r1, [r4, #4]
 8007ad2:	6820      	ldr	r0, [r4, #0]
 8007ad4:	7139      	strb	r1, [r7, #4]
 8007ad6:	1e91      	subs	r1, r2, #2
 8007ad8:	2922      	cmp	r1, #34	; 0x22
 8007ada:	6038      	str	r0, [r7, #0]
 8007adc:	f04f 0100 	mov.w	r1, #0
 8007ae0:	d904      	bls.n	8007aec <__utoa+0x3c>
 8007ae2:	7019      	strb	r1, [r3, #0]
 8007ae4:	460b      	mov	r3, r1
 8007ae6:	4618      	mov	r0, r3
 8007ae8:	b00b      	add	sp, #44	; 0x2c
 8007aea:	bdf0      	pop	{r4, r5, r6, r7, pc}
 8007aec:	1e58      	subs	r0, r3, #1
 8007aee:	4684      	mov	ip, r0
 8007af0:	fbb5 f7f2 	udiv	r7, r5, r2
 8007af4:	fb02 5617 	mls	r6, r2, r7, r5
 8007af8:	3628      	adds	r6, #40	; 0x28
 8007afa:	446e      	add	r6, sp
 8007afc:	f816 6c28 	ldrb.w	r6, [r6, #-40]
 8007b00:	460c      	mov	r4, r1
 8007b02:	f80c 6f01 	strb.w	r6, [ip, #1]!
 8007b06:	462e      	mov	r6, r5
 8007b08:	42b2      	cmp	r2, r6
 8007b0a:	463d      	mov	r5, r7
 8007b0c:	f101 0101 	add.w	r1, r1, #1
 8007b10:	d9ee      	bls.n	8007af0 <__utoa+0x40>
 8007b12:	2200      	movs	r2, #0
 8007b14:	545a      	strb	r2, [r3, r1]
 8007b16:	1919      	adds	r1, r3, r4
 8007b18:	1aa5      	subs	r5, r4, r2
 8007b1a:	42aa      	cmp	r2, r5
 8007b1c:	dae3      	bge.n	8007ae6 <__utoa+0x36>
 8007b1e:	f810 5f01 	ldrb.w	r5, [r0, #1]!
 8007b22:	780e      	ldrb	r6, [r1, #0]
 8007b24:	3201      	adds	r2, #1
 8007b26:	7006      	strb	r6, [r0, #0]
 8007b28:	f801 5901 	strb.w	r5, [r1], #-1
 8007b2c:	e7f4      	b.n	8007b18 <__utoa+0x68>
 8007b2e:	bf00      	nop
 8007b30:	0800982b 	.word	0x0800982b

08007b34 <std>:
 8007b34:	2300      	movs	r3, #0
 8007b36:	b510      	push	{r4, lr}
 8007b38:	4604      	mov	r4, r0
 8007b3a:	e9c0 3300 	strd	r3, r3, [r0]
 8007b3e:	e9c0 3304 	strd	r3, r3, [r0, #16]
 8007b42:	6083      	str	r3, [r0, #8]
 8007b44:	8181      	strh	r1, [r0, #12]
 8007b46:	6643      	str	r3, [r0, #100]	; 0x64
 8007b48:	81c2      	strh	r2, [r0, #14]
 8007b4a:	6183      	str	r3, [r0, #24]
 8007b4c:	4619      	mov	r1, r3
 8007b4e:	2208      	movs	r2, #8
 8007b50:	305c      	adds	r0, #92	; 0x5c
 8007b52:	f000 f8f4 	bl	8007d3e <memset>
 8007b56:	4b0d      	ldr	r3, [pc, #52]	; (8007b8c <std+0x58>)
 8007b58:	6224      	str	r4, [r4, #32]
 8007b5a:	6263      	str	r3, [r4, #36]	; 0x24
 8007b5c:	4b0c      	ldr	r3, [pc, #48]	; (8007b90 <std+0x5c>)
 8007b5e:	62a3      	str	r3, [r4, #40]	; 0x28
 8007b60:	4b0c      	ldr	r3, [pc, #48]	; (8007b94 <std+0x60>)
 8007b62:	62e3      	str	r3, [r4, #44]	; 0x2c
 8007b64:	4b0c      	ldr	r3, [pc, #48]	; (8007b98 <std+0x64>)
 8007b66:	6323      	str	r3, [r4, #48]	; 0x30
 8007b68:	4b0c      	ldr	r3, [pc, #48]	; (8007b9c <std+0x68>)
 8007b6a:	429c      	cmp	r4, r3
 8007b6c:	d006      	beq.n	8007b7c <std+0x48>
 8007b6e:	f103 0268 	add.w	r2, r3, #104	; 0x68
 8007b72:	4294      	cmp	r4, r2
 8007b74:	d002      	beq.n	8007b7c <std+0x48>
 8007b76:	33d0      	adds	r3, #208	; 0xd0
 8007b78:	429c      	cmp	r4, r3
 8007b7a:	d105      	bne.n	8007b88 <std+0x54>
 8007b7c:	f104 0058 	add.w	r0, r4, #88	; 0x58
 8007b80:	e8bd 4010 	ldmia.w	sp!, {r4, lr}
 8007b84:	f000 b954 	b.w	8007e30 <__retarget_lock_init_recursive>
 8007b88:	bd10      	pop	{r4, pc}
 8007b8a:	bf00      	nop
 8007b8c:	08007cb9 	.word	0x08007cb9
 8007b90:	08007cdb 	.word	0x08007cdb
 8007b94:	08007d13 	.word	0x08007d13
 8007b98:	08007d37 	.word	0x08007d37
 8007b9c:	20002a9c 	.word	0x20002a9c

08007ba0 <stdio_exit_handler>:
 8007ba0:	4a02      	ldr	r2, [pc, #8]	; (8007bac <stdio_exit_handler+0xc>)
 8007ba2:	4903      	ldr	r1, [pc, #12]	; (8007bb0 <stdio_exit_handler+0x10>)
 8007ba4:	4803      	ldr	r0, [pc, #12]	; (8007bb4 <stdio_exit_handler+0x14>)
 8007ba6:	f000 b869 	b.w	8007c7c <_fwalk_sglue>
 8007baa:	bf00      	nop
 8007bac:	20000638 	.word	0x20000638
 8007bb0:	0800819d 	.word	0x0800819d
 8007bb4:	20000644 	.word	0x20000644

08007bb8 <cleanup_stdio>:
 8007bb8:	6841      	ldr	r1, [r0, #4]
 8007bba:	4b0c      	ldr	r3, [pc, #48]	; (8007bec <cleanup_stdio+0x34>)
 8007bbc:	b510      	push	{r4, lr}
 8007bbe:	4299      	cmp	r1, r3
 8007bc0:	4604      	mov	r4, r0
 8007bc2:	d001      	beq.n	8007bc8 <cleanup_stdio+0x10>
 8007bc4:	f000 faea 	bl	800819c <_fflush_r>
 8007bc8:	68a1      	ldr	r1, [r4, #8]
 8007bca:	4b09      	ldr	r3, [pc, #36]	; (8007bf0 <cleanup_stdio+0x38>)
 8007bcc:	4299      	cmp	r1, r3
 8007bce:	d002      	beq.n	8007bd6 <cleanup_stdio+0x1e>
 8007bd0:	4620      	mov	r0, r4
 8007bd2:	f000 fae3 	bl	800819c <_fflush_r>
 8007bd6:	68e1      	ldr	r1, [r4, #12]
 8007bd8:	4b06      	ldr	r3, [pc, #24]	; (8007bf4 <cleanup_stdio+0x3c>)
 8007bda:	4299      	cmp	r1, r3
 8007bdc:	d004      	beq.n	8007be8 <cleanup_stdio+0x30>
 8007bde:	4620      	mov	r0, r4
 8007be0:	e8bd 4010 	ldmia.w	sp!, {r4, lr}
 8007be4:	f000 bada 	b.w	800819c <_fflush_r>
 8007be8:	bd10      	pop	{r4, pc}
 8007bea:	bf00      	nop
 8007bec:	20002a9c 	.word	0x20002a9c
 8007bf0:	20002b04 	.word	0x20002b04
 8007bf4:	20002b6c 	.word	0x20002b6c

08007bf8 <global_stdio_init.part.0>:
 8007bf8:	b510      	push	{r4, lr}
 8007bfa:	4b0b      	ldr	r3, [pc, #44]	; (8007c28 <global_stdio_init.part.0+0x30>)
 8007bfc:	4c0b      	ldr	r4, [pc, #44]	; (8007c2c <global_stdio_init.part.0+0x34>)
 8007bfe:	4a0c      	ldr	r2, [pc, #48]	; (8007c30 <global_stdio_init.part.0+0x38>)
 8007c00:	4620      	mov	r0, r4
 8007c02:	601a      	str	r2, [r3, #0]
 8007c04:	2104      	movs	r1, #4
 8007c06:	2200      	movs	r2, #0
 8007c08:	f7ff ff94 	bl	8007b34 <std>
 8007c0c:	f104 0068 	add.w	r0, r4, #104	; 0x68
 8007c10:	2201      	movs	r2, #1
 8007c12:	2109      	movs	r1, #9
 8007c14:	f7ff ff8e 	bl	8007b34 <std>
 8007c18:	f104 00d0 	add.w	r0, r4, #208	; 0xd0
 8007c1c:	2202      	movs	r2, #2
 8007c1e:	e8bd 4010 	ldmia.w	sp!, {r4, lr}
 8007c22:	2112      	movs	r1, #18
 8007c24:	f7ff bf86 	b.w	8007b34 <std>
 8007c28:	20002bd4 	.word	0x20002bd4
 8007c2c:	20002a9c 	.word	0x20002a9c
 8007c30:	08007ba1 	.word	0x08007ba1

08007c34 <__sfp_lock_acquire>:
 8007c34:	4801      	ldr	r0, [pc, #4]	; (8007c3c <__sfp_lock_acquire+0x8>)
 8007c36:	f000 b8fc 	b.w	8007e32 <__retarget_lock_acquire_recursive>
 8007c3a:	bf00      	nop
 8007c3c:	20002bdd 	.word	0x20002bdd

08007c40 <__sfp_lock_release>:
 8007c40:	4801      	ldr	r0, [pc, #4]	; (8007c48 <__sfp_lock_release+0x8>)
 8007c42:	f000 b8f7 	b.w	8007e34 <__retarget_lock_release_recursive>
 8007c46:	bf00      	nop
 8007c48:	20002bdd 	.word	0x20002bdd

08007c4c <__sinit>:
 8007c4c:	b510      	push	{r4, lr}
 8007c4e:	4604      	mov	r4, r0
 8007c50:	f7ff fff0 	bl	8007c34 <__sfp_lock_acquire>
 8007c54:	6a23      	ldr	r3, [r4, #32]
 8007c56:	b11b      	cbz	r3, 8007c60 <__sinit+0x14>
 8007c58:	e8bd 4010 	ldmia.w	sp!, {r4, lr}
 8007c5c:	f7ff bff0 	b.w	8007c40 <__sfp_lock_release>
 8007c60:	4b04      	ldr	r3, [pc, #16]	; (8007c74 <__sinit+0x28>)
 8007c62:	6223      	str	r3, [r4, #32]
 8007c64:	4b04      	ldr	r3, [pc, #16]	; (8007c78 <__sinit+0x2c>)
 8007c66:	681b      	ldr	r3, [r3, #0]
 8007c68:	2b00      	cmp	r3, #0
 8007c6a:	d1f5      	bne.n	8007c58 <__sinit+0xc>
 8007c6c:	f7ff ffc4 	bl	8007bf8 <global_stdio_init.part.0>
 8007c70:	e7f2      	b.n	8007c58 <__sinit+0xc>
 8007c72:	bf00      	nop
 8007c74:	08007bb9 	.word	0x08007bb9
 8007c78:	20002bd4 	.word	0x20002bd4

08007c7c <_fwalk_sglue>:
 8007c7c:	e92d 43f8 	stmdb	sp!, {r3, r4, r5, r6, r7, r8, r9, lr}
 8007c80:	4607      	mov	r7, r0
 8007c82:	4688      	mov	r8, r1
 8007c84:	4614      	mov	r4, r2
 8007c86:	2600      	movs	r6, #0
 8007c88:	e9d4 9501 	ldrd	r9, r5, [r4, #4]
 8007c8c:	f1b9 0901 	subs.w	r9, r9, #1
 8007c90:	d505      	bpl.n	8007c9e <_fwalk_sglue+0x22>
 8007c92:	6824      	ldr	r4, [r4, #0]
 8007c94:	2c00      	cmp	r4, #0
 8007c96:	d1f7      	bne.n	8007c88 <_fwalk_sglue+0xc>
 8007c98:	4630      	mov	r0, r6
 8007c9a:	e8bd 83f8 	ldmia.w	sp!, {r3, r4, r5, r6, r7, r8, r9, pc}
 8007c9e:	89ab      	ldrh	r3, [r5, #12]
 8007ca0:	2b01      	cmp	r3, #1
 8007ca2:	d907      	bls.n	8007cb4 <_fwalk_sglue+0x38>
 8007ca4:	f9b5 300e 	ldrsh.w	r3, [r5, #14]
 8007ca8:	3301      	adds	r3, #1
 8007caa:	d003      	beq.n	8007cb4 <_fwalk_sglue+0x38>
 8007cac:	4629      	mov	r1, r5
 8007cae:	4638      	mov	r0, r7
 8007cb0:	47c0      	blx	r8
 8007cb2:	4306      	orrs	r6, r0
 8007cb4:	3568      	adds	r5, #104	; 0x68
 8007cb6:	e7e9      	b.n	8007c8c <_fwalk_sglue+0x10>

08007cb8 <__sread>:
 8007cb8:	b510      	push	{r4, lr}
 8007cba:	460c      	mov	r4, r1
 8007cbc:	f9b1 100e 	ldrsh.w	r1, [r1, #14]
 8007cc0:	f000 f868 	bl	8007d94 <_read_r>
 8007cc4:	2800      	cmp	r0, #0
 8007cc6:	bfab      	itete	ge
 8007cc8:	6d63      	ldrge	r3, [r4, #84]	; 0x54
 8007cca:	89a3      	ldrhlt	r3, [r4, #12]
 8007ccc:	181b      	addge	r3, r3, r0
 8007cce:	f423 5380 	biclt.w	r3, r3, #4096	; 0x1000
 8007cd2:	bfac      	ite	ge
 8007cd4:	6563      	strge	r3, [r4, #84]	; 0x54
 8007cd6:	81a3      	strhlt	r3, [r4, #12]
 8007cd8:	bd10      	pop	{r4, pc}

08007cda <__swrite>:
 8007cda:	e92d 41f0 	stmdb	sp!, {r4, r5, r6, r7, r8, lr}
 8007cde:	461f      	mov	r7, r3
 8007ce0:	898b      	ldrh	r3, [r1, #12]
 8007ce2:	4605      	mov	r5, r0
 8007ce4:	05db      	lsls	r3, r3, #23
 8007ce6:	460c      	mov	r4, r1
 8007ce8:	4616      	mov	r6, r2
 8007cea:	d505      	bpl.n	8007cf8 <__swrite+0x1e>
 8007cec:	2302      	movs	r3, #2
 8007cee:	2200      	movs	r2, #0
 8007cf0:	f9b1 100e 	ldrsh.w	r1, [r1, #14]
 8007cf4:	f000 f83c 	bl	8007d70 <_lseek_r>
 8007cf8:	89a3      	ldrh	r3, [r4, #12]
 8007cfa:	4632      	mov	r2, r6
 8007cfc:	f423 5380 	bic.w	r3, r3, #4096	; 0x1000
 8007d00:	81a3      	strh	r3, [r4, #12]
 8007d02:	4628      	mov	r0, r5
 8007d04:	463b      	mov	r3, r7
 8007d06:	f9b4 100e 	ldrsh.w	r1, [r4, #14]
 8007d0a:	e8bd 41f0 	ldmia.w	sp!, {r4, r5, r6, r7, r8, lr}
 8007d0e:	f000 b853 	b.w	8007db8 <_write_r>

08007d12 <__sseek>:
 8007d12:	b510      	push	{r4, lr}
 8007d14:	460c      	mov	r4, r1
 8007d16:	f9b1 100e 	ldrsh.w	r1, [r1, #14]
 8007d1a:	f000 f829 	bl	8007d70 <_lseek_r>
 8007d1e:	1c43      	adds	r3, r0, #1
 8007d20:	89a3      	ldrh	r3, [r4, #12]
 8007d22:	bf15      	itete	ne
 8007d24:	6560      	strne	r0, [r4, #84]	; 0x54
 8007d26:	f423 5380 	biceq.w	r3, r3, #4096	; 0x1000
 8007d2a:	f443 5380 	orrne.w	r3, r3, #4096	; 0x1000
 8007d2e:	81a3      	strheq	r3, [r4, #12]
 8007d30:	bf18      	it	ne
 8007d32:	81a3      	strhne	r3, [r4, #12]
 8007d34:	bd10      	pop	{r4, pc}

08007d36 <__sclose>:
 8007d36:	f9b1 100e 	ldrsh.w	r1, [r1, #14]
 8007d3a:	f000 b809 	b.w	8007d50 <_close_r>

08007d3e <memset>:
 8007d3e:	4603      	mov	r3, r0
 8007d40:	4402      	add	r2, r0
 8007d42:	4293      	cmp	r3, r2
 8007d44:	d100      	bne.n	8007d48 <memset+0xa>
 8007d46:	4770      	bx	lr
 8007d48:	f803 1b01 	strb.w	r1, [r3], #1
 8007d4c:	e7f9      	b.n	8007d42 <memset+0x4>
	...

08007d50 <_close_r>:
 8007d50:	b538      	push	{r3, r4, r5, lr}
 8007d52:	2300      	movs	r3, #0
 8007d54:	4d05      	ldr	r5, [pc, #20]	; (8007d6c <_close_r+0x1c>)
 8007d56:	4604      	mov	r4, r0
 8007d58:	4608      	mov	r0, r1
 8007d5a:	602b      	str	r3, [r5, #0]
 8007d5c:	f7fa fbbe 	bl	80024dc <_close>
 8007d60:	1c43      	adds	r3, r0, #1
 8007d62:	d102      	bne.n	8007d6a <_close_r+0x1a>
 8007d64:	682b      	ldr	r3, [r5, #0]
 8007d66:	b103      	cbz	r3, 8007d6a <_close_r+0x1a>
 8007d68:	6023      	str	r3, [r4, #0]
 8007d6a:	bd38      	pop	{r3, r4, r5, pc}
 8007d6c:	20002bd8 	.word	0x20002bd8

08007d70 <_lseek_r>:
 8007d70:	b538      	push	{r3, r4, r5, lr}
 8007d72:	4604      	mov	r4, r0
 8007d74:	4608      	mov	r0, r1
 8007d76:	4611      	mov	r1, r2
 8007d78:	2200      	movs	r2, #0
 8007d7a:	4d05      	ldr	r5, [pc, #20]	; (8007d90 <_lseek_r+0x20>)
 8007d7c:	602a      	str	r2, [r5, #0]
 8007d7e:	461a      	mov	r2, r3
 8007d80:	f7fa fbb6 	bl	80024f0 <_lseek>
 8007d84:	1c43      	adds	r3, r0, #1
 8007d86:	d102      	bne.n	8007d8e <_lseek_r+0x1e>
 8007d88:	682b      	ldr	r3, [r5, #0]
 8007d8a:	b103      	cbz	r3, 8007d8e <_lseek_r+0x1e>
 8007d8c:	6023      	str	r3, [r4, #0]
 8007d8e:	bd38      	pop	{r3, r4, r5, pc}
 8007d90:	20002bd8 	.word	0x20002bd8

08007d94 <_read_r>:
 8007d94:	b538      	push	{r3, r4, r5, lr}
 8007d96:	4604      	mov	r4, r0
 8007d98:	4608      	mov	r0, r1
 8007d9a:	4611      	mov	r1, r2
 8007d9c:	2200      	movs	r2, #0
 8007d9e:	4d05      	ldr	r5, [pc, #20]	; (8007db4 <_read_r+0x20>)
 8007da0:	602a      	str	r2, [r5, #0]
 8007da2:	461a      	mov	r2, r3
 8007da4:	f7fa fb80 	bl	80024a8 <_read>
 8007da8:	1c43      	adds	r3, r0, #1
 8007daa:	d102      	bne.n	8007db2 <_read_r+0x1e>
 8007dac:	682b      	ldr	r3, [r5, #0]
 8007dae:	b103      	cbz	r3, 8007db2 <_read_r+0x1e>
 8007db0:	6023      	str	r3, [r4, #0]
 8007db2:	bd38      	pop	{r3, r4, r5, pc}
 8007db4:	20002bd8 	.word	0x20002bd8

08007db8 <_write_r>:
 8007db8:	b538      	push	{r3, r4, r5, lr}
 8007dba:	4604      	mov	r4, r0
 8007dbc:	4608      	mov	r0, r1
 8007dbe:	4611      	mov	r1, r2
 8007dc0:	2200      	movs	r2, #0
 8007dc2:	4d05      	ldr	r5, [pc, #20]	; (8007dd8 <_write_r+0x20>)
 8007dc4:	602a      	str	r2, [r5, #0]
 8007dc6:	461a      	mov	r2, r3
 8007dc8:	f7fa fb7b 	bl	80024c2 <_write>
 8007dcc:	1c43      	adds	r3, r0, #1
 8007dce:	d102      	bne.n	8007dd6 <_write_r+0x1e>
 8007dd0:	682b      	ldr	r3, [r5, #0]
 8007dd2:	b103      	cbz	r3, 8007dd6 <_write_r+0x1e>
 8007dd4:	6023      	str	r3, [r4, #0]
 8007dd6:	bd38      	pop	{r3, r4, r5, pc}
 8007dd8:	20002bd8 	.word	0x20002bd8

08007ddc <__errno>:
 8007ddc:	4b01      	ldr	r3, [pc, #4]	; (8007de4 <__errno+0x8>)
 8007dde:	6818      	ldr	r0, [r3, #0]
 8007de0:	4770      	bx	lr
 8007de2:	bf00      	nop
 8007de4:	20000690 	.word	0x20000690

08007de8 <__libc_init_array>:
 8007de8:	b570      	push	{r4, r5, r6, lr}
 8007dea:	2600      	movs	r6, #0
 8007dec:	4d0c      	ldr	r5, [pc, #48]	; (8007e20 <__libc_init_array+0x38>)
 8007dee:	4c0d      	ldr	r4, [pc, #52]	; (8007e24 <__libc_init_array+0x3c>)
 8007df0:	1b64      	subs	r4, r4, r5
 8007df2:	10a4      	asrs	r4, r4, #2
 8007df4:	42a6      	cmp	r6, r4
 8007df6:	d109      	bne.n	8007e0c <__libc_init_array+0x24>
 8007df8:	f000 fe62 	bl	8008ac0 <_init>
 8007dfc:	2600      	movs	r6, #0
 8007dfe:	4d0a      	ldr	r5, [pc, #40]	; (8007e28 <__libc_init_array+0x40>)
 8007e00:	4c0a      	ldr	r4, [pc, #40]	; (8007e2c <__libc_init_array+0x44>)
 8007e02:	1b64      	subs	r4, r4, r5
 8007e04:	10a4      	asrs	r4, r4, #2
 8007e06:	42a6      	cmp	r6, r4
 8007e08:	d105      	bne.n	8007e16 <__libc_init_array+0x2e>
 8007e0a:	bd70      	pop	{r4, r5, r6, pc}
 8007e0c:	f855 3b04 	ldr.w	r3, [r5], #4
 8007e10:	4798      	blx	r3
 8007e12:	3601      	adds	r6, #1
 8007e14:	e7ee      	b.n	8007df4 <__libc_init_array+0xc>
 8007e16:	f855 3b04 	ldr.w	r3, [r5], #4
 8007e1a:	4798      	blx	r3
 8007e1c:	3601      	adds	r6, #1
 8007e1e:	e7f2      	b.n	8007e06 <__libc_init_array+0x1e>
 8007e20:	080098c0 	.word	0x080098c0
 8007e24:	080098c0 	.word	0x080098c0
 8007e28:	080098c0 	.word	0x080098c0
 8007e2c:	080098c4 	.word	0x080098c4

08007e30 <__retarget_lock_init_recursive>:
 8007e30:	4770      	bx	lr

08007e32 <__retarget_lock_acquire_recursive>:
 8007e32:	4770      	bx	lr

08007e34 <__retarget_lock_release_recursive>:
 8007e34:	4770      	bx	lr

08007e36 <strcpy>:
 8007e36:	4603      	mov	r3, r0
 8007e38:	f811 2b01 	ldrb.w	r2, [r1], #1
 8007e3c:	f803 2b01 	strb.w	r2, [r3], #1
 8007e40:	2a00      	cmp	r2, #0
 8007e42:	d1f9      	bne.n	8007e38 <strcpy+0x2>
 8007e44:	4770      	bx	lr

08007e46 <memcpy>:
 8007e46:	440a      	add	r2, r1
 8007e48:	4291      	cmp	r1, r2
 8007e4a:	f100 33ff 	add.w	r3, r0, #4294967295
 8007e4e:	d100      	bne.n	8007e52 <memcpy+0xc>
 8007e50:	4770      	bx	lr
 8007e52:	b510      	push	{r4, lr}
 8007e54:	f811 4b01 	ldrb.w	r4, [r1], #1
 8007e58:	4291      	cmp	r1, r2
 8007e5a:	f803 4f01 	strb.w	r4, [r3, #1]!
 8007e5e:	d1f9      	bne.n	8007e54 <memcpy+0xe>
 8007e60:	bd10      	pop	{r4, pc}
	...

08007e64 <__assert_func>:
 8007e64:	b51f      	push	{r0, r1, r2, r3, r4, lr}
 8007e66:	4614      	mov	r4, r2
 8007e68:	461a      	mov	r2, r3
 8007e6a:	4b09      	ldr	r3, [pc, #36]	; (8007e90 <__assert_func+0x2c>)
 8007e6c:	4605      	mov	r5, r0
 8007e6e:	681b      	ldr	r3, [r3, #0]
 8007e70:	68d8      	ldr	r0, [r3, #12]
 8007e72:	b14c      	cbz	r4, 8007e88 <__assert_func+0x24>
 8007e74:	4b07      	ldr	r3, [pc, #28]	; (8007e94 <__assert_func+0x30>)
 8007e76:	e9cd 3401 	strd	r3, r4, [sp, #4]
 8007e7a:	9100      	str	r1, [sp, #0]
 8007e7c:	462b      	mov	r3, r5
 8007e7e:	4906      	ldr	r1, [pc, #24]	; (8007e98 <__assert_func+0x34>)
 8007e80:	f000 f9b4 	bl	80081ec <fiprintf>
 8007e84:	f000 f9d4 	bl	8008230 <abort>
 8007e88:	4b04      	ldr	r3, [pc, #16]	; (8007e9c <__assert_func+0x38>)
 8007e8a:	461c      	mov	r4, r3
 8007e8c:	e7f3      	b.n	8007e76 <__assert_func+0x12>
 8007e8e:	bf00      	nop
 8007e90:	20000690 	.word	0x20000690
 8007e94:	08009850 	.word	0x08009850
 8007e98:	0800985d 	.word	0x0800985d
 8007e9c:	0800988b 	.word	0x0800988b

08007ea0 <_free_r>:
 8007ea0:	b538      	push	{r3, r4, r5, lr}
 8007ea2:	4605      	mov	r5, r0
 8007ea4:	2900      	cmp	r1, #0
 8007ea6:	d040      	beq.n	8007f2a <_free_r+0x8a>
 8007ea8:	f851 3c04 	ldr.w	r3, [r1, #-4]
 8007eac:	1f0c      	subs	r4, r1, #4
 8007eae:	2b00      	cmp	r3, #0
 8007eb0:	bfb8      	it	lt
 8007eb2:	18e4      	addlt	r4, r4, r3
 8007eb4:	f000 f8e4 	bl	8008080 <__malloc_lock>
 8007eb8:	4a1c      	ldr	r2, [pc, #112]	; (8007f2c <_free_r+0x8c>)
 8007eba:	6813      	ldr	r3, [r2, #0]
 8007ebc:	b933      	cbnz	r3, 8007ecc <_free_r+0x2c>
 8007ebe:	6063      	str	r3, [r4, #4]
 8007ec0:	6014      	str	r4, [r2, #0]
 8007ec2:	4628      	mov	r0, r5
 8007ec4:	e8bd 4038 	ldmia.w	sp!, {r3, r4, r5, lr}
 8007ec8:	f000 b8e0 	b.w	800808c <__malloc_unlock>
 8007ecc:	42a3      	cmp	r3, r4
 8007ece:	d908      	bls.n	8007ee2 <_free_r+0x42>
 8007ed0:	6820      	ldr	r0, [r4, #0]
 8007ed2:	1821      	adds	r1, r4, r0
 8007ed4:	428b      	cmp	r3, r1
 8007ed6:	bf01      	itttt	eq
 8007ed8:	6819      	ldreq	r1, [r3, #0]
 8007eda:	685b      	ldreq	r3, [r3, #4]
 8007edc:	1809      	addeq	r1, r1, r0
 8007ede:	6021      	streq	r1, [r4, #0]
 8007ee0:	e7ed      	b.n	8007ebe <_free_r+0x1e>
 8007ee2:	461a      	mov	r2, r3
 8007ee4:	685b      	ldr	r3, [r3, #4]
 8007ee6:	b10b      	cbz	r3, 8007eec <_free_r+0x4c>
 8007ee8:	42a3      	cmp	r3, r4
 8007eea:	d9fa      	bls.n	8007ee2 <_free_r+0x42>
 8007eec:	6811      	ldr	r1, [r2, #0]
 8007eee:	1850      	adds	r0, r2, r1
 8007ef0:	42a0      	cmp	r0, r4
 8007ef2:	d10b      	bne.n	8007f0c <_free_r+0x6c>
 8007ef4:	6820      	ldr	r0, [r4, #0]
 8007ef6:	4401      	add	r1, r0
 8007ef8:	1850      	adds	r0, r2, r1
 8007efa:	4283      	cmp	r3, r0
 8007efc:	6011      	str	r1, [r2, #0]
 8007efe:	d1e0      	bne.n	8007ec2 <_free_r+0x22>
 8007f00:	6818      	ldr	r0, [r3, #0]
 8007f02:	685b      	ldr	r3, [r3, #4]
 8007f04:	4408      	add	r0, r1
 8007f06:	6010      	str	r0, [r2, #0]
 8007f08:	6053      	str	r3, [r2, #4]
 8007f0a:	e7da      	b.n	8007ec2 <_free_r+0x22>
 8007f0c:	d902      	bls.n	8007f14 <_free_r+0x74>
 8007f0e:	230c      	movs	r3, #12
 8007f10:	602b      	str	r3, [r5, #0]
 8007f12:	e7d6      	b.n	8007ec2 <_free_r+0x22>
 8007f14:	6820      	ldr	r0, [r4, #0]
 8007f16:	1821      	adds	r1, r4, r0
 8007f18:	428b      	cmp	r3, r1
 8007f1a:	bf01      	itttt	eq
 8007f1c:	6819      	ldreq	r1, [r3, #0]
 8007f1e:	685b      	ldreq	r3, [r3, #4]
 8007f20:	1809      	addeq	r1, r1, r0
 8007f22:	6021      	streq	r1, [r4, #0]
 8007f24:	6063      	str	r3, [r4, #4]
 8007f26:	6054      	str	r4, [r2, #4]
 8007f28:	e7cb      	b.n	8007ec2 <_free_r+0x22>
 8007f2a:	bd38      	pop	{r3, r4, r5, pc}
 8007f2c:	20002be0 	.word	0x20002be0

08007f30 <malloc>:
 8007f30:	4b02      	ldr	r3, [pc, #8]	; (8007f3c <malloc+0xc>)
 8007f32:	4601      	mov	r1, r0
 8007f34:	6818      	ldr	r0, [r3, #0]
 8007f36:	f000 b823 	b.w	8007f80 <_malloc_r>
 8007f3a:	bf00      	nop
 8007f3c:	20000690 	.word	0x20000690

08007f40 <sbrk_aligned>:
 8007f40:	b570      	push	{r4, r5, r6, lr}
 8007f42:	4e0e      	ldr	r6, [pc, #56]	; (8007f7c <sbrk_aligned+0x3c>)
 8007f44:	460c      	mov	r4, r1
 8007f46:	6831      	ldr	r1, [r6, #0]
 8007f48:	4605      	mov	r5, r0
 8007f4a:	b911      	cbnz	r1, 8007f52 <sbrk_aligned+0x12>
 8007f4c:	f000 f960 	bl	8008210 <_sbrk_r>
 8007f50:	6030      	str	r0, [r6, #0]
 8007f52:	4621      	mov	r1, r4
 8007f54:	4628      	mov	r0, r5
 8007f56:	f000 f95b 	bl	8008210 <_sbrk_r>
 8007f5a:	1c43      	adds	r3, r0, #1
 8007f5c:	d00a      	beq.n	8007f74 <sbrk_aligned+0x34>
 8007f5e:	1cc4      	adds	r4, r0, #3
 8007f60:	f024 0403 	bic.w	r4, r4, #3
 8007f64:	42a0      	cmp	r0, r4
 8007f66:	d007      	beq.n	8007f78 <sbrk_aligned+0x38>
 8007f68:	1a21      	subs	r1, r4, r0
 8007f6a:	4628      	mov	r0, r5
 8007f6c:	f000 f950 	bl	8008210 <_sbrk_r>
 8007f70:	3001      	adds	r0, #1
 8007f72:	d101      	bne.n	8007f78 <sbrk_aligned+0x38>
 8007f74:	f04f 34ff 	mov.w	r4, #4294967295
 8007f78:	4620      	mov	r0, r4
 8007f7a:	bd70      	pop	{r4, r5, r6, pc}
 8007f7c:	20002be4 	.word	0x20002be4

08007f80 <_malloc_r>:
 8007f80:	e92d 43f8 	stmdb	sp!, {r3, r4, r5, r6, r7, r8, r9, lr}
 8007f84:	1ccd      	adds	r5, r1, #3
 8007f86:	f025 0503 	bic.w	r5, r5, #3
 8007f8a:	3508      	adds	r5, #8
 8007f8c:	2d0c      	cmp	r5, #12
 8007f8e:	bf38      	it	cc
 8007f90:	250c      	movcc	r5, #12
 8007f92:	2d00      	cmp	r5, #0
 8007f94:	4607      	mov	r7, r0
 8007f96:	db01      	blt.n	8007f9c <_malloc_r+0x1c>
 8007f98:	42a9      	cmp	r1, r5
 8007f9a:	d905      	bls.n	8007fa8 <_malloc_r+0x28>
 8007f9c:	230c      	movs	r3, #12
 8007f9e:	2600      	movs	r6, #0
 8007fa0:	603b      	str	r3, [r7, #0]
 8007fa2:	4630      	mov	r0, r6
 8007fa4:	e8bd 83f8 	ldmia.w	sp!, {r3, r4, r5, r6, r7, r8, r9, pc}
 8007fa8:	f8df 80d0 	ldr.w	r8, [pc, #208]	; 800807c <_malloc_r+0xfc>
 8007fac:	f000 f868 	bl	8008080 <__malloc_lock>
 8007fb0:	f8d8 3000 	ldr.w	r3, [r8]
 8007fb4:	461c      	mov	r4, r3
 8007fb6:	bb5c      	cbnz	r4, 8008010 <_malloc_r+0x90>
 8007fb8:	4629      	mov	r1, r5
 8007fba:	4638      	mov	r0, r7
 8007fbc:	f7ff ffc0 	bl	8007f40 <sbrk_aligned>
 8007fc0:	1c43      	adds	r3, r0, #1
 8007fc2:	4604      	mov	r4, r0
 8007fc4:	d155      	bne.n	8008072 <_malloc_r+0xf2>
 8007fc6:	f8d8 4000 	ldr.w	r4, [r8]
 8007fca:	4626      	mov	r6, r4
 8007fcc:	2e00      	cmp	r6, #0
 8007fce:	d145      	bne.n	800805c <_malloc_r+0xdc>
 8007fd0:	2c00      	cmp	r4, #0
 8007fd2:	d048      	beq.n	8008066 <_malloc_r+0xe6>
 8007fd4:	6823      	ldr	r3, [r4, #0]
 8007fd6:	4631      	mov	r1, r6
 8007fd8:	4638      	mov	r0, r7
 8007fda:	eb04 0903 	add.w	r9, r4, r3
 8007fde:	f000 f917 	bl	8008210 <_sbrk_r>
 8007fe2:	4581      	cmp	r9, r0
 8007fe4:	d13f      	bne.n	8008066 <_malloc_r+0xe6>
 8007fe6:	6821      	ldr	r1, [r4, #0]
 8007fe8:	4638      	mov	r0, r7
 8007fea:	1a6d      	subs	r5, r5, r1
 8007fec:	4629      	mov	r1, r5
 8007fee:	f7ff ffa7 	bl	8007f40 <sbrk_aligned>
 8007ff2:	3001      	adds	r0, #1
 8007ff4:	d037      	beq.n	8008066 <_malloc_r+0xe6>
 8007ff6:	6823      	ldr	r3, [r4, #0]
 8007ff8:	442b      	add	r3, r5
 8007ffa:	6023      	str	r3, [r4, #0]
 8007ffc:	f8d8 3000 	ldr.w	r3, [r8]
 8008000:	2b00      	cmp	r3, #0
 8008002:	d038      	beq.n	8008076 <_malloc_r+0xf6>
 8008004:	685a      	ldr	r2, [r3, #4]
 8008006:	42a2      	cmp	r2, r4
 8008008:	d12b      	bne.n	8008062 <_malloc_r+0xe2>
 800800a:	2200      	movs	r2, #0
 800800c:	605a      	str	r2, [r3, #4]
 800800e:	e00f      	b.n	8008030 <_malloc_r+0xb0>
 8008010:	6822      	ldr	r2, [r4, #0]
 8008012:	1b52      	subs	r2, r2, r5
 8008014:	d41f      	bmi.n	8008056 <_malloc_r+0xd6>
 8008016:	2a0b      	cmp	r2, #11
 8008018:	d917      	bls.n	800804a <_malloc_r+0xca>
 800801a:	1961      	adds	r1, r4, r5
 800801c:	42a3      	cmp	r3, r4
 800801e:	6025      	str	r5, [r4, #0]
 8008020:	bf18      	it	ne
 8008022:	6059      	strne	r1, [r3, #4]
 8008024:	6863      	ldr	r3, [r4, #4]
 8008026:	bf08      	it	eq
 8008028:	f8c8 1000 	streq.w	r1, [r8]
 800802c:	5162      	str	r2, [r4, r5]
 800802e:	604b      	str	r3, [r1, #4]
 8008030:	4638      	mov	r0, r7
 8008032:	f104 060b 	add.w	r6, r4, #11
 8008036:	f000 f829 	bl	800808c <__malloc_unlock>
 800803a:	f026 0607 	bic.w	r6, r6, #7
 800803e:	1d23      	adds	r3, r4, #4
 8008040:	1af2      	subs	r2, r6, r3
 8008042:	d0ae      	beq.n	8007fa2 <_malloc_r+0x22>
 8008044:	1b9b      	subs	r3, r3, r6
 8008046:	50a3      	str	r3, [r4, r2]
 8008048:	e7ab      	b.n	8007fa2 <_malloc_r+0x22>
 800804a:	42a3      	cmp	r3, r4
 800804c:	6862      	ldr	r2, [r4, #4]
 800804e:	d1dd      	bne.n	800800c <_malloc_r+0x8c>
 8008050:	f8c8 2000 	str.w	r2, [r8]
 8008054:	e7ec      	b.n	8008030 <_malloc_r+0xb0>
 8008056:	4623      	mov	r3, r4
 8008058:	6864      	ldr	r4, [r4, #4]
 800805a:	e7ac      	b.n	8007fb6 <_malloc_r+0x36>
 800805c:	4634      	mov	r4, r6
 800805e:	6876      	ldr	r6, [r6, #4]
 8008060:	e7b4      	b.n	8007fcc <_malloc_r+0x4c>
 8008062:	4613      	mov	r3, r2
 8008064:	e7cc      	b.n	8008000 <_malloc_r+0x80>
 8008066:	230c      	movs	r3, #12
 8008068:	4638      	mov	r0, r7
 800806a:	603b      	str	r3, [r7, #0]
 800806c:	f000 f80e 	bl	800808c <__malloc_unlock>
 8008070:	e797      	b.n	8007fa2 <_malloc_r+0x22>
 8008072:	6025      	str	r5, [r4, #0]
 8008074:	e7dc      	b.n	8008030 <_malloc_r+0xb0>
 8008076:	605b      	str	r3, [r3, #4]
 8008078:	deff      	udf	#255	; 0xff
 800807a:	bf00      	nop
 800807c:	20002be0 	.word	0x20002be0

08008080 <__malloc_lock>:
 8008080:	4801      	ldr	r0, [pc, #4]	; (8008088 <__malloc_lock+0x8>)
 8008082:	f7ff bed6 	b.w	8007e32 <__retarget_lock_acquire_recursive>
 8008086:	bf00      	nop
 8008088:	20002bdc 	.word	0x20002bdc

0800808c <__malloc_unlock>:
 800808c:	4801      	ldr	r0, [pc, #4]	; (8008094 <__malloc_unlock+0x8>)
 800808e:	f7ff bed1 	b.w	8007e34 <__retarget_lock_release_recursive>
 8008092:	bf00      	nop
 8008094:	20002bdc 	.word	0x20002bdc

08008098 <__sflush_r>:
 8008098:	898a      	ldrh	r2, [r1, #12]
 800809a:	b5f8      	push	{r3, r4, r5, r6, r7, lr}
 800809c:	4605      	mov	r5, r0
 800809e:	0710      	lsls	r0, r2, #28
 80080a0:	460c      	mov	r4, r1
 80080a2:	d457      	bmi.n	8008154 <__sflush_r+0xbc>
 80080a4:	684b      	ldr	r3, [r1, #4]
 80080a6:	2b00      	cmp	r3, #0
 80080a8:	dc04      	bgt.n	80080b4 <__sflush_r+0x1c>
 80080aa:	6c0b      	ldr	r3, [r1, #64]	; 0x40
 80080ac:	2b00      	cmp	r3, #0
 80080ae:	dc01      	bgt.n	80080b4 <__sflush_r+0x1c>
 80080b0:	2000      	movs	r0, #0
 80080b2:	bdf8      	pop	{r3, r4, r5, r6, r7, pc}
 80080b4:	6ae6      	ldr	r6, [r4, #44]	; 0x2c
 80080b6:	2e00      	cmp	r6, #0
 80080b8:	d0fa      	beq.n	80080b0 <__sflush_r+0x18>
 80080ba:	2300      	movs	r3, #0
 80080bc:	f412 5280 	ands.w	r2, r2, #4096	; 0x1000
 80080c0:	682f      	ldr	r7, [r5, #0]
 80080c2:	6a21      	ldr	r1, [r4, #32]
 80080c4:	602b      	str	r3, [r5, #0]
 80080c6:	d032      	beq.n	800812e <__sflush_r+0x96>
 80080c8:	6d60      	ldr	r0, [r4, #84]	; 0x54
 80080ca:	89a3      	ldrh	r3, [r4, #12]
 80080cc:	075a      	lsls	r2, r3, #29
 80080ce:	d505      	bpl.n	80080dc <__sflush_r+0x44>
 80080d0:	6863      	ldr	r3, [r4, #4]
 80080d2:	1ac0      	subs	r0, r0, r3
 80080d4:	6b63      	ldr	r3, [r4, #52]	; 0x34
 80080d6:	b10b      	cbz	r3, 80080dc <__sflush_r+0x44>
 80080d8:	6c23      	ldr	r3, [r4, #64]	; 0x40
 80080da:	1ac0      	subs	r0, r0, r3
 80080dc:	2300      	movs	r3, #0
 80080de:	4602      	mov	r2, r0
 80080e0:	6ae6      	ldr	r6, [r4, #44]	; 0x2c
 80080e2:	4628      	mov	r0, r5
 80080e4:	6a21      	ldr	r1, [r4, #32]
 80080e6:	47b0      	blx	r6
 80080e8:	1c43      	adds	r3, r0, #1
 80080ea:	89a3      	ldrh	r3, [r4, #12]
 80080ec:	d106      	bne.n	80080fc <__sflush_r+0x64>
 80080ee:	6829      	ldr	r1, [r5, #0]
 80080f0:	291d      	cmp	r1, #29
 80080f2:	d82b      	bhi.n	800814c <__sflush_r+0xb4>
 80080f4:	4a28      	ldr	r2, [pc, #160]	; (8008198 <__sflush_r+0x100>)
 80080f6:	410a      	asrs	r2, r1
 80080f8:	07d6      	lsls	r6, r2, #31
 80080fa:	d427      	bmi.n	800814c <__sflush_r+0xb4>
 80080fc:	2200      	movs	r2, #0
 80080fe:	6062      	str	r2, [r4, #4]
 8008100:	6922      	ldr	r2, [r4, #16]
 8008102:	04d9      	lsls	r1, r3, #19
 8008104:	6022      	str	r2, [r4, #0]
 8008106:	d504      	bpl.n	8008112 <__sflush_r+0x7a>
 8008108:	1c42      	adds	r2, r0, #1
 800810a:	d101      	bne.n	8008110 <__sflush_r+0x78>
 800810c:	682b      	ldr	r3, [r5, #0]
 800810e:	b903      	cbnz	r3, 8008112 <__sflush_r+0x7a>
 8008110:	6560      	str	r0, [r4, #84]	; 0x54
 8008112:	6b61      	ldr	r1, [r4, #52]	; 0x34
 8008114:	602f      	str	r7, [r5, #0]
 8008116:	2900      	cmp	r1, #0
 8008118:	d0ca      	beq.n	80080b0 <__sflush_r+0x18>
 800811a:	f104 0344 	add.w	r3, r4, #68	; 0x44
 800811e:	4299      	cmp	r1, r3
 8008120:	d002      	beq.n	8008128 <__sflush_r+0x90>
 8008122:	4628      	mov	r0, r5
 8008124:	f7ff febc 	bl	8007ea0 <_free_r>
 8008128:	2000      	movs	r0, #0
 800812a:	6360      	str	r0, [r4, #52]	; 0x34
 800812c:	e7c1      	b.n	80080b2 <__sflush_r+0x1a>
 800812e:	2301      	movs	r3, #1
 8008130:	4628      	mov	r0, r5
 8008132:	47b0      	blx	r6
 8008134:	1c41      	adds	r1, r0, #1
 8008136:	d1c8      	bne.n	80080ca <__sflush_r+0x32>
 8008138:	682b      	ldr	r3, [r5, #0]
 800813a:	2b00      	cmp	r3, #0
 800813c:	d0c5      	beq.n	80080ca <__sflush_r+0x32>
 800813e:	2b1d      	cmp	r3, #29
 8008140:	d001      	beq.n	8008146 <__sflush_r+0xae>
 8008142:	2b16      	cmp	r3, #22
 8008144:	d101      	bne.n	800814a <__sflush_r+0xb2>
 8008146:	602f      	str	r7, [r5, #0]
 8008148:	e7b2      	b.n	80080b0 <__sflush_r+0x18>
 800814a:	89a3      	ldrh	r3, [r4, #12]
 800814c:	f043 0340 	orr.w	r3, r3, #64	; 0x40
 8008150:	81a3      	strh	r3, [r4, #12]
 8008152:	e7ae      	b.n	80080b2 <__sflush_r+0x1a>
 8008154:	690f      	ldr	r7, [r1, #16]
 8008156:	2f00      	cmp	r7, #0
 8008158:	d0aa      	beq.n	80080b0 <__sflush_r+0x18>
 800815a:	0793      	lsls	r3, r2, #30
 800815c:	bf18      	it	ne
 800815e:	2300      	movne	r3, #0
 8008160:	680e      	ldr	r6, [r1, #0]
 8008162:	bf08      	it	eq
 8008164:	694b      	ldreq	r3, [r1, #20]
 8008166:	1bf6      	subs	r6, r6, r7
 8008168:	600f      	str	r7, [r1, #0]
 800816a:	608b      	str	r3, [r1, #8]
 800816c:	2e00      	cmp	r6, #0
 800816e:	dd9f      	ble.n	80080b0 <__sflush_r+0x18>
 8008170:	4633      	mov	r3, r6
 8008172:	463a      	mov	r2, r7
 8008174:	4628      	mov	r0, r5
 8008176:	6a21      	ldr	r1, [r4, #32]
 8008178:	f8d4 c028 	ldr.w	ip, [r4, #40]	; 0x28
 800817c:	47e0      	blx	ip
 800817e:	2800      	cmp	r0, #0
 8008180:	dc06      	bgt.n	8008190 <__sflush_r+0xf8>
 8008182:	89a3      	ldrh	r3, [r4, #12]
 8008184:	f04f 30ff 	mov.w	r0, #4294967295
 8008188:	f043 0340 	orr.w	r3, r3, #64	; 0x40
 800818c:	81a3      	strh	r3, [r4, #12]
 800818e:	e790      	b.n	80080b2 <__sflush_r+0x1a>
 8008190:	4407      	add	r7, r0
 8008192:	1a36      	subs	r6, r6, r0
 8008194:	e7ea      	b.n	800816c <__sflush_r+0xd4>
 8008196:	bf00      	nop
 8008198:	dfbffffe 	.word	0xdfbffffe

0800819c <_fflush_r>:
 800819c:	b538      	push	{r3, r4, r5, lr}
 800819e:	690b      	ldr	r3, [r1, #16]
 80081a0:	4605      	mov	r5, r0
 80081a2:	460c      	mov	r4, r1
 80081a4:	b913      	cbnz	r3, 80081ac <_fflush_r+0x10>
 80081a6:	2500      	movs	r5, #0
 80081a8:	4628      	mov	r0, r5
 80081aa:	bd38      	pop	{r3, r4, r5, pc}
 80081ac:	b118      	cbz	r0, 80081b6 <_fflush_r+0x1a>
 80081ae:	6a03      	ldr	r3, [r0, #32]
 80081b0:	b90b      	cbnz	r3, 80081b6 <_fflush_r+0x1a>
 80081b2:	f7ff fd4b 	bl	8007c4c <__sinit>
 80081b6:	f9b4 300c 	ldrsh.w	r3, [r4, #12]
 80081ba:	2b00      	cmp	r3, #0
 80081bc:	d0f3      	beq.n	80081a6 <_fflush_r+0xa>
 80081be:	6e62      	ldr	r2, [r4, #100]	; 0x64
 80081c0:	07d0      	lsls	r0, r2, #31
 80081c2:	d404      	bmi.n	80081ce <_fflush_r+0x32>
 80081c4:	0599      	lsls	r1, r3, #22
 80081c6:	d402      	bmi.n	80081ce <_fflush_r+0x32>
 80081c8:	6da0      	ldr	r0, [r4, #88]	; 0x58
 80081ca:	f7ff fe32 	bl	8007e32 <__retarget_lock_acquire_recursive>
 80081ce:	4628      	mov	r0, r5
 80081d0:	4621      	mov	r1, r4
 80081d2:	f7ff ff61 	bl	8008098 <__sflush_r>
 80081d6:	6e63      	ldr	r3, [r4, #100]	; 0x64
 80081d8:	4605      	mov	r5, r0
 80081da:	07da      	lsls	r2, r3, #31
 80081dc:	d4e4      	bmi.n	80081a8 <_fflush_r+0xc>
 80081de:	89a3      	ldrh	r3, [r4, #12]
 80081e0:	059b      	lsls	r3, r3, #22
 80081e2:	d4e1      	bmi.n	80081a8 <_fflush_r+0xc>
 80081e4:	6da0      	ldr	r0, [r4, #88]	; 0x58
 80081e6:	f7ff fe25 	bl	8007e34 <__retarget_lock_release_recursive>
 80081ea:	e7dd      	b.n	80081a8 <_fflush_r+0xc>

080081ec <fiprintf>:
 80081ec:	b40e      	push	{r1, r2, r3}
 80081ee:	b503      	push	{r0, r1, lr}
 80081f0:	4601      	mov	r1, r0
 80081f2:	ab03      	add	r3, sp, #12
 80081f4:	4805      	ldr	r0, [pc, #20]	; (800820c <fiprintf+0x20>)
 80081f6:	f853 2b04 	ldr.w	r2, [r3], #4
 80081fa:	6800      	ldr	r0, [r0, #0]
 80081fc:	9301      	str	r3, [sp, #4]
 80081fe:	f000 f845 	bl	800828c <_vfiprintf_r>
 8008202:	b002      	add	sp, #8
 8008204:	f85d eb04 	ldr.w	lr, [sp], #4
 8008208:	b003      	add	sp, #12
 800820a:	4770      	bx	lr
 800820c:	20000690 	.word	0x20000690

08008210 <_sbrk_r>:
 8008210:	b538      	push	{r3, r4, r5, lr}
 8008212:	2300      	movs	r3, #0
 8008214:	4d05      	ldr	r5, [pc, #20]	; (800822c <_sbrk_r+0x1c>)
 8008216:	4604      	mov	r4, r0
 8008218:	4608      	mov	r0, r1
 800821a:	602b      	str	r3, [r5, #0]
 800821c:	f7fa f96a 	bl	80024f4 <_sbrk>
 8008220:	1c43      	adds	r3, r0, #1
 8008222:	d102      	bne.n	800822a <_sbrk_r+0x1a>
 8008224:	682b      	ldr	r3, [r5, #0]
 8008226:	b103      	cbz	r3, 800822a <_sbrk_r+0x1a>
 8008228:	6023      	str	r3, [r4, #0]
 800822a:	bd38      	pop	{r3, r4, r5, pc}
 800822c:	20002bd8 	.word	0x20002bd8

08008230 <abort>:
 8008230:	2006      	movs	r0, #6
 8008232:	b508      	push	{r3, lr}
 8008234:	f000 fb96 	bl	8008964 <raise>
 8008238:	2001      	movs	r0, #1
 800823a:	f7fa f92f 	bl	800249c <_exit>

0800823e <__sfputc_r>:
 800823e:	6893      	ldr	r3, [r2, #8]
 8008240:	b410      	push	{r4}
 8008242:	3b01      	subs	r3, #1
 8008244:	2b00      	cmp	r3, #0
 8008246:	6093      	str	r3, [r2, #8]
 8008248:	da07      	bge.n	800825a <__sfputc_r+0x1c>
 800824a:	6994      	ldr	r4, [r2, #24]
 800824c:	42a3      	cmp	r3, r4
 800824e:	db01      	blt.n	8008254 <__sfputc_r+0x16>
 8008250:	290a      	cmp	r1, #10
 8008252:	d102      	bne.n	800825a <__sfputc_r+0x1c>
 8008254:	bc10      	pop	{r4}
 8008256:	f000 bac7 	b.w	80087e8 <__swbuf_r>
 800825a:	6813      	ldr	r3, [r2, #0]
 800825c:	1c58      	adds	r0, r3, #1
 800825e:	6010      	str	r0, [r2, #0]
 8008260:	7019      	strb	r1, [r3, #0]
 8008262:	4608      	mov	r0, r1
 8008264:	bc10      	pop	{r4}
 8008266:	4770      	bx	lr

08008268 <__sfputs_r>:
 8008268:	b5f8      	push	{r3, r4, r5, r6, r7, lr}
 800826a:	4606      	mov	r6, r0
 800826c:	460f      	mov	r7, r1
 800826e:	4614      	mov	r4, r2
 8008270:	18d5      	adds	r5, r2, r3
 8008272:	42ac      	cmp	r4, r5
 8008274:	d101      	bne.n	800827a <__sfputs_r+0x12>
 8008276:	2000      	movs	r0, #0
 8008278:	e007      	b.n	800828a <__sfputs_r+0x22>
 800827a:	463a      	mov	r2, r7
 800827c:	4630      	mov	r0, r6
 800827e:	f814 1b01 	ldrb.w	r1, [r4], #1
 8008282:	f7ff ffdc 	bl	800823e <__sfputc_r>
 8008286:	1c43      	adds	r3, r0, #1
 8008288:	d1f3      	bne.n	8008272 <__sfputs_r+0xa>
 800828a:	bdf8      	pop	{r3, r4, r5, r6, r7, pc}

0800828c <_vfiprintf_r>:
 800828c:	e92d 4ff0 	stmdb	sp!, {r4, r5, r6, r7, r8, r9, sl, fp, lr}
 8008290:	460d      	mov	r5, r1
 8008292:	4614      	mov	r4, r2
 8008294:	4698      	mov	r8, r3
 8008296:	4606      	mov	r6, r0
 8008298:	b09d      	sub	sp, #116	; 0x74
 800829a:	b118      	cbz	r0, 80082a4 <_vfiprintf_r+0x18>
 800829c:	6a03      	ldr	r3, [r0, #32]
 800829e:	b90b      	cbnz	r3, 80082a4 <_vfiprintf_r+0x18>
 80082a0:	f7ff fcd4 	bl	8007c4c <__sinit>
 80082a4:	6e6b      	ldr	r3, [r5, #100]	; 0x64
 80082a6:	07d9      	lsls	r1, r3, #31
 80082a8:	d405      	bmi.n	80082b6 <_vfiprintf_r+0x2a>
 80082aa:	89ab      	ldrh	r3, [r5, #12]
 80082ac:	059a      	lsls	r2, r3, #22
 80082ae:	d402      	bmi.n	80082b6 <_vfiprintf_r+0x2a>
 80082b0:	6da8      	ldr	r0, [r5, #88]	; 0x58
 80082b2:	f7ff fdbe 	bl	8007e32 <__retarget_lock_acquire_recursive>
 80082b6:	89ab      	ldrh	r3, [r5, #12]
 80082b8:	071b      	lsls	r3, r3, #28
 80082ba:	d501      	bpl.n	80082c0 <_vfiprintf_r+0x34>
 80082bc:	692b      	ldr	r3, [r5, #16]
 80082be:	b99b      	cbnz	r3, 80082e8 <_vfiprintf_r+0x5c>
 80082c0:	4629      	mov	r1, r5
 80082c2:	4630      	mov	r0, r6
 80082c4:	f000 face 	bl	8008864 <__swsetup_r>
 80082c8:	b170      	cbz	r0, 80082e8 <_vfiprintf_r+0x5c>
 80082ca:	6e6b      	ldr	r3, [r5, #100]	; 0x64
 80082cc:	07dc      	lsls	r4, r3, #31
 80082ce:	d504      	bpl.n	80082da <_vfiprintf_r+0x4e>
 80082d0:	f04f 30ff 	mov.w	r0, #4294967295
 80082d4:	b01d      	add	sp, #116	; 0x74
 80082d6:	e8bd 8ff0 	ldmia.w	sp!, {r4, r5, r6, r7, r8, r9, sl, fp, pc}
 80082da:	89ab      	ldrh	r3, [r5, #12]
 80082dc:	0598      	lsls	r0, r3, #22
 80082de:	d4f7      	bmi.n	80082d0 <_vfiprintf_r+0x44>
 80082e0:	6da8      	ldr	r0, [r5, #88]	; 0x58
 80082e2:	f7ff fda7 	bl	8007e34 <__retarget_lock_release_recursive>
 80082e6:	e7f3      	b.n	80082d0 <_vfiprintf_r+0x44>
 80082e8:	2300      	movs	r3, #0
 80082ea:	9309      	str	r3, [sp, #36]	; 0x24
 80082ec:	2320      	movs	r3, #32
 80082ee:	f88d 3029 	strb.w	r3, [sp, #41]	; 0x29
 80082f2:	2330      	movs	r3, #48	; 0x30
 80082f4:	f04f 0901 	mov.w	r9, #1
 80082f8:	f8cd 800c 	str.w	r8, [sp, #12]
 80082fc:	f8df 81ac 	ldr.w	r8, [pc, #428]	; 80084ac <_vfiprintf_r+0x220>
 8008300:	f88d 302a 	strb.w	r3, [sp, #42]	; 0x2a
 8008304:	4623      	mov	r3, r4
 8008306:	469a      	mov	sl, r3
 8008308:	f813 2b01 	ldrb.w	r2, [r3], #1
 800830c:	b10a      	cbz	r2, 8008312 <_vfiprintf_r+0x86>
 800830e:	2a25      	cmp	r2, #37	; 0x25
 8008310:	d1f9      	bne.n	8008306 <_vfiprintf_r+0x7a>
 8008312:	ebba 0b04 	subs.w	fp, sl, r4
 8008316:	d00b      	beq.n	8008330 <_vfiprintf_r+0xa4>
 8008318:	465b      	mov	r3, fp
 800831a:	4622      	mov	r2, r4
 800831c:	4629      	mov	r1, r5
 800831e:	4630      	mov	r0, r6
 8008320:	f7ff ffa2 	bl	8008268 <__sfputs_r>
 8008324:	3001      	adds	r0, #1
 8008326:	f000 80a9 	beq.w	800847c <_vfiprintf_r+0x1f0>
 800832a:	9a09      	ldr	r2, [sp, #36]	; 0x24
 800832c:	445a      	add	r2, fp
 800832e:	9209      	str	r2, [sp, #36]	; 0x24
 8008330:	f89a 3000 	ldrb.w	r3, [sl]
 8008334:	2b00      	cmp	r3, #0
 8008336:	f000 80a1 	beq.w	800847c <_vfiprintf_r+0x1f0>
 800833a:	2300      	movs	r3, #0
 800833c:	f04f 32ff 	mov.w	r2, #4294967295
 8008340:	e9cd 2305 	strd	r2, r3, [sp, #20]
 8008344:	f10a 0a01 	add.w	sl, sl, #1
 8008348:	9304      	str	r3, [sp, #16]
 800834a:	9307      	str	r3, [sp, #28]
 800834c:	f88d 3053 	strb.w	r3, [sp, #83]	; 0x53
 8008350:	931a      	str	r3, [sp, #104]	; 0x68
 8008352:	4654      	mov	r4, sl
 8008354:	2205      	movs	r2, #5
 8008356:	f814 1b01 	ldrb.w	r1, [r4], #1
 800835a:	4854      	ldr	r0, [pc, #336]	; (80084ac <_vfiprintf_r+0x220>)
 800835c:	f000 fb1e 	bl	800899c <memchr>
 8008360:	9a04      	ldr	r2, [sp, #16]
 8008362:	b9d8      	cbnz	r0, 800839c <_vfiprintf_r+0x110>
 8008364:	06d1      	lsls	r1, r2, #27
 8008366:	bf44      	itt	mi
 8008368:	2320      	movmi	r3, #32
 800836a:	f88d 3053 	strbmi.w	r3, [sp, #83]	; 0x53
 800836e:	0713      	lsls	r3, r2, #28
 8008370:	bf44      	itt	mi
 8008372:	232b      	movmi	r3, #43	; 0x2b
 8008374:	f88d 3053 	strbmi.w	r3, [sp, #83]	; 0x53
 8008378:	f89a 3000 	ldrb.w	r3, [sl]
 800837c:	2b2a      	cmp	r3, #42	; 0x2a
 800837e:	d015      	beq.n	80083ac <_vfiprintf_r+0x120>
 8008380:	4654      	mov	r4, sl
 8008382:	2000      	movs	r0, #0
 8008384:	f04f 0c0a 	mov.w	ip, #10
 8008388:	9a07      	ldr	r2, [sp, #28]
 800838a:	4621      	mov	r1, r4
 800838c:	f811 3b01 	ldrb.w	r3, [r1], #1
 8008390:	3b30      	subs	r3, #48	; 0x30
 8008392:	2b09      	cmp	r3, #9
 8008394:	d94d      	bls.n	8008432 <_vfiprintf_r+0x1a6>
 8008396:	b1b0      	cbz	r0, 80083c6 <_vfiprintf_r+0x13a>
 8008398:	9207      	str	r2, [sp, #28]
 800839a:	e014      	b.n	80083c6 <_vfiprintf_r+0x13a>
 800839c:	eba0 0308 	sub.w	r3, r0, r8
 80083a0:	fa09 f303 	lsl.w	r3, r9, r3
 80083a4:	4313      	orrs	r3, r2
 80083a6:	46a2      	mov	sl, r4
 80083a8:	9304      	str	r3, [sp, #16]
 80083aa:	e7d2      	b.n	8008352 <_vfiprintf_r+0xc6>
 80083ac:	9b03      	ldr	r3, [sp, #12]
 80083ae:	1d19      	adds	r1, r3, #4
 80083b0:	681b      	ldr	r3, [r3, #0]
 80083b2:	9103      	str	r1, [sp, #12]
 80083b4:	2b00      	cmp	r3, #0
 80083b6:	bfbb      	ittet	lt
 80083b8:	425b      	neglt	r3, r3
 80083ba:	f042 0202 	orrlt.w	r2, r2, #2
 80083be:	9307      	strge	r3, [sp, #28]
 80083c0:	9307      	strlt	r3, [sp, #28]
 80083c2:	bfb8      	it	lt
 80083c4:	9204      	strlt	r2, [sp, #16]
 80083c6:	7823      	ldrb	r3, [r4, #0]
 80083c8:	2b2e      	cmp	r3, #46	; 0x2e
 80083ca:	d10c      	bne.n	80083e6 <_vfiprintf_r+0x15a>
 80083cc:	7863      	ldrb	r3, [r4, #1]
 80083ce:	2b2a      	cmp	r3, #42	; 0x2a
 80083d0:	d134      	bne.n	800843c <_vfiprintf_r+0x1b0>
 80083d2:	9b03      	ldr	r3, [sp, #12]
 80083d4:	3402      	adds	r4, #2
 80083d6:	1d1a      	adds	r2, r3, #4
 80083d8:	681b      	ldr	r3, [r3, #0]
 80083da:	9203      	str	r2, [sp, #12]
 80083dc:	2b00      	cmp	r3, #0
 80083de:	bfb8      	it	lt
 80083e0:	f04f 33ff 	movlt.w	r3, #4294967295
 80083e4:	9305      	str	r3, [sp, #20]
 80083e6:	f8df a0c8 	ldr.w	sl, [pc, #200]	; 80084b0 <_vfiprintf_r+0x224>
 80083ea:	2203      	movs	r2, #3
 80083ec:	4650      	mov	r0, sl
 80083ee:	7821      	ldrb	r1, [r4, #0]
 80083f0:	f000 fad4 	bl	800899c <memchr>
 80083f4:	b138      	cbz	r0, 8008406 <_vfiprintf_r+0x17a>
 80083f6:	2240      	movs	r2, #64	; 0x40
 80083f8:	9b04      	ldr	r3, [sp, #16]
 80083fa:	eba0 000a 	sub.w	r0, r0, sl
 80083fe:	4082      	lsls	r2, r0
 8008400:	4313      	orrs	r3, r2
 8008402:	3401      	adds	r4, #1
 8008404:	9304      	str	r3, [sp, #16]
 8008406:	f814 1b01 	ldrb.w	r1, [r4], #1
 800840a:	2206      	movs	r2, #6
 800840c:	4829      	ldr	r0, [pc, #164]	; (80084b4 <_vfiprintf_r+0x228>)
 800840e:	f88d 1028 	strb.w	r1, [sp, #40]	; 0x28
 8008412:	f000 fac3 	bl	800899c <memchr>
 8008416:	2800      	cmp	r0, #0
 8008418:	d03f      	beq.n	800849a <_vfiprintf_r+0x20e>
 800841a:	4b27      	ldr	r3, [pc, #156]	; (80084b8 <_vfiprintf_r+0x22c>)
 800841c:	bb1b      	cbnz	r3, 8008466 <_vfiprintf_r+0x1da>
 800841e:	9b03      	ldr	r3, [sp, #12]
 8008420:	3307      	adds	r3, #7
 8008422:	f023 0307 	bic.w	r3, r3, #7
 8008426:	3308      	adds	r3, #8
 8008428:	9303      	str	r3, [sp, #12]
 800842a:	9b09      	ldr	r3, [sp, #36]	; 0x24
 800842c:	443b      	add	r3, r7
 800842e:	9309      	str	r3, [sp, #36]	; 0x24
 8008430:	e768      	b.n	8008304 <_vfiprintf_r+0x78>
 8008432:	460c      	mov	r4, r1
 8008434:	2001      	movs	r0, #1
 8008436:	fb0c 3202 	mla	r2, ip, r2, r3
 800843a:	e7a6      	b.n	800838a <_vfiprintf_r+0xfe>
 800843c:	2300      	movs	r3, #0
 800843e:	f04f 0c0a 	mov.w	ip, #10
 8008442:	4619      	mov	r1, r3
 8008444:	3401      	adds	r4, #1
 8008446:	9305      	str	r3, [sp, #20]
 8008448:	4620      	mov	r0, r4
 800844a:	f810 2b01 	ldrb.w	r2, [r0], #1
 800844e:	3a30      	subs	r2, #48	; 0x30
 8008450:	2a09      	cmp	r2, #9
 8008452:	d903      	bls.n	800845c <_vfiprintf_r+0x1d0>
 8008454:	2b00      	cmp	r3, #0
 8008456:	d0c6      	beq.n	80083e6 <_vfiprintf_r+0x15a>
 8008458:	9105      	str	r1, [sp, #20]
 800845a:	e7c4      	b.n	80083e6 <_vfiprintf_r+0x15a>
 800845c:	4604      	mov	r4, r0
 800845e:	2301      	movs	r3, #1
 8008460:	fb0c 2101 	mla	r1, ip, r1, r2
 8008464:	e7f0      	b.n	8008448 <_vfiprintf_r+0x1bc>
 8008466:	ab03      	add	r3, sp, #12
 8008468:	9300      	str	r3, [sp, #0]
 800846a:	462a      	mov	r2, r5
 800846c:	4630      	mov	r0, r6
 800846e:	4b13      	ldr	r3, [pc, #76]	; (80084bc <_vfiprintf_r+0x230>)
 8008470:	a904      	add	r1, sp, #16
 8008472:	f3af 8000 	nop.w
 8008476:	4607      	mov	r7, r0
 8008478:	1c78      	adds	r0, r7, #1
 800847a:	d1d6      	bne.n	800842a <_vfiprintf_r+0x19e>
 800847c:	6e6b      	ldr	r3, [r5, #100]	; 0x64
 800847e:	07d9      	lsls	r1, r3, #31
 8008480:	d405      	bmi.n	800848e <_vfiprintf_r+0x202>
 8008482:	89ab      	ldrh	r3, [r5, #12]
 8008484:	059a      	lsls	r2, r3, #22
 8008486:	d402      	bmi.n	800848e <_vfiprintf_r+0x202>
 8008488:	6da8      	ldr	r0, [r5, #88]	; 0x58
 800848a:	f7ff fcd3 	bl	8007e34 <__retarget_lock_release_recursive>
 800848e:	89ab      	ldrh	r3, [r5, #12]
 8008490:	065b      	lsls	r3, r3, #25
 8008492:	f53f af1d 	bmi.w	80082d0 <_vfiprintf_r+0x44>
 8008496:	9809      	ldr	r0, [sp, #36]	; 0x24
 8008498:	e71c      	b.n	80082d4 <_vfiprintf_r+0x48>
 800849a:	ab03      	add	r3, sp, #12
 800849c:	9300      	str	r3, [sp, #0]
 800849e:	462a      	mov	r2, r5
 80084a0:	4630      	mov	r0, r6
 80084a2:	4b06      	ldr	r3, [pc, #24]	; (80084bc <_vfiprintf_r+0x230>)
 80084a4:	a904      	add	r1, sp, #16
 80084a6:	f000 f87d 	bl	80085a4 <_printf_i>
 80084aa:	e7e4      	b.n	8008476 <_vfiprintf_r+0x1ea>
 80084ac:	0800988c 	.word	0x0800988c
 80084b0:	08009892 	.word	0x08009892
 80084b4:	08009896 	.word	0x08009896
 80084b8:	00000000 	.word	0x00000000
 80084bc:	08008269 	.word	0x08008269

080084c0 <_printf_common>:
 80084c0:	e92d 47f0 	stmdb	sp!, {r4, r5, r6, r7, r8, r9, sl, lr}
 80084c4:	4616      	mov	r6, r2
 80084c6:	4699      	mov	r9, r3
 80084c8:	688a      	ldr	r2, [r1, #8]
 80084ca:	690b      	ldr	r3, [r1, #16]
 80084cc:	4607      	mov	r7, r0
 80084ce:	4293      	cmp	r3, r2
 80084d0:	bfb8      	it	lt
 80084d2:	4613      	movlt	r3, r2
 80084d4:	6033      	str	r3, [r6, #0]
 80084d6:	f891 2043 	ldrb.w	r2, [r1, #67]	; 0x43
 80084da:	460c      	mov	r4, r1
 80084dc:	f8dd 8020 	ldr.w	r8, [sp, #32]
 80084e0:	b10a      	cbz	r2, 80084e6 <_printf_common+0x26>
 80084e2:	3301      	adds	r3, #1
 80084e4:	6033      	str	r3, [r6, #0]
 80084e6:	6823      	ldr	r3, [r4, #0]
 80084e8:	0699      	lsls	r1, r3, #26
 80084ea:	bf42      	ittt	mi
 80084ec:	6833      	ldrmi	r3, [r6, #0]
 80084ee:	3302      	addmi	r3, #2
 80084f0:	6033      	strmi	r3, [r6, #0]
 80084f2:	6825      	ldr	r5, [r4, #0]
 80084f4:	f015 0506 	ands.w	r5, r5, #6
 80084f8:	d106      	bne.n	8008508 <_printf_common+0x48>
 80084fa:	f104 0a19 	add.w	sl, r4, #25
 80084fe:	68e3      	ldr	r3, [r4, #12]
 8008500:	6832      	ldr	r2, [r6, #0]
 8008502:	1a9b      	subs	r3, r3, r2
 8008504:	42ab      	cmp	r3, r5
 8008506:	dc2b      	bgt.n	8008560 <_printf_common+0xa0>
 8008508:	f894 2043 	ldrb.w	r2, [r4, #67]	; 0x43
 800850c:	1e13      	subs	r3, r2, #0
 800850e:	6822      	ldr	r2, [r4, #0]
 8008510:	bf18      	it	ne
 8008512:	2301      	movne	r3, #1
 8008514:	0692      	lsls	r2, r2, #26
 8008516:	d430      	bmi.n	800857a <_printf_common+0xba>
 8008518:	4649      	mov	r1, r9
 800851a:	4638      	mov	r0, r7
 800851c:	f104 0243 	add.w	r2, r4, #67	; 0x43
 8008520:	47c0      	blx	r8
 8008522:	3001      	adds	r0, #1
 8008524:	d023      	beq.n	800856e <_printf_common+0xae>
 8008526:	6823      	ldr	r3, [r4, #0]
 8008528:	6922      	ldr	r2, [r4, #16]
 800852a:	f003 0306 	and.w	r3, r3, #6
 800852e:	2b04      	cmp	r3, #4
 8008530:	bf14      	ite	ne
 8008532:	2500      	movne	r5, #0
 8008534:	6833      	ldreq	r3, [r6, #0]
 8008536:	f04f 0600 	mov.w	r6, #0
 800853a:	bf08      	it	eq
 800853c:	68e5      	ldreq	r5, [r4, #12]
 800853e:	f104 041a 	add.w	r4, r4, #26
 8008542:	bf08      	it	eq
 8008544:	1aed      	subeq	r5, r5, r3
 8008546:	f854 3c12 	ldr.w	r3, [r4, #-18]
 800854a:	bf08      	it	eq
 800854c:	ea25 75e5 	biceq.w	r5, r5, r5, asr #31
 8008550:	4293      	cmp	r3, r2
 8008552:	bfc4      	itt	gt
 8008554:	1a9b      	subgt	r3, r3, r2
 8008556:	18ed      	addgt	r5, r5, r3
 8008558:	42b5      	cmp	r5, r6
 800855a:	d11a      	bne.n	8008592 <_printf_common+0xd2>
 800855c:	2000      	movs	r0, #0
 800855e:	e008      	b.n	8008572 <_printf_common+0xb2>
 8008560:	2301      	movs	r3, #1
 8008562:	4652      	mov	r2, sl
 8008564:	4649      	mov	r1, r9
 8008566:	4638      	mov	r0, r7
 8008568:	47c0      	blx	r8
 800856a:	3001      	adds	r0, #1
 800856c:	d103      	bne.n	8008576 <_printf_common+0xb6>
 800856e:	f04f 30ff 	mov.w	r0, #4294967295
 8008572:	e8bd 87f0 	ldmia.w	sp!, {r4, r5, r6, r7, r8, r9, sl, pc}
 8008576:	3501      	adds	r5, #1
 8008578:	e7c1      	b.n	80084fe <_printf_common+0x3e>
 800857a:	2030      	movs	r0, #48	; 0x30
 800857c:	18e1      	adds	r1, r4, r3
 800857e:	f881 0043 	strb.w	r0, [r1, #67]	; 0x43
 8008582:	1c5a      	adds	r2, r3, #1
 8008584:	f894 1045 	ldrb.w	r1, [r4, #69]	; 0x45
 8008588:	4422      	add	r2, r4
 800858a:	3302      	adds	r3, #2
 800858c:	f882 1043 	strb.w	r1, [r2, #67]	; 0x43
 8008590:	e7c2      	b.n	8008518 <_printf_common+0x58>
 8008592:	2301      	movs	r3, #1
 8008594:	4622      	mov	r2, r4
 8008596:	4649      	mov	r1, r9
 8008598:	4638      	mov	r0, r7
 800859a:	47c0      	blx	r8
 800859c:	3001      	adds	r0, #1
 800859e:	d0e6      	beq.n	800856e <_printf_common+0xae>
 80085a0:	3601      	adds	r6, #1
 80085a2:	e7d9      	b.n	8008558 <_printf_common+0x98>

080085a4 <_printf_i>:
 80085a4:	e92d 47ff 	stmdb	sp!, {r0, r1, r2, r3, r4, r5, r6, r7, r8, r9, sl, lr}
 80085a8:	7e0f      	ldrb	r7, [r1, #24]
 80085aa:	4691      	mov	r9, r2
 80085ac:	2f78      	cmp	r7, #120	; 0x78
 80085ae:	4680      	mov	r8, r0
 80085b0:	460c      	mov	r4, r1
 80085b2:	469a      	mov	sl, r3
 80085b4:	9d0c      	ldr	r5, [sp, #48]	; 0x30
 80085b6:	f101 0243 	add.w	r2, r1, #67	; 0x43
 80085ba:	d807      	bhi.n	80085cc <_printf_i+0x28>
 80085bc:	2f62      	cmp	r7, #98	; 0x62
 80085be:	d80a      	bhi.n	80085d6 <_printf_i+0x32>
 80085c0:	2f00      	cmp	r7, #0
 80085c2:	f000 80d5 	beq.w	8008770 <_printf_i+0x1cc>
 80085c6:	2f58      	cmp	r7, #88	; 0x58
 80085c8:	f000 80c1 	beq.w	800874e <_printf_i+0x1aa>
 80085cc:	f104 0542 	add.w	r5, r4, #66	; 0x42
 80085d0:	f884 7042 	strb.w	r7, [r4, #66]	; 0x42
 80085d4:	e03a      	b.n	800864c <_printf_i+0xa8>
 80085d6:	f1a7 0363 	sub.w	r3, r7, #99	; 0x63
 80085da:	2b15      	cmp	r3, #21
 80085dc:	d8f6      	bhi.n	80085cc <_printf_i+0x28>
 80085de:	a101      	add	r1, pc, #4	; (adr r1, 80085e4 <_printf_i+0x40>)
 80085e0:	f851 f023 	ldr.w	pc, [r1, r3, lsl #2]
 80085e4:	0800863d 	.word	0x0800863d
 80085e8:	08008651 	.word	0x08008651
 80085ec:	080085cd 	.word	0x080085cd
 80085f0:	080085cd 	.word	0x080085cd
 80085f4:	080085cd 	.word	0x080085cd
 80085f8:	080085cd 	.word	0x080085cd
 80085fc:	08008651 	.word	0x08008651
 8008600:	080085cd 	.word	0x080085cd
 8008604:	080085cd 	.word	0x080085cd
 8008608:	080085cd 	.word	0x080085cd
 800860c:	080085cd 	.word	0x080085cd
 8008610:	08008757 	.word	0x08008757
 8008614:	0800867d 	.word	0x0800867d
 8008618:	08008711 	.word	0x08008711
 800861c:	080085cd 	.word	0x080085cd
 8008620:	080085cd 	.word	0x080085cd
 8008624:	08008779 	.word	0x08008779
 8008628:	080085cd 	.word	0x080085cd
 800862c:	0800867d 	.word	0x0800867d
 8008630:	080085cd 	.word	0x080085cd
 8008634:	080085cd 	.word	0x080085cd
 8008638:	08008719 	.word	0x08008719
 800863c:	682b      	ldr	r3, [r5, #0]
 800863e:	1d1a      	adds	r2, r3, #4
 8008640:	681b      	ldr	r3, [r3, #0]
 8008642:	602a      	str	r2, [r5, #0]
 8008644:	f104 0542 	add.w	r5, r4, #66	; 0x42
 8008648:	f884 3042 	strb.w	r3, [r4, #66]	; 0x42
 800864c:	2301      	movs	r3, #1
 800864e:	e0a0      	b.n	8008792 <_printf_i+0x1ee>
 8008650:	6820      	ldr	r0, [r4, #0]
 8008652:	682b      	ldr	r3, [r5, #0]
 8008654:	0607      	lsls	r7, r0, #24
 8008656:	f103 0104 	add.w	r1, r3, #4
 800865a:	6029      	str	r1, [r5, #0]
 800865c:	d501      	bpl.n	8008662 <_printf_i+0xbe>
 800865e:	681e      	ldr	r6, [r3, #0]
 8008660:	e003      	b.n	800866a <_printf_i+0xc6>
 8008662:	0646      	lsls	r6, r0, #25
 8008664:	d5fb      	bpl.n	800865e <_printf_i+0xba>
 8008666:	f9b3 6000 	ldrsh.w	r6, [r3]
 800866a:	2e00      	cmp	r6, #0
 800866c:	da03      	bge.n	8008676 <_printf_i+0xd2>
 800866e:	232d      	movs	r3, #45	; 0x2d
 8008670:	4276      	negs	r6, r6
 8008672:	f884 3043 	strb.w	r3, [r4, #67]	; 0x43
 8008676:	230a      	movs	r3, #10
 8008678:	4859      	ldr	r0, [pc, #356]	; (80087e0 <_printf_i+0x23c>)
 800867a:	e012      	b.n	80086a2 <_printf_i+0xfe>
 800867c:	682b      	ldr	r3, [r5, #0]
 800867e:	6820      	ldr	r0, [r4, #0]
 8008680:	1d19      	adds	r1, r3, #4
 8008682:	6029      	str	r1, [r5, #0]
 8008684:	0605      	lsls	r5, r0, #24
 8008686:	d501      	bpl.n	800868c <_printf_i+0xe8>
 8008688:	681e      	ldr	r6, [r3, #0]
 800868a:	e002      	b.n	8008692 <_printf_i+0xee>
 800868c:	0641      	lsls	r1, r0, #25
 800868e:	d5fb      	bpl.n	8008688 <_printf_i+0xe4>
 8008690:	881e      	ldrh	r6, [r3, #0]
 8008692:	2f6f      	cmp	r7, #111	; 0x6f
 8008694:	bf0c      	ite	eq
 8008696:	2308      	moveq	r3, #8
 8008698:	230a      	movne	r3, #10
 800869a:	4851      	ldr	r0, [pc, #324]	; (80087e0 <_printf_i+0x23c>)
 800869c:	2100      	movs	r1, #0
 800869e:	f884 1043 	strb.w	r1, [r4, #67]	; 0x43
 80086a2:	6865      	ldr	r5, [r4, #4]
 80086a4:	2d00      	cmp	r5, #0
 80086a6:	bfa8      	it	ge
 80086a8:	6821      	ldrge	r1, [r4, #0]
 80086aa:	60a5      	str	r5, [r4, #8]
 80086ac:	bfa4      	itt	ge
 80086ae:	f021 0104 	bicge.w	r1, r1, #4
 80086b2:	6021      	strge	r1, [r4, #0]
 80086b4:	b90e      	cbnz	r6, 80086ba <_printf_i+0x116>
 80086b6:	2d00      	cmp	r5, #0
 80086b8:	d04b      	beq.n	8008752 <_printf_i+0x1ae>
 80086ba:	4615      	mov	r5, r2
 80086bc:	fbb6 f1f3 	udiv	r1, r6, r3
 80086c0:	fb03 6711 	mls	r7, r3, r1, r6
 80086c4:	5dc7      	ldrb	r7, [r0, r7]
 80086c6:	f805 7d01 	strb.w	r7, [r5, #-1]!
 80086ca:	4637      	mov	r7, r6
 80086cc:	42bb      	cmp	r3, r7
 80086ce:	460e      	mov	r6, r1
 80086d0:	d9f4      	bls.n	80086bc <_printf_i+0x118>
 80086d2:	2b08      	cmp	r3, #8
 80086d4:	d10b      	bne.n	80086ee <_printf_i+0x14a>
 80086d6:	6823      	ldr	r3, [r4, #0]
 80086d8:	07de      	lsls	r6, r3, #31
 80086da:	d508      	bpl.n	80086ee <_printf_i+0x14a>
 80086dc:	6923      	ldr	r3, [r4, #16]
 80086de:	6861      	ldr	r1, [r4, #4]
 80086e0:	4299      	cmp	r1, r3
 80086e2:	bfde      	ittt	le
 80086e4:	2330      	movle	r3, #48	; 0x30
 80086e6:	f805 3c01 	strble.w	r3, [r5, #-1]
 80086ea:	f105 35ff 	addle.w	r5, r5, #4294967295
 80086ee:	1b52      	subs	r2, r2, r5
 80086f0:	6122      	str	r2, [r4, #16]
 80086f2:	464b      	mov	r3, r9
 80086f4:	4621      	mov	r1, r4
 80086f6:	4640      	mov	r0, r8
 80086f8:	f8cd a000 	str.w	sl, [sp]
 80086fc:	aa03      	add	r2, sp, #12
 80086fe:	f7ff fedf 	bl	80084c0 <_printf_common>
 8008702:	3001      	adds	r0, #1
 8008704:	d14a      	bne.n	800879c <_printf_i+0x1f8>
 8008706:	f04f 30ff 	mov.w	r0, #4294967295
 800870a:	b004      	add	sp, #16
 800870c:	e8bd 87f0 	ldmia.w	sp!, {r4, r5, r6, r7, r8, r9, sl, pc}
 8008710:	6823      	ldr	r3, [r4, #0]
 8008712:	f043 0320 	orr.w	r3, r3, #32
 8008716:	6023      	str	r3, [r4, #0]
 8008718:	2778      	movs	r7, #120	; 0x78
 800871a:	4832      	ldr	r0, [pc, #200]	; (80087e4 <_printf_i+0x240>)
 800871c:	f884 7045 	strb.w	r7, [r4, #69]	; 0x45
 8008720:	6823      	ldr	r3, [r4, #0]
 8008722:	6829      	ldr	r1, [r5, #0]
 8008724:	061f      	lsls	r7, r3, #24
 8008726:	f851 6b04 	ldr.w	r6, [r1], #4
 800872a:	d402      	bmi.n	8008732 <_printf_i+0x18e>
 800872c:	065f      	lsls	r7, r3, #25
 800872e:	bf48      	it	mi
 8008730:	b2b6      	uxthmi	r6, r6
 8008732:	07df      	lsls	r7, r3, #31
 8008734:	bf48      	it	mi
 8008736:	f043 0320 	orrmi.w	r3, r3, #32
 800873a:	6029      	str	r1, [r5, #0]
 800873c:	bf48      	it	mi
 800873e:	6023      	strmi	r3, [r4, #0]
 8008740:	b91e      	cbnz	r6, 800874a <_printf_i+0x1a6>
 8008742:	6823      	ldr	r3, [r4, #0]
 8008744:	f023 0320 	bic.w	r3, r3, #32
 8008748:	6023      	str	r3, [r4, #0]
 800874a:	2310      	movs	r3, #16
 800874c:	e7a6      	b.n	800869c <_printf_i+0xf8>
 800874e:	4824      	ldr	r0, [pc, #144]	; (80087e0 <_printf_i+0x23c>)
 8008750:	e7e4      	b.n	800871c <_printf_i+0x178>
 8008752:	4615      	mov	r5, r2
 8008754:	e7bd      	b.n	80086d2 <_printf_i+0x12e>
 8008756:	682b      	ldr	r3, [r5, #0]
 8008758:	6826      	ldr	r6, [r4, #0]
 800875a:	1d18      	adds	r0, r3, #4
 800875c:	6961      	ldr	r1, [r4, #20]
 800875e:	6028      	str	r0, [r5, #0]
 8008760:	0635      	lsls	r5, r6, #24
 8008762:	681b      	ldr	r3, [r3, #0]
 8008764:	d501      	bpl.n	800876a <_printf_i+0x1c6>
 8008766:	6019      	str	r1, [r3, #0]
 8008768:	e002      	b.n	8008770 <_printf_i+0x1cc>
 800876a:	0670      	lsls	r0, r6, #25
 800876c:	d5fb      	bpl.n	8008766 <_printf_i+0x1c2>
 800876e:	8019      	strh	r1, [r3, #0]
 8008770:	2300      	movs	r3, #0
 8008772:	4615      	mov	r5, r2
 8008774:	6123      	str	r3, [r4, #16]
 8008776:	e7bc      	b.n	80086f2 <_printf_i+0x14e>
 8008778:	682b      	ldr	r3, [r5, #0]
 800877a:	2100      	movs	r1, #0
 800877c:	1d1a      	adds	r2, r3, #4
 800877e:	602a      	str	r2, [r5, #0]
 8008780:	681d      	ldr	r5, [r3, #0]
 8008782:	6862      	ldr	r2, [r4, #4]
 8008784:	4628      	mov	r0, r5
 8008786:	f000 f909 	bl	800899c <memchr>
 800878a:	b108      	cbz	r0, 8008790 <_printf_i+0x1ec>
 800878c:	1b40      	subs	r0, r0, r5
 800878e:	6060      	str	r0, [r4, #4]
 8008790:	6863      	ldr	r3, [r4, #4]
 8008792:	6123      	str	r3, [r4, #16]
 8008794:	2300      	movs	r3, #0
 8008796:	f884 3043 	strb.w	r3, [r4, #67]	; 0x43
 800879a:	e7aa      	b.n	80086f2 <_printf_i+0x14e>
 800879c:	462a      	mov	r2, r5
 800879e:	4649      	mov	r1, r9
 80087a0:	4640      	mov	r0, r8
 80087a2:	6923      	ldr	r3, [r4, #16]
 80087a4:	47d0      	blx	sl
 80087a6:	3001      	adds	r0, #1
 80087a8:	d0ad      	beq.n	8008706 <_printf_i+0x162>
 80087aa:	6823      	ldr	r3, [r4, #0]
 80087ac:	079b      	lsls	r3, r3, #30
 80087ae:	d413      	bmi.n	80087d8 <_printf_i+0x234>
 80087b0:	68e0      	ldr	r0, [r4, #12]
 80087b2:	9b03      	ldr	r3, [sp, #12]
 80087b4:	4298      	cmp	r0, r3
 80087b6:	bfb8      	it	lt
 80087b8:	4618      	movlt	r0, r3
 80087ba:	e7a6      	b.n	800870a <_printf_i+0x166>
 80087bc:	2301      	movs	r3, #1
 80087be:	4632      	mov	r2, r6
 80087c0:	4649      	mov	r1, r9
 80087c2:	4640      	mov	r0, r8
 80087c4:	47d0      	blx	sl
 80087c6:	3001      	adds	r0, #1
 80087c8:	d09d      	beq.n	8008706 <_printf_i+0x162>
 80087ca:	3501      	adds	r5, #1
 80087cc:	68e3      	ldr	r3, [r4, #12]
 80087ce:	9903      	ldr	r1, [sp, #12]
 80087d0:	1a5b      	subs	r3, r3, r1
 80087d2:	42ab      	cmp	r3, r5
 80087d4:	dcf2      	bgt.n	80087bc <_printf_i+0x218>
 80087d6:	e7eb      	b.n	80087b0 <_printf_i+0x20c>
 80087d8:	2500      	movs	r5, #0
 80087da:	f104 0619 	add.w	r6, r4, #25
 80087de:	e7f5      	b.n	80087cc <_printf_i+0x228>
 80087e0:	0800989d 	.word	0x0800989d
 80087e4:	080098ae 	.word	0x080098ae

080087e8 <__swbuf_r>:
 80087e8:	b5f8      	push	{r3, r4, r5, r6, r7, lr}
 80087ea:	460e      	mov	r6, r1
 80087ec:	4614      	mov	r4, r2
 80087ee:	4605      	mov	r5, r0
 80087f0:	b118      	cbz	r0, 80087fa <__swbuf_r+0x12>
 80087f2:	6a03      	ldr	r3, [r0, #32]
 80087f4:	b90b      	cbnz	r3, 80087fa <__swbuf_r+0x12>
 80087f6:	f7ff fa29 	bl	8007c4c <__sinit>
 80087fa:	69a3      	ldr	r3, [r4, #24]
 80087fc:	60a3      	str	r3, [r4, #8]
 80087fe:	89a3      	ldrh	r3, [r4, #12]
 8008800:	071a      	lsls	r2, r3, #28
 8008802:	d525      	bpl.n	8008850 <__swbuf_r+0x68>
 8008804:	6923      	ldr	r3, [r4, #16]
 8008806:	b31b      	cbz	r3, 8008850 <__swbuf_r+0x68>
 8008808:	6823      	ldr	r3, [r4, #0]
 800880a:	6922      	ldr	r2, [r4, #16]
 800880c:	b2f6      	uxtb	r6, r6
 800880e:	1a98      	subs	r0, r3, r2
 8008810:	6963      	ldr	r3, [r4, #20]
 8008812:	4637      	mov	r7, r6
 8008814:	4283      	cmp	r3, r0
 8008816:	dc04      	bgt.n	8008822 <__swbuf_r+0x3a>
 8008818:	4621      	mov	r1, r4
 800881a:	4628      	mov	r0, r5
 800881c:	f7ff fcbe 	bl	800819c <_fflush_r>
 8008820:	b9e0      	cbnz	r0, 800885c <__swbuf_r+0x74>
 8008822:	68a3      	ldr	r3, [r4, #8]
 8008824:	3b01      	subs	r3, #1
 8008826:	60a3      	str	r3, [r4, #8]
 8008828:	6823      	ldr	r3, [r4, #0]
 800882a:	1c5a      	adds	r2, r3, #1
 800882c:	6022      	str	r2, [r4, #0]
 800882e:	701e      	strb	r6, [r3, #0]
 8008830:	6962      	ldr	r2, [r4, #20]
 8008832:	1c43      	adds	r3, r0, #1
 8008834:	429a      	cmp	r2, r3
 8008836:	d004      	beq.n	8008842 <__swbuf_r+0x5a>
 8008838:	89a3      	ldrh	r3, [r4, #12]
 800883a:	07db      	lsls	r3, r3, #31
 800883c:	d506      	bpl.n	800884c <__swbuf_r+0x64>
 800883e:	2e0a      	cmp	r6, #10
 8008840:	d104      	bne.n	800884c <__swbuf_r+0x64>
 8008842:	4621      	mov	r1, r4
 8008844:	4628      	mov	r0, r5
 8008846:	f7ff fca9 	bl	800819c <_fflush_r>
 800884a:	b938      	cbnz	r0, 800885c <__swbuf_r+0x74>
 800884c:	4638      	mov	r0, r7
 800884e:	bdf8      	pop	{r3, r4, r5, r6, r7, pc}
 8008850:	4621      	mov	r1, r4
 8008852:	4628      	mov	r0, r5
 8008854:	f000 f806 	bl	8008864 <__swsetup_r>
 8008858:	2800      	cmp	r0, #0
 800885a:	d0d5      	beq.n	8008808 <__swbuf_r+0x20>
 800885c:	f04f 37ff 	mov.w	r7, #4294967295
 8008860:	e7f4      	b.n	800884c <__swbuf_r+0x64>
	...

08008864 <__swsetup_r>:
 8008864:	b538      	push	{r3, r4, r5, lr}
 8008866:	4b2a      	ldr	r3, [pc, #168]	; (8008910 <__swsetup_r+0xac>)
 8008868:	4605      	mov	r5, r0
 800886a:	6818      	ldr	r0, [r3, #0]
 800886c:	460c      	mov	r4, r1
 800886e:	b118      	cbz	r0, 8008878 <__swsetup_r+0x14>
 8008870:	6a03      	ldr	r3, [r0, #32]
 8008872:	b90b      	cbnz	r3, 8008878 <__swsetup_r+0x14>
 8008874:	f7ff f9ea 	bl	8007c4c <__sinit>
 8008878:	89a3      	ldrh	r3, [r4, #12]
 800887a:	f9b4 200c 	ldrsh.w	r2, [r4, #12]
 800887e:	0718      	lsls	r0, r3, #28
 8008880:	d422      	bmi.n	80088c8 <__swsetup_r+0x64>
 8008882:	06d9      	lsls	r1, r3, #27
 8008884:	d407      	bmi.n	8008896 <__swsetup_r+0x32>
 8008886:	2309      	movs	r3, #9
 8008888:	602b      	str	r3, [r5, #0]
 800888a:	f042 0340 	orr.w	r3, r2, #64	; 0x40
 800888e:	f04f 30ff 	mov.w	r0, #4294967295
 8008892:	81a3      	strh	r3, [r4, #12]
 8008894:	e034      	b.n	8008900 <__swsetup_r+0x9c>
 8008896:	0758      	lsls	r0, r3, #29
 8008898:	d512      	bpl.n	80088c0 <__swsetup_r+0x5c>
 800889a:	6b61      	ldr	r1, [r4, #52]	; 0x34
 800889c:	b141      	cbz	r1, 80088b0 <__swsetup_r+0x4c>
 800889e:	f104 0344 	add.w	r3, r4, #68	; 0x44
 80088a2:	4299      	cmp	r1, r3
 80088a4:	d002      	beq.n	80088ac <__swsetup_r+0x48>
 80088a6:	4628      	mov	r0, r5
 80088a8:	f7ff fafa 	bl	8007ea0 <_free_r>
 80088ac:	2300      	movs	r3, #0
 80088ae:	6363      	str	r3, [r4, #52]	; 0x34
 80088b0:	89a3      	ldrh	r3, [r4, #12]
 80088b2:	f023 0324 	bic.w	r3, r3, #36	; 0x24
 80088b6:	81a3      	strh	r3, [r4, #12]
 80088b8:	2300      	movs	r3, #0
 80088ba:	6063      	str	r3, [r4, #4]
 80088bc:	6923      	ldr	r3, [r4, #16]
 80088be:	6023      	str	r3, [r4, #0]
 80088c0:	89a3      	ldrh	r3, [r4, #12]
 80088c2:	f043 0308 	orr.w	r3, r3, #8
 80088c6:	81a3      	strh	r3, [r4, #12]
 80088c8:	6923      	ldr	r3, [r4, #16]
 80088ca:	b94b      	cbnz	r3, 80088e0 <__swsetup_r+0x7c>
 80088cc:	89a3      	ldrh	r3, [r4, #12]
 80088ce:	f403 7320 	and.w	r3, r3, #640	; 0x280
 80088d2:	f5b3 7f00 	cmp.w	r3, #512	; 0x200
 80088d6:	d003      	beq.n	80088e0 <__swsetup_r+0x7c>
 80088d8:	4621      	mov	r1, r4
 80088da:	4628      	mov	r0, r5
 80088dc:	f000 f891 	bl	8008a02 <__smakebuf_r>
 80088e0:	89a0      	ldrh	r0, [r4, #12]
 80088e2:	f9b4 200c 	ldrsh.w	r2, [r4, #12]
 80088e6:	f010 0301 	ands.w	r3, r0, #1
 80088ea:	d00a      	beq.n	8008902 <__swsetup_r+0x9e>
 80088ec:	2300      	movs	r3, #0
 80088ee:	60a3      	str	r3, [r4, #8]
 80088f0:	6963      	ldr	r3, [r4, #20]
 80088f2:	425b      	negs	r3, r3
 80088f4:	61a3      	str	r3, [r4, #24]
 80088f6:	6923      	ldr	r3, [r4, #16]
 80088f8:	b943      	cbnz	r3, 800890c <__swsetup_r+0xa8>
 80088fa:	f010 0080 	ands.w	r0, r0, #128	; 0x80
 80088fe:	d1c4      	bne.n	800888a <__swsetup_r+0x26>
 8008900:	bd38      	pop	{r3, r4, r5, pc}
 8008902:	0781      	lsls	r1, r0, #30
 8008904:	bf58      	it	pl
 8008906:	6963      	ldrpl	r3, [r4, #20]
 8008908:	60a3      	str	r3, [r4, #8]
 800890a:	e7f4      	b.n	80088f6 <__swsetup_r+0x92>
 800890c:	2000      	movs	r0, #0
 800890e:	e7f7      	b.n	8008900 <__swsetup_r+0x9c>
 8008910:	20000690 	.word	0x20000690

08008914 <_raise_r>:
 8008914:	291f      	cmp	r1, #31
 8008916:	b538      	push	{r3, r4, r5, lr}
 8008918:	4604      	mov	r4, r0
 800891a:	460d      	mov	r5, r1
 800891c:	d904      	bls.n	8008928 <_raise_r+0x14>
 800891e:	2316      	movs	r3, #22
 8008920:	6003      	str	r3, [r0, #0]
 8008922:	f04f 30ff 	mov.w	r0, #4294967295
 8008926:	bd38      	pop	{r3, r4, r5, pc}
 8008928:	6bc2      	ldr	r2, [r0, #60]	; 0x3c
 800892a:	b112      	cbz	r2, 8008932 <_raise_r+0x1e>
 800892c:	f852 3021 	ldr.w	r3, [r2, r1, lsl #2]
 8008930:	b94b      	cbnz	r3, 8008946 <_raise_r+0x32>
 8008932:	4620      	mov	r0, r4
 8008934:	f000 f830 	bl	8008998 <_getpid_r>
 8008938:	462a      	mov	r2, r5
 800893a:	4601      	mov	r1, r0
 800893c:	4620      	mov	r0, r4
 800893e:	e8bd 4038 	ldmia.w	sp!, {r3, r4, r5, lr}
 8008942:	f000 b817 	b.w	8008974 <_kill_r>
 8008946:	2b01      	cmp	r3, #1
 8008948:	d00a      	beq.n	8008960 <_raise_r+0x4c>
 800894a:	1c59      	adds	r1, r3, #1
 800894c:	d103      	bne.n	8008956 <_raise_r+0x42>
 800894e:	2316      	movs	r3, #22
 8008950:	6003      	str	r3, [r0, #0]
 8008952:	2001      	movs	r0, #1
 8008954:	e7e7      	b.n	8008926 <_raise_r+0x12>
 8008956:	2400      	movs	r4, #0
 8008958:	4628      	mov	r0, r5
 800895a:	f842 4025 	str.w	r4, [r2, r5, lsl #2]
 800895e:	4798      	blx	r3
 8008960:	2000      	movs	r0, #0
 8008962:	e7e0      	b.n	8008926 <_raise_r+0x12>

08008964 <raise>:
 8008964:	4b02      	ldr	r3, [pc, #8]	; (8008970 <raise+0xc>)
 8008966:	4601      	mov	r1, r0
 8008968:	6818      	ldr	r0, [r3, #0]
 800896a:	f7ff bfd3 	b.w	8008914 <_raise_r>
 800896e:	bf00      	nop
 8008970:	20000690 	.word	0x20000690

08008974 <_kill_r>:
 8008974:	b538      	push	{r3, r4, r5, lr}
 8008976:	2300      	movs	r3, #0
 8008978:	4d06      	ldr	r5, [pc, #24]	; (8008994 <_kill_r+0x20>)
 800897a:	4604      	mov	r4, r0
 800897c:	4608      	mov	r0, r1
 800897e:	4611      	mov	r1, r2
 8008980:	602b      	str	r3, [r5, #0]
 8008982:	f7f9 fd83 	bl	800248c <_kill>
 8008986:	1c43      	adds	r3, r0, #1
 8008988:	d102      	bne.n	8008990 <_kill_r+0x1c>
 800898a:	682b      	ldr	r3, [r5, #0]
 800898c:	b103      	cbz	r3, 8008990 <_kill_r+0x1c>
 800898e:	6023      	str	r3, [r4, #0]
 8008990:	bd38      	pop	{r3, r4, r5, pc}
 8008992:	bf00      	nop
 8008994:	20002bd8 	.word	0x20002bd8

08008998 <_getpid_r>:
 8008998:	f7f9 bd76 	b.w	8002488 <_getpid>

0800899c <memchr>:
 800899c:	4603      	mov	r3, r0
 800899e:	b510      	push	{r4, lr}
 80089a0:	b2c9      	uxtb	r1, r1
 80089a2:	4402      	add	r2, r0
 80089a4:	4293      	cmp	r3, r2
 80089a6:	4618      	mov	r0, r3
 80089a8:	d101      	bne.n	80089ae <memchr+0x12>
 80089aa:	2000      	movs	r0, #0
 80089ac:	e003      	b.n	80089b6 <memchr+0x1a>
 80089ae:	7804      	ldrb	r4, [r0, #0]
 80089b0:	3301      	adds	r3, #1
 80089b2:	428c      	cmp	r4, r1
 80089b4:	d1f6      	bne.n	80089a4 <memchr+0x8>
 80089b6:	bd10      	pop	{r4, pc}

080089b8 <__swhatbuf_r>:
 80089b8:	b570      	push	{r4, r5, r6, lr}
 80089ba:	460c      	mov	r4, r1
 80089bc:	f9b1 100e 	ldrsh.w	r1, [r1, #14]
 80089c0:	4615      	mov	r5, r2
 80089c2:	2900      	cmp	r1, #0
 80089c4:	461e      	mov	r6, r3
 80089c6:	b096      	sub	sp, #88	; 0x58
 80089c8:	da0c      	bge.n	80089e4 <__swhatbuf_r+0x2c>
 80089ca:	89a3      	ldrh	r3, [r4, #12]
 80089cc:	2100      	movs	r1, #0
 80089ce:	f013 0f80 	tst.w	r3, #128	; 0x80
 80089d2:	bf0c      	ite	eq
 80089d4:	f44f 6380 	moveq.w	r3, #1024	; 0x400
 80089d8:	2340      	movne	r3, #64	; 0x40
 80089da:	2000      	movs	r0, #0
 80089dc:	6031      	str	r1, [r6, #0]
 80089de:	602b      	str	r3, [r5, #0]
 80089e0:	b016      	add	sp, #88	; 0x58
 80089e2:	bd70      	pop	{r4, r5, r6, pc}
 80089e4:	466a      	mov	r2, sp
 80089e6:	f000 f849 	bl	8008a7c <_fstat_r>
 80089ea:	2800      	cmp	r0, #0
 80089ec:	dbed      	blt.n	80089ca <__swhatbuf_r+0x12>
 80089ee:	9901      	ldr	r1, [sp, #4]
 80089f0:	f401 4170 	and.w	r1, r1, #61440	; 0xf000
 80089f4:	f5a1 5300 	sub.w	r3, r1, #8192	; 0x2000
 80089f8:	4259      	negs	r1, r3
 80089fa:	4159      	adcs	r1, r3
 80089fc:	f44f 6380 	mov.w	r3, #1024	; 0x400
 8008a00:	e7eb      	b.n	80089da <__swhatbuf_r+0x22>

08008a02 <__smakebuf_r>:
 8008a02:	898b      	ldrh	r3, [r1, #12]
 8008a04:	b573      	push	{r0, r1, r4, r5, r6, lr}
 8008a06:	079d      	lsls	r5, r3, #30
 8008a08:	4606      	mov	r6, r0
 8008a0a:	460c      	mov	r4, r1
 8008a0c:	d507      	bpl.n	8008a1e <__smakebuf_r+0x1c>
 8008a0e:	f104 0347 	add.w	r3, r4, #71	; 0x47
 8008a12:	6023      	str	r3, [r4, #0]
 8008a14:	6123      	str	r3, [r4, #16]
 8008a16:	2301      	movs	r3, #1
 8008a18:	6163      	str	r3, [r4, #20]
 8008a1a:	b002      	add	sp, #8
 8008a1c:	bd70      	pop	{r4, r5, r6, pc}
 8008a1e:	466a      	mov	r2, sp
 8008a20:	ab01      	add	r3, sp, #4
 8008a22:	f7ff ffc9 	bl	80089b8 <__swhatbuf_r>
 8008a26:	9900      	ldr	r1, [sp, #0]
 8008a28:	4605      	mov	r5, r0
 8008a2a:	4630      	mov	r0, r6
 8008a2c:	f7ff faa8 	bl	8007f80 <_malloc_r>
 8008a30:	b948      	cbnz	r0, 8008a46 <__smakebuf_r+0x44>
 8008a32:	f9b4 300c 	ldrsh.w	r3, [r4, #12]
 8008a36:	059a      	lsls	r2, r3, #22
 8008a38:	d4ef      	bmi.n	8008a1a <__smakebuf_r+0x18>
 8008a3a:	f023 0303 	bic.w	r3, r3, #3
 8008a3e:	f043 0302 	orr.w	r3, r3, #2
 8008a42:	81a3      	strh	r3, [r4, #12]
 8008a44:	e7e3      	b.n	8008a0e <__smakebuf_r+0xc>
 8008a46:	89a3      	ldrh	r3, [r4, #12]
 8008a48:	6020      	str	r0, [r4, #0]
 8008a4a:	f043 0380 	orr.w	r3, r3, #128	; 0x80
 8008a4e:	81a3      	strh	r3, [r4, #12]
 8008a50:	9b00      	ldr	r3, [sp, #0]
 8008a52:	6120      	str	r0, [r4, #16]
 8008a54:	6163      	str	r3, [r4, #20]
 8008a56:	9b01      	ldr	r3, [sp, #4]
 8008a58:	b15b      	cbz	r3, 8008a72 <__smakebuf_r+0x70>
 8008a5a:	4630      	mov	r0, r6
 8008a5c:	f9b4 100e 	ldrsh.w	r1, [r4, #14]
 8008a60:	f000 f81e 	bl	8008aa0 <_isatty_r>
 8008a64:	b128      	cbz	r0, 8008a72 <__smakebuf_r+0x70>
 8008a66:	89a3      	ldrh	r3, [r4, #12]
 8008a68:	f023 0303 	bic.w	r3, r3, #3
 8008a6c:	f043 0301 	orr.w	r3, r3, #1
 8008a70:	81a3      	strh	r3, [r4, #12]
 8008a72:	89a3      	ldrh	r3, [r4, #12]
 8008a74:	431d      	orrs	r5, r3
 8008a76:	81a5      	strh	r5, [r4, #12]
 8008a78:	e7cf      	b.n	8008a1a <__smakebuf_r+0x18>
	...

08008a7c <_fstat_r>:
 8008a7c:	b538      	push	{r3, r4, r5, lr}
 8008a7e:	2300      	movs	r3, #0
 8008a80:	4d06      	ldr	r5, [pc, #24]	; (8008a9c <_fstat_r+0x20>)
 8008a82:	4604      	mov	r4, r0
 8008a84:	4608      	mov	r0, r1
 8008a86:	4611      	mov	r1, r2
 8008a88:	602b      	str	r3, [r5, #0]
 8008a8a:	f7f9 fd2a 	bl	80024e2 <_fstat>
 8008a8e:	1c43      	adds	r3, r0, #1
 8008a90:	d102      	bne.n	8008a98 <_fstat_r+0x1c>
 8008a92:	682b      	ldr	r3, [r5, #0]
 8008a94:	b103      	cbz	r3, 8008a98 <_fstat_r+0x1c>
 8008a96:	6023      	str	r3, [r4, #0]
 8008a98:	bd38      	pop	{r3, r4, r5, pc}
 8008a9a:	bf00      	nop
 8008a9c:	20002bd8 	.word	0x20002bd8

08008aa0 <_isatty_r>:
 8008aa0:	b538      	push	{r3, r4, r5, lr}
 8008aa2:	2300      	movs	r3, #0
 8008aa4:	4d05      	ldr	r5, [pc, #20]	; (8008abc <_isatty_r+0x1c>)
 8008aa6:	4604      	mov	r4, r0
 8008aa8:	4608      	mov	r0, r1
 8008aaa:	602b      	str	r3, [r5, #0]
 8008aac:	f7f9 fd1e 	bl	80024ec <_isatty>
 8008ab0:	1c43      	adds	r3, r0, #1
 8008ab2:	d102      	bne.n	8008aba <_isatty_r+0x1a>
 8008ab4:	682b      	ldr	r3, [r5, #0]
 8008ab6:	b103      	cbz	r3, 8008aba <_isatty_r+0x1a>
 8008ab8:	6023      	str	r3, [r4, #0]
 8008aba:	bd38      	pop	{r3, r4, r5, pc}
 8008abc:	20002bd8 	.word	0x20002bd8

08008ac0 <_init>:
 8008ac0:	b5f8      	push	{r3, r4, r5, r6, r7, lr}
 8008ac2:	bf00      	nop
 8008ac4:	bcf8      	pop	{r3, r4, r5, r6, r7}
 8008ac6:	bc08      	pop	{r3}
 8008ac8:	469e      	mov	lr, r3
 8008aca:	4770      	bx	lr

08008acc <_fini>:
 8008acc:	b5f8      	push	{r3, r4, r5, r6, r7, lr}
 8008ace:	bf00      	nop
 8008ad0:	bcf8      	pop	{r3, r4, r5, r6, r7}
 8008ad2:	bc08      	pop	{r3}
 8008ad4:	469e      	mov	lr, r3
 8008ad6:	4770      	bx	lr
